Archive member included because of file (symbol)

/tools/altera/12.0/nios2eds/bin/gnu/H-i686-pc-linux-gnu/bin/../lib/gcc/nios2-elf/4.1.2/mno-hw-mul/libgcc.a(lib2-divmod.o)
                              obj/default/tasks.o (__modsi3)
/tools/altera/12.0/nios2eds/bin/gnu/H-i686-pc-linux-gnu/bin/../lib/gcc/nios2-elf/4.1.2/mno-hw-mul/libgcc.a(lib2-mul.o)
                              obj/default/PB_button.o (__mulsi3)
/tools/altera/12.0/nios2eds/bin/gnu/H-i686-pc-linux-gnu/bin/../lib/gcc/nios2-elf/4.1.2/../../../../nios2-elf/lib/mno-hw-mul/libc.a(lib_a-fprintf.o)
                              obj/default/alt_ucosii_simple_error_check.o (fprintf)
/tools/altera/12.0/nios2eds/bin/gnu/H-i686-pc-linux-gnu/bin/../lib/gcc/nios2-elf/4.1.2/../../../../nios2-elf/lib/mno-hw-mul/libc.a(lib_a-fwrite.o)
                              obj/default/alt_ucosii_simple_error_check.o (fwrite)
/tools/altera/12.0/nios2eds/bin/gnu/H-i686-pc-linux-gnu/bin/../lib/gcc/nios2-elf/4.1.2/../../../../nios2-elf/lib/mno-hw-mul/libc.a(lib_a-impure.o)
                              obj/default/alt_ucosii_simple_error_check.o (_impure_ptr)
/tools/altera/12.0/nios2eds/bin/gnu/H-i686-pc-linux-gnu/bin/../lib/gcc/nios2-elf/4.1.2/../../../../nios2-elf/lib/mno-hw-mul/libc.a(lib_a-printf.o)
                              obj/default/tasks.o (printf)
/tools/altera/12.0/nios2eds/bin/gnu/H-i686-pc-linux-gnu/bin/../lib/gcc/nios2-elf/4.1.2/../../../../nios2-elf/lib/mno-hw-mul/libc.a(lib_a-puts.o)
                              obj/default/alt_ucosii_simple_error_check.o (puts)
/tools/altera/12.0/nios2eds/bin/gnu/H-i686-pc-linux-gnu/bin/../lib/gcc/nios2-elf/4.1.2/../../../../nios2-elf/lib/mno-hw-mul/libc.a(lib_a-rand.o)
                              obj/default/experiment2.o (srand)
/tools/altera/12.0/nios2eds/bin/gnu/H-i686-pc-linux-gnu/bin/../lib/gcc/nios2-elf/4.1.2/../../../../nios2-elf/lib/mno-hw-mul/libc.a(lib_a-strlen.o)
                              /tools/altera/12.0/nios2eds/bin/gnu/H-i686-pc-linux-gnu/bin/../lib/gcc/nios2-elf/4.1.2/../../../../nios2-elf/lib/mno-hw-mul/libc.a(lib_a-puts.o) (strlen)
/tools/altera/12.0/nios2eds/bin/gnu/H-i686-pc-linux-gnu/bin/../lib/gcc/nios2-elf/4.1.2/../../../../nios2-elf/lib/mno-hw-mul/libc.a(lib_a-vfprintf.o)
                              /tools/altera/12.0/nios2eds/bin/gnu/H-i686-pc-linux-gnu/bin/../lib/gcc/nios2-elf/4.1.2/../../../../nios2-elf/lib/mno-hw-mul/libc.a(lib_a-printf.o) (___vfprintf_internal_r)
/tools/altera/12.0/nios2eds/bin/gnu/H-i686-pc-linux-gnu/bin/../lib/gcc/nios2-elf/4.1.2/../../../../nios2-elf/lib/mno-hw-mul/libc.a(lib_a-wsetup.o)
                              /tools/altera/12.0/nios2eds/bin/gnu/H-i686-pc-linux-gnu/bin/../lib/gcc/nios2-elf/4.1.2/../../../../nios2-elf/lib/mno-hw-mul/libc.a(lib_a-vfprintf.o) (__swsetup_r)
/tools/altera/12.0/nios2eds/bin/gnu/H-i686-pc-linux-gnu/bin/../lib/gcc/nios2-elf/4.1.2/../../../../nios2-elf/lib/mno-hw-mul/libc.a(lib_a-dtoa.o)
                              /tools/altera/12.0/nios2eds/bin/gnu/H-i686-pc-linux-gnu/bin/../lib/gcc/nios2-elf/4.1.2/../../../../nios2-elf/lib/mno-hw-mul/libc.a(lib_a-vfprintf.o) (_dtoa_r)
/tools/altera/12.0/nios2eds/bin/gnu/H-i686-pc-linux-gnu/bin/../lib/gcc/nios2-elf/4.1.2/../../../../nios2-elf/lib/mno-hw-mul/libc.a(lib_a-fflush.o)
                              /tools/altera/12.0/nios2eds/bin/gnu/H-i686-pc-linux-gnu/bin/../lib/gcc/nios2-elf/4.1.2/../../../../nios2-elf/lib/mno-hw-mul/libc.a(lib_a-vfprintf.o) (_fflush_r)
/tools/altera/12.0/nios2eds/bin/gnu/H-i686-pc-linux-gnu/bin/../lib/gcc/nios2-elf/4.1.2/../../../../nios2-elf/lib/mno-hw-mul/libc.a(lib_a-findfp.o)
                              /tools/altera/12.0/nios2eds/bin/gnu/H-i686-pc-linux-gnu/bin/../lib/gcc/nios2-elf/4.1.2/../../../../nios2-elf/lib/mno-hw-mul/libc.a(lib_a-fwrite.o) (__sinit)
/tools/altera/12.0/nios2eds/bin/gnu/H-i686-pc-linux-gnu/bin/../lib/gcc/nios2-elf/4.1.2/../../../../nios2-elf/lib/mno-hw-mul/libc.a(lib_a-freer.o)
                              /tools/altera/12.0/nios2eds/bin/gnu/H-i686-pc-linux-gnu/bin/../lib/gcc/nios2-elf/4.1.2/../../../../nios2-elf/lib/mno-hw-mul/libc.a(lib_a-wsetup.o) (_free_r)
/tools/altera/12.0/nios2eds/bin/gnu/H-i686-pc-linux-gnu/bin/../lib/gcc/nios2-elf/4.1.2/../../../../nios2-elf/lib/mno-hw-mul/libc.a(lib_a-fvwrite.o)
                              /tools/altera/12.0/nios2eds/bin/gnu/H-i686-pc-linux-gnu/bin/../lib/gcc/nios2-elf/4.1.2/../../../../nios2-elf/lib/mno-hw-mul/libc.a(lib_a-fwrite.o) (__sfvwrite_r)
/tools/altera/12.0/nios2eds/bin/gnu/H-i686-pc-linux-gnu/bin/../lib/gcc/nios2-elf/4.1.2/../../../../nios2-elf/lib/mno-hw-mul/libc.a(lib_a-fwalk.o)
                              /tools/altera/12.0/nios2eds/bin/gnu/H-i686-pc-linux-gnu/bin/../lib/gcc/nios2-elf/4.1.2/../../../../nios2-elf/lib/mno-hw-mul/libc.a(lib_a-fflush.o) (_fwalk_reent)
/tools/altera/12.0/nios2eds/bin/gnu/H-i686-pc-linux-gnu/bin/../lib/gcc/nios2-elf/4.1.2/../../../../nios2-elf/lib/mno-hw-mul/libc.a(lib_a-locale.o)
                              /tools/altera/12.0/nios2eds/bin/gnu/H-i686-pc-linux-gnu/bin/../lib/gcc/nios2-elf/4.1.2/../../../../nios2-elf/lib/mno-hw-mul/libc.a(lib_a-vfprintf.o) (_localeconv_r)
/tools/altera/12.0/nios2eds/bin/gnu/H-i686-pc-linux-gnu/bin/../lib/gcc/nios2-elf/4.1.2/../../../../nios2-elf/lib/mno-hw-mul/libc.a(lib_a-makebuf.o)
                              /tools/altera/12.0/nios2eds/bin/gnu/H-i686-pc-linux-gnu/bin/../lib/gcc/nios2-elf/4.1.2/../../../../nios2-elf/lib/mno-hw-mul/libc.a(lib_a-wsetup.o) (__smakebuf_r)
/tools/altera/12.0/nios2eds/bin/gnu/H-i686-pc-linux-gnu/bin/../lib/gcc/nios2-elf/4.1.2/../../../../nios2-elf/lib/mno-hw-mul/libc.a(lib_a-mallocr.o)
                              /tools/altera/12.0/nios2eds/bin/gnu/H-i686-pc-linux-gnu/bin/../lib/gcc/nios2-elf/4.1.2/../../../../nios2-elf/lib/mno-hw-mul/libc.a(lib_a-findfp.o) (_malloc_r)
/tools/altera/12.0/nios2eds/bin/gnu/H-i686-pc-linux-gnu/bin/../lib/gcc/nios2-elf/4.1.2/../../../../nios2-elf/lib/mno-hw-mul/libc.a(lib_a-memchr.o)
                              /tools/altera/12.0/nios2eds/bin/gnu/H-i686-pc-linux-gnu/bin/../lib/gcc/nios2-elf/4.1.2/../../../../nios2-elf/lib/mno-hw-mul/libc.a(lib_a-vfprintf.o) (memchr)
/tools/altera/12.0/nios2eds/bin/gnu/H-i686-pc-linux-gnu/bin/../lib/gcc/nios2-elf/4.1.2/../../../../nios2-elf/lib/mno-hw-mul/libc.a(lib_a-memcpy.o)
                              /tools/altera/12.0/nios2eds/bin/gnu/H-i686-pc-linux-gnu/bin/../lib/gcc/nios2-elf/4.1.2/../../../../nios2-elf/lib/mno-hw-mul/libc.a(lib_a-dtoa.o) (memcpy)
/tools/altera/12.0/nios2eds/bin/gnu/H-i686-pc-linux-gnu/bin/../lib/gcc/nios2-elf/4.1.2/../../../../nios2-elf/lib/mno-hw-mul/libc.a(lib_a-memmove.o)
                              /tools/altera/12.0/nios2eds/bin/gnu/H-i686-pc-linux-gnu/bin/../lib/gcc/nios2-elf/4.1.2/../../../../nios2-elf/lib/mno-hw-mul/libc.a(lib_a-fvwrite.o) (memmove)
/tools/altera/12.0/nios2eds/bin/gnu/H-i686-pc-linux-gnu/bin/../lib/gcc/nios2-elf/4.1.2/../../../../nios2-elf/lib/mno-hw-mul/libc.a(lib_a-memset.o)
                              /tools/altera/12.0/nios2eds/bin/gnu/H-i686-pc-linux-gnu/bin/../lib/gcc/nios2-elf/4.1.2/../../../../nios2-elf/lib/mno-hw-mul/libc.a(lib_a-findfp.o) (memset)
/tools/altera/12.0/nios2eds/bin/gnu/H-i686-pc-linux-gnu/bin/../lib/gcc/nios2-elf/4.1.2/../../../../nios2-elf/lib/mno-hw-mul/libc.a(lib_a-mprec.o)
                              /tools/altera/12.0/nios2eds/bin/gnu/H-i686-pc-linux-gnu/bin/../lib/gcc/nios2-elf/4.1.2/../../../../nios2-elf/lib/mno-hw-mul/libc.a(lib_a-dtoa.o) (_Bfree)
/tools/altera/12.0/nios2eds/bin/gnu/H-i686-pc-linux-gnu/bin/../lib/gcc/nios2-elf/4.1.2/../../../../nios2-elf/lib/mno-hw-mul/libc.a(lib_a-reallocr.o)
                              /tools/altera/12.0/nios2eds/bin/gnu/H-i686-pc-linux-gnu/bin/../lib/gcc/nios2-elf/4.1.2/../../../../nios2-elf/lib/mno-hw-mul/libc.a(lib_a-fvwrite.o) (_realloc_r)
/tools/altera/12.0/nios2eds/bin/gnu/H-i686-pc-linux-gnu/bin/../lib/gcc/nios2-elf/4.1.2/../../../../nios2-elf/lib/mno-hw-mul/libc.a(lib_a-s_isinfd.o)
                              /tools/altera/12.0/nios2eds/bin/gnu/H-i686-pc-linux-gnu/bin/../lib/gcc/nios2-elf/4.1.2/../../../../nios2-elf/lib/mno-hw-mul/libc.a(lib_a-vfprintf.o) (__isinfd)
/tools/altera/12.0/nios2eds/bin/gnu/H-i686-pc-linux-gnu/bin/../lib/gcc/nios2-elf/4.1.2/../../../../nios2-elf/lib/mno-hw-mul/libc.a(lib_a-s_isnand.o)
                              /tools/altera/12.0/nios2eds/bin/gnu/H-i686-pc-linux-gnu/bin/../lib/gcc/nios2-elf/4.1.2/../../../../nios2-elf/lib/mno-hw-mul/libc.a(lib_a-vfprintf.o) (__isnand)
/tools/altera/12.0/nios2eds/bin/gnu/H-i686-pc-linux-gnu/bin/../lib/gcc/nios2-elf/4.1.2/../../../../nios2-elf/lib/mno-hw-mul/libc.a(lib_a-sbrkr.o)
                              /tools/altera/12.0/nios2eds/bin/gnu/H-i686-pc-linux-gnu/bin/../lib/gcc/nios2-elf/4.1.2/../../../../nios2-elf/lib/mno-hw-mul/libc.a(lib_a-freer.o) (_sbrk_r)
/tools/altera/12.0/nios2eds/bin/gnu/H-i686-pc-linux-gnu/bin/../lib/gcc/nios2-elf/4.1.2/../../../../nios2-elf/lib/mno-hw-mul/libc.a(lib_a-stdio.o)
                              /tools/altera/12.0/nios2eds/bin/gnu/H-i686-pc-linux-gnu/bin/../lib/gcc/nios2-elf/4.1.2/../../../../nios2-elf/lib/mno-hw-mul/libc.a(lib_a-findfp.o) (__sclose)
/tools/altera/12.0/nios2eds/bin/gnu/H-i686-pc-linux-gnu/bin/../lib/gcc/nios2-elf/4.1.2/../../../../nios2-elf/lib/mno-hw-mul/libc.a(lib_a-strcmp.o)
                              /tools/altera/12.0/nios2eds/bin/gnu/H-i686-pc-linux-gnu/bin/../lib/gcc/nios2-elf/4.1.2/../../../../nios2-elf/lib/mno-hw-mul/libc.a(lib_a-locale.o) (strcmp)
/tools/altera/12.0/nios2eds/bin/gnu/H-i686-pc-linux-gnu/bin/../lib/gcc/nios2-elf/4.1.2/../../../../nios2-elf/lib/mno-hw-mul/libc.a(lib_a-writer.o)
                              /tools/altera/12.0/nios2eds/bin/gnu/H-i686-pc-linux-gnu/bin/../lib/gcc/nios2-elf/4.1.2/../../../../nios2-elf/lib/mno-hw-mul/libc.a(lib_a-stdio.o) (_write_r)
/tools/altera/12.0/nios2eds/bin/gnu/H-i686-pc-linux-gnu/bin/../lib/gcc/nios2-elf/4.1.2/../../../../nios2-elf/lib/mno-hw-mul/libc.a(lib_a-callocr.o)
                              /tools/altera/12.0/nios2eds/bin/gnu/H-i686-pc-linux-gnu/bin/../lib/gcc/nios2-elf/4.1.2/../../../../nios2-elf/lib/mno-hw-mul/libc.a(lib_a-mprec.o) (_calloc_r)
/tools/altera/12.0/nios2eds/bin/gnu/H-i686-pc-linux-gnu/bin/../lib/gcc/nios2-elf/4.1.2/../../../../nios2-elf/lib/mno-hw-mul/libc.a(lib_a-closer.o)
                              /tools/altera/12.0/nios2eds/bin/gnu/H-i686-pc-linux-gnu/bin/../lib/gcc/nios2-elf/4.1.2/../../../../nios2-elf/lib/mno-hw-mul/libc.a(lib_a-stdio.o) (_close_r)
/tools/altera/12.0/nios2eds/bin/gnu/H-i686-pc-linux-gnu/bin/../lib/gcc/nios2-elf/4.1.2/../../../../nios2-elf/lib/mno-hw-mul/libc.a(lib_a-fclose.o)
                              /tools/altera/12.0/nios2eds/bin/gnu/H-i686-pc-linux-gnu/bin/../lib/gcc/nios2-elf/4.1.2/../../../../nios2-elf/lib/mno-hw-mul/libc.a(lib_a-findfp.o) (fclose)
/tools/altera/12.0/nios2eds/bin/gnu/H-i686-pc-linux-gnu/bin/../lib/gcc/nios2-elf/4.1.2/../../../../nios2-elf/lib/mno-hw-mul/libc.a(lib_a-fstatr.o)
                              /tools/altera/12.0/nios2eds/bin/gnu/H-i686-pc-linux-gnu/bin/../lib/gcc/nios2-elf/4.1.2/../../../../nios2-elf/lib/mno-hw-mul/libc.a(lib_a-makebuf.o) (_fstat_r)
/tools/altera/12.0/nios2eds/bin/gnu/H-i686-pc-linux-gnu/bin/../lib/gcc/nios2-elf/4.1.2/../../../../nios2-elf/lib/mno-hw-mul/libc.a(lib_a-int_errno.o)
                              /tools/altera/12.0/nios2eds/bin/gnu/H-i686-pc-linux-gnu/bin/../lib/gcc/nios2-elf/4.1.2/../../../../nios2-elf/lib/mno-hw-mul/libc.a(lib_a-sbrkr.o) (errno)
/tools/altera/12.0/nios2eds/bin/gnu/H-i686-pc-linux-gnu/bin/../lib/gcc/nios2-elf/4.1.2/../../../../nios2-elf/lib/mno-hw-mul/libc.a(lib_a-isattyr.o)
                              /tools/altera/12.0/nios2eds/bin/gnu/H-i686-pc-linux-gnu/bin/../lib/gcc/nios2-elf/4.1.2/../../../../nios2-elf/lib/mno-hw-mul/libc.a(lib_a-makebuf.o) (_isatty_r)
/tools/altera/12.0/nios2eds/bin/gnu/H-i686-pc-linux-gnu/bin/../lib/gcc/nios2-elf/4.1.2/../../../../nios2-elf/lib/mno-hw-mul/libc.a(lib_a-lseekr.o)
                              /tools/altera/12.0/nios2eds/bin/gnu/H-i686-pc-linux-gnu/bin/../lib/gcc/nios2-elf/4.1.2/../../../../nios2-elf/lib/mno-hw-mul/libc.a(lib_a-stdio.o) (_lseek_r)
/tools/altera/12.0/nios2eds/bin/gnu/H-i686-pc-linux-gnu/bin/../lib/gcc/nios2-elf/4.1.2/../../../../nios2-elf/lib/mno-hw-mul/libc.a(lib_a-readr.o)
                              /tools/altera/12.0/nios2eds/bin/gnu/H-i686-pc-linux-gnu/bin/../lib/gcc/nios2-elf/4.1.2/../../../../nios2-elf/lib/mno-hw-mul/libc.a(lib_a-stdio.o) (_read_r)
/tools/altera/12.0/nios2eds/bin/gnu/H-i686-pc-linux-gnu/bin/../lib/gcc/nios2-elf/4.1.2/mno-hw-mul/libgcc.a(_muldi3.o)
                              /tools/altera/12.0/nios2eds/bin/gnu/H-i686-pc-linux-gnu/bin/../lib/gcc/nios2-elf/4.1.2/../../../../nios2-elf/lib/mno-hw-mul/libc.a(lib_a-rand.o) (__muldi3)
/tools/altera/12.0/nios2eds/bin/gnu/H-i686-pc-linux-gnu/bin/../lib/gcc/nios2-elf/4.1.2/mno-hw-mul/libgcc.a(_udivdi3.o)
                              /tools/altera/12.0/nios2eds/bin/gnu/H-i686-pc-linux-gnu/bin/../lib/gcc/nios2-elf/4.1.2/../../../../nios2-elf/lib/mno-hw-mul/libc.a(lib_a-vfprintf.o) (__udivdi3)
/tools/altera/12.0/nios2eds/bin/gnu/H-i686-pc-linux-gnu/bin/../lib/gcc/nios2-elf/4.1.2/mno-hw-mul/libgcc.a(_umoddi3.o)
                              /tools/altera/12.0/nios2eds/bin/gnu/H-i686-pc-linux-gnu/bin/../lib/gcc/nios2-elf/4.1.2/../../../../nios2-elf/lib/mno-hw-mul/libc.a(lib_a-vfprintf.o) (__umoddi3)
/tools/altera/12.0/nios2eds/bin/gnu/H-i686-pc-linux-gnu/bin/../lib/gcc/nios2-elf/4.1.2/mno-hw-mul/libgcc.a(_addsub_df.o)
                              /tools/altera/12.0/nios2eds/bin/gnu/H-i686-pc-linux-gnu/bin/../lib/gcc/nios2-elf/4.1.2/../../../../nios2-elf/lib/mno-hw-mul/libc.a(lib_a-dtoa.o) (__subdf3)
/tools/altera/12.0/nios2eds/bin/gnu/H-i686-pc-linux-gnu/bin/../lib/gcc/nios2-elf/4.1.2/mno-hw-mul/libgcc.a(_mul_df.o)
                              /tools/altera/12.0/nios2eds/bin/gnu/H-i686-pc-linux-gnu/bin/../lib/gcc/nios2-elf/4.1.2/../../../../nios2-elf/lib/mno-hw-mul/libc.a(lib_a-dtoa.o) (__muldf3)
/tools/altera/12.0/nios2eds/bin/gnu/H-i686-pc-linux-gnu/bin/../lib/gcc/nios2-elf/4.1.2/mno-hw-mul/libgcc.a(_div_df.o)
                              /tools/altera/12.0/nios2eds/bin/gnu/H-i686-pc-linux-gnu/bin/../lib/gcc/nios2-elf/4.1.2/../../../../nios2-elf/lib/mno-hw-mul/libc.a(lib_a-dtoa.o) (__divdf3)
/tools/altera/12.0/nios2eds/bin/gnu/H-i686-pc-linux-gnu/bin/../lib/gcc/nios2-elf/4.1.2/mno-hw-mul/libgcc.a(_eq_df.o)
                              /tools/altera/12.0/nios2eds/bin/gnu/H-i686-pc-linux-gnu/bin/../lib/gcc/nios2-elf/4.1.2/../../../../nios2-elf/lib/mno-hw-mul/libc.a(lib_a-vfprintf.o) (__eqdf2)
/tools/altera/12.0/nios2eds/bin/gnu/H-i686-pc-linux-gnu/bin/../lib/gcc/nios2-elf/4.1.2/mno-hw-mul/libgcc.a(_ne_df.o)
                              /tools/altera/12.0/nios2eds/bin/gnu/H-i686-pc-linux-gnu/bin/../lib/gcc/nios2-elf/4.1.2/../../../../nios2-elf/lib/mno-hw-mul/libc.a(lib_a-vfprintf.o) (__nedf2)
/tools/altera/12.0/nios2eds/bin/gnu/H-i686-pc-linux-gnu/bin/../lib/gcc/nios2-elf/4.1.2/mno-hw-mul/libgcc.a(_gt_df.o)
                              /tools/altera/12.0/nios2eds/bin/gnu/H-i686-pc-linux-gnu/bin/../lib/gcc/nios2-elf/4.1.2/../../../../nios2-elf/lib/mno-hw-mul/libc.a(lib_a-dtoa.o) (__gtdf2)
/tools/altera/12.0/nios2eds/bin/gnu/H-i686-pc-linux-gnu/bin/../lib/gcc/nios2-elf/4.1.2/mno-hw-mul/libgcc.a(_ge_df.o)
                              /tools/altera/12.0/nios2eds/bin/gnu/H-i686-pc-linux-gnu/bin/../lib/gcc/nios2-elf/4.1.2/../../../../nios2-elf/lib/mno-hw-mul/libc.a(lib_a-dtoa.o) (__gedf2)
/tools/altera/12.0/nios2eds/bin/gnu/H-i686-pc-linux-gnu/bin/../lib/gcc/nios2-elf/4.1.2/mno-hw-mul/libgcc.a(_lt_df.o)
                              /tools/altera/12.0/nios2eds/bin/gnu/H-i686-pc-linux-gnu/bin/../lib/gcc/nios2-elf/4.1.2/../../../../nios2-elf/lib/mno-hw-mul/libc.a(lib_a-vfprintf.o) (__ltdf2)
/tools/altera/12.0/nios2eds/bin/gnu/H-i686-pc-linux-gnu/bin/../lib/gcc/nios2-elf/4.1.2/mno-hw-mul/libgcc.a(_si_to_df.o)
                              /tools/altera/12.0/nios2eds/bin/gnu/H-i686-pc-linux-gnu/bin/../lib/gcc/nios2-elf/4.1.2/../../../../nios2-elf/lib/mno-hw-mul/libc.a(lib_a-dtoa.o) (__floatsidf)
/tools/altera/12.0/nios2eds/bin/gnu/H-i686-pc-linux-gnu/bin/../lib/gcc/nios2-elf/4.1.2/mno-hw-mul/libgcc.a(_df_to_si.o)
                              /tools/altera/12.0/nios2eds/bin/gnu/H-i686-pc-linux-gnu/bin/../lib/gcc/nios2-elf/4.1.2/../../../../nios2-elf/lib/mno-hw-mul/libc.a(lib_a-dtoa.o) (__fixdfsi)
/tools/altera/12.0/nios2eds/bin/gnu/H-i686-pc-linux-gnu/bin/../lib/gcc/nios2-elf/4.1.2/mno-hw-mul/libgcc.a(_thenan_df.o)
                              /tools/altera/12.0/nios2eds/bin/gnu/H-i686-pc-linux-gnu/bin/../lib/gcc/nios2-elf/4.1.2/mno-hw-mul/libgcc.a(_addsub_df.o) (__thenan_df)
/tools/altera/12.0/nios2eds/bin/gnu/H-i686-pc-linux-gnu/bin/../lib/gcc/nios2-elf/4.1.2/mno-hw-mul/libgcc.a(_usi_to_df.o)
                              /tools/altera/12.0/nios2eds/bin/gnu/H-i686-pc-linux-gnu/bin/../lib/gcc/nios2-elf/4.1.2/../../../../nios2-elf/lib/mno-hw-mul/libc.a(lib_a-dtoa.o) (__floatunsidf)
/tools/altera/12.0/nios2eds/bin/gnu/H-i686-pc-linux-gnu/bin/../lib/gcc/nios2-elf/4.1.2/mno-hw-mul/libgcc.a(_clz.o)
                              /tools/altera/12.0/nios2eds/bin/gnu/H-i686-pc-linux-gnu/bin/../lib/gcc/nios2-elf/4.1.2/mno-hw-mul/libgcc.a(_udivdi3.o) (__clz_tab)
/tools/altera/12.0/nios2eds/bin/gnu/H-i686-pc-linux-gnu/bin/../lib/gcc/nios2-elf/4.1.2/mno-hw-mul/libgcc.a(_clzsi2.o)
                              /tools/altera/12.0/nios2eds/bin/gnu/H-i686-pc-linux-gnu/bin/../lib/gcc/nios2-elf/4.1.2/mno-hw-mul/libgcc.a(_si_to_df.o) (__clzsi2)
/tools/altera/12.0/nios2eds/bin/gnu/H-i686-pc-linux-gnu/bin/../lib/gcc/nios2-elf/4.1.2/mno-hw-mul/libgcc.a(_pack_df.o)
                              /tools/altera/12.0/nios2eds/bin/gnu/H-i686-pc-linux-gnu/bin/../lib/gcc/nios2-elf/4.1.2/mno-hw-mul/libgcc.a(_addsub_df.o) (__pack_d)
/tools/altera/12.0/nios2eds/bin/gnu/H-i686-pc-linux-gnu/bin/../lib/gcc/nios2-elf/4.1.2/mno-hw-mul/libgcc.a(_unpack_df.o)
                              /tools/altera/12.0/nios2eds/bin/gnu/H-i686-pc-linux-gnu/bin/../lib/gcc/nios2-elf/4.1.2/mno-hw-mul/libgcc.a(_addsub_df.o) (__unpack_d)
/tools/altera/12.0/nios2eds/bin/gnu/H-i686-pc-linux-gnu/bin/../lib/gcc/nios2-elf/4.1.2/mno-hw-mul/libgcc.a(_fpcmp_parts_df.o)
                              /tools/altera/12.0/nios2eds/bin/gnu/H-i686-pc-linux-gnu/bin/../lib/gcc/nios2-elf/4.1.2/mno-hw-mul/libgcc.a(_eq_df.o) (__fpcmp_parts_d)
../experiment2_bsp//libucosii_bsp.a(alt_close.o)
                              /tools/altera/12.0/nios2eds/bin/gnu/H-i686-pc-linux-gnu/bin/../lib/gcc/nios2-elf/4.1.2/../../../../nios2-elf/lib/mno-hw-mul/libc.a(lib_a-closer.o) (close)
../experiment2_bsp//libucosii_bsp.a(alt_dev.o)
                              ../experiment2_bsp//libucosii_bsp.a(alt_close.o) (alt_fd_list)
../experiment2_bsp//libucosii_bsp.a(alt_errno.o)
                              ../experiment2_bsp//libucosii_bsp.a(alt_close.o) (alt_errno)
../experiment2_bsp//libucosii_bsp.a(alt_fstat.o)
                              /tools/altera/12.0/nios2eds/bin/gnu/H-i686-pc-linux-gnu/bin/../lib/gcc/nios2-elf/4.1.2/../../../../nios2-elf/lib/mno-hw-mul/libc.a(lib_a-fstatr.o) (fstat)
../experiment2_bsp//libucosii_bsp.a(alt_irq_register.o)
                              obj/default/PB_button.o (alt_irq_register)
../experiment2_bsp//libucosii_bsp.a(alt_irq_vars.o)
                              ../experiment2_bsp//libucosii_bsp.a(alt_irq_register.o) (alt_irq_active)
../experiment2_bsp//libucosii_bsp.a(alt_isatty.o)
                              /tools/altera/12.0/nios2eds/bin/gnu/H-i686-pc-linux-gnu/bin/../lib/gcc/nios2-elf/4.1.2/../../../../nios2-elf/lib/mno-hw-mul/libc.a(lib_a-isattyr.o) (isatty)
../experiment2_bsp//libucosii_bsp.a(alt_load.o)
                              ../experiment2_bsp//obj/HAL/src/crt0.o (alt_load)
../experiment2_bsp//libucosii_bsp.a(alt_lseek.o)
                              /tools/altera/12.0/nios2eds/bin/gnu/H-i686-pc-linux-gnu/bin/../lib/gcc/nios2-elf/4.1.2/../../../../nios2-elf/lib/mno-hw-mul/libc.a(lib_a-lseekr.o) (lseek)
../experiment2_bsp//libucosii_bsp.a(alt_main.o)
                              ../experiment2_bsp//obj/HAL/src/crt0.o (alt_main)
../experiment2_bsp//libucosii_bsp.a(alt_printf.o)
                              obj/default/experiment2.o (alt_printf)
../experiment2_bsp//libucosii_bsp.a(alt_putchar.o)
                              ../experiment2_bsp//libucosii_bsp.a(alt_printf.o) (alt_putchar)
../experiment2_bsp//libucosii_bsp.a(alt_read.o)
                              /tools/altera/12.0/nios2eds/bin/gnu/H-i686-pc-linux-gnu/bin/../lib/gcc/nios2-elf/4.1.2/../../../../nios2-elf/lib/mno-hw-mul/libc.a(lib_a-readr.o) (read)
../experiment2_bsp//libucosii_bsp.a(alt_release_fd.o)
                              ../experiment2_bsp//libucosii_bsp.a(alt_close.o) (alt_release_fd)
../experiment2_bsp//libucosii_bsp.a(alt_sbrk.o)
                              /tools/altera/12.0/nios2eds/bin/gnu/H-i686-pc-linux-gnu/bin/../lib/gcc/nios2-elf/4.1.2/../../../../nios2-elf/lib/mno-hw-mul/libc.a(lib_a-sbrkr.o) (sbrk)
../experiment2_bsp//libucosii_bsp.a(alt_write.o)
                              /tools/altera/12.0/nios2eds/bin/gnu/H-i686-pc-linux-gnu/bin/../lib/gcc/nios2-elf/4.1.2/../../../../nios2-elf/lib/mno-hw-mul/libc.a(lib_a-writer.o) (write)
../experiment2_bsp//libucosii_bsp.a(alt_env_lock.o)
                              ../experiment2_bsp//libucosii_bsp.a(alt_main.o) (alt_envsem)
../experiment2_bsp//libucosii_bsp.a(alt_malloc_lock.o)
                              /tools/altera/12.0/nios2eds/bin/gnu/H-i686-pc-linux-gnu/bin/../lib/gcc/nios2-elf/4.1.2/../../../../nios2-elf/lib/mno-hw-mul/libc.a(lib_a-freer.o) (__malloc_lock)
../experiment2_bsp//libucosii_bsp.a(os_core.o)
                              obj/default/experiment2.o (OSInit)
../experiment2_bsp//libucosii_bsp.a(os_dbg.o)
                              ../experiment2_bsp//libucosii_bsp.a(os_core.o) (OSDebugInit)
../experiment2_bsp//libucosii_bsp.a(os_flag.o)
                              ../experiment2_bsp//libucosii_bsp.a(os_core.o) (OS_FlagInit)
../experiment2_bsp//libucosii_bsp.a(os_mem.o)
                              ../experiment2_bsp//libucosii_bsp.a(os_core.o) (OS_MemInit)
../experiment2_bsp//libucosii_bsp.a(os_q.o)
                              ../experiment2_bsp//libucosii_bsp.a(os_core.o) (OS_QInit)
../experiment2_bsp//libucosii_bsp.a(os_sem.o)
                              obj/default/tasks.o (OSSemAccept)
../experiment2_bsp//libucosii_bsp.a(os_task.o)
                              obj/default/tasks.o (OSTaskChangePrio)
../experiment2_bsp//libucosii_bsp.a(os_time.o)
                              ../experiment2_bsp//libucosii_bsp.a(os_core.o) (OSTimeDly)
../experiment2_bsp//libucosii_bsp.a(alt_sys_init.o)
                              ../experiment2_bsp//libucosii_bsp.a(alt_main.o) (alt_irq_init)
../experiment2_bsp//libucosii_bsp.a(altera_avalon_jtag_uart_fd.o)
                              ../experiment2_bsp//libucosii_bsp.a(alt_sys_init.o) (altera_avalon_jtag_uart_read_fd)
../experiment2_bsp//libucosii_bsp.a(altera_avalon_jtag_uart_init.o)
                              ../experiment2_bsp//libucosii_bsp.a(alt_sys_init.o) (altera_avalon_jtag_uart_init)
../experiment2_bsp//libucosii_bsp.a(altera_avalon_jtag_uart_ioctl.o)
                              ../experiment2_bsp//libucosii_bsp.a(altera_avalon_jtag_uart_fd.o) (altera_avalon_jtag_uart_ioctl)
../experiment2_bsp//libucosii_bsp.a(altera_avalon_jtag_uart_read.o)
                              ../experiment2_bsp//libucosii_bsp.a(altera_avalon_jtag_uart_fd.o) (altera_avalon_jtag_uart_read)
../experiment2_bsp//libucosii_bsp.a(altera_avalon_jtag_uart_write.o)
                              ../experiment2_bsp//libucosii_bsp.a(altera_avalon_jtag_uart_fd.o) (altera_avalon_jtag_uart_write)
../experiment2_bsp//libucosii_bsp.a(altera_avalon_timer_sc.o)
                              ../experiment2_bsp//libucosii_bsp.a(alt_sys_init.o) (alt_avalon_timer_sc_init)
../experiment2_bsp//libucosii_bsp.a(altera_up_avalon_character_lcd.o)
                              obj/default/experiment2.o (alt_up_character_lcd_init)
../experiment2_bsp//libucosii_bsp.a(alt_alarm_start.o)
                              ../experiment2_bsp//libucosii_bsp.a(altera_avalon_jtag_uart_init.o) (alt_alarm_start)
../experiment2_bsp//libucosii_bsp.a(alt_dcache_flush_all.o)
                              ../experiment2_bsp//libucosii_bsp.a(alt_load.o) (alt_dcache_flush_all)
../experiment2_bsp//libucosii_bsp.a(alt_dev_llist_insert.o)
                              ../experiment2_bsp//libucosii_bsp.a(alt_sys_init.o) (alt_dev_llist_insert)
../experiment2_bsp//libucosii_bsp.a(alt_do_ctors.o)
                              ../experiment2_bsp//libucosii_bsp.a(alt_main.o) (_do_ctors)
../experiment2_bsp//libucosii_bsp.a(alt_do_dtors.o)
                              ../experiment2_bsp//libucosii_bsp.a(alt_main.o) (_do_dtors)
../experiment2_bsp//libucosii_bsp.a(alt_find_dev.o)
                              ../experiment2_bsp//libucosii_bsp.a(altera_up_avalon_character_lcd.o) (alt_find_dev)
../experiment2_bsp//libucosii_bsp.a(alt_icache_flush_all.o)
                              ../experiment2_bsp//libucosii_bsp.a(alt_load.o) (alt_icache_flush_all)
../experiment2_bsp//libucosii_bsp.a(alt_iic.o)
                              ../experiment2_bsp//libucosii_bsp.a(altera_avalon_jtag_uart_init.o) (alt_ic_isr_register)
../experiment2_bsp//libucosii_bsp.a(alt_iic_isr_register.o)
                              ../experiment2_bsp//libucosii_bsp.a(alt_iic.o) (alt_iic_isr_register)
../experiment2_bsp//libucosii_bsp.a(alt_io_redirect.o)
                              ../experiment2_bsp//libucosii_bsp.a(alt_main.o) (alt_io_redirect)
../experiment2_bsp//libucosii_bsp.a(alt_irq_entry.o)
                              ../experiment2_bsp//libucosii_bsp.a(alt_irq_register.o) (alt_irq_entry)
../experiment2_bsp//libucosii_bsp.a(alt_irq_handler.o)
                              ../experiment2_bsp//libucosii_bsp.a(alt_irq_register.o) (alt_irq_handler)
../experiment2_bsp//libucosii_bsp.a(alt_open.o)
                              ../experiment2_bsp//libucosii_bsp.a(alt_io_redirect.o) (open)
../experiment2_bsp//libucosii_bsp.a(alt_tick.o)
                              ../experiment2_bsp//libucosii_bsp.a(altera_avalon_jtag_uart_init.o) (_alt_tick_rate)
../experiment2_bsp//libucosii_bsp.a(altera_nios2_qsys_irq.o)
                              ../experiment2_bsp//libucosii_bsp.a(alt_sys_init.o) (altera_nios2_qsys_irq_init)
../experiment2_bsp//libucosii_bsp.a(os_cpu_a.o)
                              ../experiment2_bsp//libucosii_bsp.a(os_core.o) (OSIntCtxSw)
../experiment2_bsp//libucosii_bsp.a(os_cpu_c.o)
                              ../experiment2_bsp//libucosii_bsp.a(os_task.o) (OSTaskStkInit)
../experiment2_bsp//libucosii_bsp.a(alt_exception_entry.o)
                              ../experiment2_bsp//libucosii_bsp.a(alt_irq_entry.o) (alt_exception)
../experiment2_bsp//libucosii_bsp.a(alt_find_file.o)
                              ../experiment2_bsp//libucosii_bsp.a(alt_open.o) (alt_find_file)
../experiment2_bsp//libucosii_bsp.a(alt_get_fd.o)
                              ../experiment2_bsp//libucosii_bsp.a(alt_open.o) (alt_get_fd)
/tools/altera/12.0/nios2eds/bin/gnu/H-i686-pc-linux-gnu/bin/../lib/gcc/nios2-elf/4.1.2/../../../../nios2-elf/lib/mno-hw-mul/libc.a(lib_a-atexit.o)
                              ../experiment2_bsp//libucosii_bsp.a(alt_main.o) (atexit)
/tools/altera/12.0/nios2eds/bin/gnu/H-i686-pc-linux-gnu/bin/../lib/gcc/nios2-elf/4.1.2/../../../../nios2-elf/lib/mno-hw-mul/libc.a(lib_a-exit.o)
                              ../experiment2_bsp//libucosii_bsp.a(alt_main.o) (exit)
/tools/altera/12.0/nios2eds/bin/gnu/H-i686-pc-linux-gnu/bin/../lib/gcc/nios2-elf/4.1.2/../../../../nios2-elf/lib/mno-hw-mul/libc.a(lib_a-memcmp.o)
                              ../experiment2_bsp//libucosii_bsp.a(alt_find_dev.o) (memcmp)
/tools/altera/12.0/nios2eds/bin/gnu/H-i686-pc-linux-gnu/bin/../lib/gcc/nios2-elf/4.1.2/../../../../nios2-elf/lib/mno-hw-mul/libc.a(lib_a-putc.o)
                              ../experiment2_bsp//libucosii_bsp.a(alt_putchar.o) (putc)
/tools/altera/12.0/nios2eds/bin/gnu/H-i686-pc-linux-gnu/bin/../lib/gcc/nios2-elf/4.1.2/../../../../nios2-elf/lib/mno-hw-mul/libc.a(lib_a-wbuf.o)
                              /tools/altera/12.0/nios2eds/bin/gnu/H-i686-pc-linux-gnu/bin/../lib/gcc/nios2-elf/4.1.2/../../../../nios2-elf/lib/mno-hw-mul/libc.a(lib_a-putc.o) (__swbuf_r)
/tools/altera/12.0/nios2eds/bin/gnu/H-i686-pc-linux-gnu/bin/../lib/gcc/nios2-elf/4.1.2/../../../../nios2-elf/lib/mno-hw-mul/libc.a(lib_a-__atexit.o)
                              /tools/altera/12.0/nios2eds/bin/gnu/H-i686-pc-linux-gnu/bin/../lib/gcc/nios2-elf/4.1.2/../../../../nios2-elf/lib/mno-hw-mul/libc.a(lib_a-atexit.o) (__register_exitproc)
/tools/altera/12.0/nios2eds/bin/gnu/H-i686-pc-linux-gnu/bin/../lib/gcc/nios2-elf/4.1.2/../../../../nios2-elf/lib/mno-hw-mul/libc.a(lib_a-__call_atexit.o)
                              /tools/altera/12.0/nios2eds/bin/gnu/H-i686-pc-linux-gnu/bin/../lib/gcc/nios2-elf/4.1.2/../../../../nios2-elf/lib/mno-hw-mul/libc.a(lib_a-exit.o) (__call_exitprocs)
../experiment2_bsp//libucosii_bsp.a(alt_exit.o)
                              /tools/altera/12.0/nios2eds/bin/gnu/H-i686-pc-linux-gnu/bin/../lib/gcc/nios2-elf/4.1.2/../../../../nios2-elf/lib/mno-hw-mul/libc.a(lib_a-exit.o) (_exit)

Allocating common symbols
Common symbol       size              file

alt_irq             0x100             ../experiment2_bsp//libucosii_bsp.a(alt_irq_handler.o)
custom_scheduler_stk
                    0x2000            obj/default/tasks.o
OSLockNesting       0x1               ../experiment2_bsp//libucosii_bsp.a(os_core.o)
OSRunning           0x1               ../experiment2_bsp//libucosii_bsp.a(os_core.o)
OSIdleCtr           0x4               ../experiment2_bsp//libucosii_bsp.a(os_core.o)
OSPrioHighRdy       0x1               ../experiment2_bsp//libucosii_bsp.a(os_core.o)
errno               0x4               /tools/altera/12.0/nios2eds/bin/gnu/H-i686-pc-linux-gnu/bin/../lib/gcc/nios2-elf/4.1.2/../../../../nios2-elf/lib/mno-hw-mul/libc.a(lib_a-int_errno.o)
alt_heapsem         0x4               ../experiment2_bsp//libucosii_bsp.a(alt_malloc_lock.o)
OSFlagTbl           0x370             ../experiment2_bsp//libucosii_bsp.a(os_core.o)
OSPrioCur           0x1               ../experiment2_bsp//libucosii_bsp.a(os_core.o)
periodic_task_stk   0x8000            obj/default/tasks.o
OSTCBList           0x4               ../experiment2_bsp//libucosii_bsp.a(os_core.o)
alt_fd_list_lock    0x4               ../experiment2_bsp//libucosii_bsp.a(alt_dev.o)
OSMemTbl            0xc30             ../experiment2_bsp//libucosii_bsp.a(os_core.o)
OSTickStepState     0x1               ../experiment2_bsp//libucosii_bsp.a(os_core.o)
OSTaskStatStk       0x800             ../experiment2_bsp//libucosii_bsp.a(os_core.o)
OSCtxSwCtr          0x4               ../experiment2_bsp//libucosii_bsp.a(os_core.o)
PBSemaphore         0x10              obj/default/tasks.o
custom_scheduler_tcb
                    0x6c              obj/default/tasks.o
OSIdleCtrMax        0x4               ../experiment2_bsp//libucosii_bsp.a(os_core.o)
periodic_task_tcb   0x1b0             obj/default/tasks.o
OSTCBFreeList       0x4               ../experiment2_bsp//libucosii_bsp.a(os_core.o)
OSCPUUsage          0x1               ../experiment2_bsp//libucosii_bsp.a(os_core.o)
OSTaskCtr           0x1               ../experiment2_bsp//libucosii_bsp.a(os_core.o)
OSMemFreeList       0x4               ../experiment2_bsp//libucosii_bsp.a(os_core.o)
OSQTbl              0x1e0             ../experiment2_bsp//libucosii_bsp.a(os_core.o)
OSTCBHighRdy        0x4               ../experiment2_bsp//libucosii_bsp.a(os_core.o)
OSQFreeList         0x4               ../experiment2_bsp//libucosii_bsp.a(os_core.o)
OSRdyGrp            0x1               ../experiment2_bsp//libucosii_bsp.a(os_core.o)
_atexit0            0x190             /tools/altera/12.0/nios2eds/bin/gnu/H-i686-pc-linux-gnu/bin/../lib/gcc/nios2-elf/4.1.2/../../../../nios2-elf/lib/mno-hw-mul/libc.a(lib_a-atexit.o)
OSRdyTbl            0x3               ../experiment2_bsp//libucosii_bsp.a(os_core.o)
OSEventFreeList     0x4               ../experiment2_bsp//libucosii_bsp.a(os_core.o)
OSIntNesting        0x1               ../experiment2_bsp//libucosii_bsp.a(os_core.o)
OSTCBCur            0x4               ../experiment2_bsp//libucosii_bsp.a(os_core.o)
OSTime              0x4               ../experiment2_bsp//libucosii_bsp.a(os_core.o)
initialize_task_stk
                    0x2000            obj/default/tasks.o
OSTaskIdleStk       0x800             ../experiment2_bsp//libucosii_bsp.a(os_core.o)
OSEventTbl          0xb40             ../experiment2_bsp//libucosii_bsp.a(os_core.o)
OSTCBTbl            0x510             ../experiment2_bsp//libucosii_bsp.a(os_core.o)
OSFlagFreeList      0x4               ../experiment2_bsp//libucosii_bsp.a(os_core.o)
OSStatRdy           0x1               ../experiment2_bsp//libucosii_bsp.a(os_core.o)
OSTCBPrioTbl        0x54              ../experiment2_bsp//libucosii_bsp.a(os_core.o)
alt_envsem          0x4               ../experiment2_bsp//libucosii_bsp.a(alt_env_lock.o)
OSIdleCtrRun        0x4               ../experiment2_bsp//libucosii_bsp.a(os_core.o)

Memory Configuration

Name             Origin             Length             Attributes
reset            0x00080000         0x00000020
sram_0           0x00080020         0x0007ffe0
*default*        0x00000000         0xffffffff

Linker script and memory map

LOAD ../experiment2_bsp//obj/HAL/src/crt0.o
LOAD obj/default/PB_button.o
LOAD obj/default/alt_ucosii_simple_error_check.o
LOAD obj/default/experiment2.o
LOAD obj/default/tasks.o
LOAD /tools/altera/12.0/nios2eds/bin/gnu/H-i686-pc-linux-gnu/bin/../lib/gcc/nios2-elf/4.1.2/../../../../nios2-elf/lib/mno-hw-mul/libstdc++.a
LOAD /tools/altera/12.0/nios2eds/bin/gnu/H-i686-pc-linux-gnu/bin/../lib/gcc/nios2-elf/4.1.2/../../../../nios2-elf/lib/mno-hw-mul/libm.a
LOAD /tools/altera/12.0/nios2eds/bin/gnu/H-i686-pc-linux-gnu/bin/../lib/gcc/nios2-elf/4.1.2/mno-hw-mul/libgcc.a
START GROUP
LOAD /tools/altera/12.0/nios2eds/bin/gnu/H-i686-pc-linux-gnu/bin/../lib/gcc/nios2-elf/4.1.2/../../../../nios2-elf/lib/mno-hw-mul/libc.a
LOAD /tools/altera/12.0/nios2eds/bin/gnu/H-i686-pc-linux-gnu/bin/../lib/gcc/nios2-elf/4.1.2/mno-hw-mul/libgcc.a
LOAD ../experiment2_bsp//libucosii_bsp.a
END GROUP
LOAD /tools/altera/12.0/nios2eds/bin/gnu/H-i686-pc-linux-gnu/bin/../lib/gcc/nios2-elf/4.1.2/mno-hw-mul/libgcc.a
                0x00080000                __alt_mem_sram_0 = 0x80000

.entry          0x00080000       0x20
 *(.entry)
 .entry         0x00080000       0x20 ../experiment2_bsp//obj/HAL/src/crt0.o
                0x00080000                __reset

.exceptions     0x00080020      0x19c
                0x00080020                PROVIDE (__ram_exceptions_start, ABSOLUTE (.))
                0x00080020                . = ALIGN (0x20)
 *(.irq)
 *(.exceptions.entry.label)
 .exceptions.entry.label
                0x00080020        0x0 ../experiment2_bsp//libucosii_bsp.a(alt_irq_entry.o)
                0x00080020                alt_irq_entry
 .exceptions.entry.label
                0x00080020        0x0 ../experiment2_bsp//libucosii_bsp.a(alt_exception_entry.o)
                0x00080020                alt_exception
 *(.exceptions.entry.user)
 *(.exceptions.entry)
 .exceptions.entry
                0x00080020       0x54 ../experiment2_bsp//libucosii_bsp.a(alt_exception_entry.o)
 *(.exceptions.irqtest.user)
 *(.exceptions.irqtest)
 .exceptions.irqtest
                0x00080074       0x10 ../experiment2_bsp//libucosii_bsp.a(alt_irq_entry.o)
 *(.exceptions.irqhandler.user)
 *(.exceptions.irqhandler)
 .exceptions.irqhandler
                0x00080084        0x4 ../experiment2_bsp//libucosii_bsp.a(alt_irq_entry.o)
 *(.exceptions.irqreturn.user)
 *(.exceptions.irqreturn)
 .exceptions.irqreturn
                0x00080088        0x4 ../experiment2_bsp//libucosii_bsp.a(alt_irq_entry.o)
 *(.exceptions.notirq.label)
 .exceptions.notirq.label
                0x0008008c        0x0 ../experiment2_bsp//libucosii_bsp.a(alt_irq_entry.o)
 *(.exceptions.notirq.user)
 *(.exceptions.notirq)
 .exceptions.notirq
                0x0008008c        0x8 ../experiment2_bsp//libucosii_bsp.a(alt_exception_entry.o)
 *(.exceptions.soft.user)
 *(.exceptions.soft)
 *(.exceptions.unknown.user)
 *(.exceptions.unknown)
 .exceptions.unknown
                0x00080094        0x4 ../experiment2_bsp//libucosii_bsp.a(alt_exception_entry.o)
 *(.exceptions.exit.label)
 .exceptions.exit.label
                0x00080098        0x0 ../experiment2_bsp//libucosii_bsp.a(alt_irq_entry.o)
 .exceptions.exit.label
                0x00080098        0x0 ../experiment2_bsp//libucosii_bsp.a(alt_exception_entry.o)
 *(.exceptions.exit.user)
 *(.exceptions.exit)
 .exceptions.exit
                0x00080098       0x54 ../experiment2_bsp//libucosii_bsp.a(alt_exception_entry.o)
 *(.exceptions)
 .exceptions    0x000800ec       0xd0 ../experiment2_bsp//libucosii_bsp.a(alt_irq_handler.o)
                0x000800ec                alt_irq_handler
                0x000801bc                PROVIDE (__ram_exceptions_end, ABSOLUTE (.))
                0x00080020                PROVIDE (__flash_exceptions_start, LOADADDR (.exceptions))

.text           0x000801bc    0x189a0
                0x000801bc                PROVIDE (stext, ABSOLUTE (.))
 *(.interp)
 *(.hash)
 *(.dynsym)
 *(.dynstr)
 *(.gnu.version)
 *(.gnu.version_d)
 *(.gnu.version_r)
 *(.rel.init)
 *(.rela.init)
 *(.rel.text .rel.text.* .rel.gnu.linkonce.t.*)
 *(.rela.text .rela.text.* .rela.gnu.linkonce.t.*)
 *(.rel.fini)
 *(.rela.fini)
 *(.rel.rodata .rel.rodata.* .rel.gnu.linkonce.r.*)
 *(.rela.rodata .rela.rodata.* .rela.gnu.linkonce.r.*)
 *(.rel.data .rel.data.* .rel.gnu.linkonce.d.*)
 *(.rela.data .rela.data.* .rela.gnu.linkonce.d.*)
 *(.rel.tdata .rel.tdata.* .rel.gnu.linkonce.td.*)
 *(.rela.tdata .rela.tdata.* .rela.gnu.linkonce.td.*)
 *(.rel.tbss .rel.tbss.* .rel.gnu.linkonce.tb.*)
 *(.rela.tbss .rela.tbss.* .rela.gnu.linkonce.tb.*)
 *(.rel.ctors)
 *(.rela.ctors)
 *(.rel.dtors)
 *(.rela.dtors)
 *(.rel.got)
 *(.rela.got)
 *(.rel.sdata .rel.sdata.* .rel.gnu.linkonce.s.*)
 *(.rela.sdata .rela.sdata.* .rela.gnu.linkonce.s.*)
 *(.rel.sbss .rel.sbss.* .rel.gnu.linkonce.sb.*)
 *(.rela.sbss .rela.sbss.* .rela.gnu.linkonce.sb.*)
 *(.rel.sdata2 .rel.sdata2.* .rel.gnu.linkonce.s2.*)
 *(.rela.sdata2 .rela.sdata2.* .rela.gnu.linkonce.s2.*)
 *(.rel.sbss2 .rel.sbss2.* .rel.gnu.linkonce.sb2.*)
 *(.rela.sbss2 .rela.sbss2.* .rela.gnu.linkonce.sb2.*)
 *(.rel.bss .rel.bss.* .rel.gnu.linkonce.b.*)
 *(.rela.bss .rela.bss.* .rela.gnu.linkonce.b.*)
 *(.rel.plt)
 *(.rela.plt)
 *(.rel.dyn)
 *(.init)
 *(.plt)
 *(.text .stub .text.* .gnu.linkonce.t.*)
 .text          0x000801bc       0x3c ../experiment2_bsp//obj/HAL/src/crt0.o
                0x000801bc                _start
 .text          0x000801f8      0x238 obj/default/PB_button.o
                0x000801f8                KEY0_Pressed
                0x0008023c                KEY1_Pressed
                0x00080280                KEY2_Pressed
                0x000802c4                KEY3_Pressed
                0x00080308                handle_button_interrupts
                0x000803dc                init_button_irq
 .text          0x00080430      0x528 obj/default/alt_ucosii_simple_error_check.o
                0x00080430                alt_ucosii_check_return_code
                0x00080474                alt_ucosii_simple_error_handler
 .text          0x00080958      0x2c4 obj/default/experiment2.o
                0x00080958                initialize_task
                0x00080994                main
                0x00080b0c                init_OS_data_structs
                0x00080b90                init_create_tasks
 .text          0x00080c1c     0x1d9c obj/default/tasks.o
                0x00080c1c                periodic_task0
                0x00080cac                periodic_task1
                0x00080d3c                periodic_task2
                0x00080dcc                periodic_task3
                0x00080e5c                custom_scheduler
                0x00081b58                custom_task_del
                0x00081dbc                custom_task_create
                0x00082948                custom_delay
 .text          0x000829b8      0x14c /tools/altera/12.0/nios2eds/bin/gnu/H-i686-pc-linux-gnu/bin/../lib/gcc/nios2-elf/4.1.2/mno-hw-mul/libgcc.a(lib2-divmod.o)
                0x00082a34                __divsi3
                0x00082a94                __modsi3
                0x00082af4                __udivsi3
                0x00082afc                __umodsi3
 .text          0x00082b04       0x38 /tools/altera/12.0/nios2eds/bin/gnu/H-i686-pc-linux-gnu/bin/../lib/gcc/nios2-elf/4.1.2/mno-hw-mul/libgcc.a(lib2-mul.o)
                0x00082b04                __mulsi3
 .text          0x00082b3c       0x60 /tools/altera/12.0/nios2eds/bin/gnu/H-i686-pc-linux-gnu/bin/../lib/gcc/nios2-elf/4.1.2/../../../../nios2-elf/lib/mno-hw-mul/libc.a(lib_a-fprintf.o)
                0x00082b3c                fprintf
                0x00082b68                _fprintf_r
 .text          0x00082b9c       0xec /tools/altera/12.0/nios2eds/bin/gnu/H-i686-pc-linux-gnu/bin/../lib/gcc/nios2-elf/4.1.2/../../../../nios2-elf/lib/mno-hw-mul/libc.a(lib_a-fwrite.o)
                0x00082b9c                _fwrite_r
                0x00082c48                fwrite
 .text          0x00082c88        0x0 /tools/altera/12.0/nios2eds/bin/gnu/H-i686-pc-linux-gnu/bin/../lib/gcc/nios2-elf/4.1.2/../../../../nios2-elf/lib/mno-hw-mul/libc.a(lib_a-impure.o)
 .text          0x00082c88       0x78 /tools/altera/12.0/nios2eds/bin/gnu/H-i686-pc-linux-gnu/bin/../lib/gcc/nios2-elf/4.1.2/../../../../nios2-elf/lib/mno-hw-mul/libc.a(lib_a-printf.o)
                0x00082c88                printf
                0x00082ccc                _printf_r
 .text          0x00082d00       0xb4 /tools/altera/12.0/nios2eds/bin/gnu/H-i686-pc-linux-gnu/bin/../lib/gcc/nios2-elf/4.1.2/../../../../nios2-elf/lib/mno-hw-mul/libc.a(lib_a-puts.o)
                0x00082d00                _puts_r
                0x00082da0                puts
 .text          0x00082db4       0x94 /tools/altera/12.0/nios2eds/bin/gnu/H-i686-pc-linux-gnu/bin/../lib/gcc/nios2-elf/4.1.2/../../../../nios2-elf/lib/mno-hw-mul/libc.a(lib_a-rand.o)
                0x00082db4                srand
                0x00082dd0                rand
 .text          0x00082e48       0x74 /tools/altera/12.0/nios2eds/bin/gnu/H-i686-pc-linux-gnu/bin/../lib/gcc/nios2-elf/4.1.2/../../../../nios2-elf/lib/mno-hw-mul/libc.a(lib_a-strlen.o)
                0x00082e48                strlen
 .text          0x00082ebc     0x1f40 /tools/altera/12.0/nios2eds/bin/gnu/H-i686-pc-linux-gnu/bin/../lib/gcc/nios2-elf/4.1.2/../../../../nios2-elf/lib/mno-hw-mul/libc.a(lib_a-vfprintf.o)
                0x00082f14                ___vfprintf_internal_r
                0x00084dd8                __vfprintf_internal
 .text          0x00084dfc      0x13c /tools/altera/12.0/nios2eds/bin/gnu/H-i686-pc-linux-gnu/bin/../lib/gcc/nios2-elf/4.1.2/../../../../nios2-elf/lib/mno-hw-mul/libc.a(lib_a-wsetup.o)
                0x00084dfc                __swsetup_r
 .text          0x00084f38     0x17f8 /tools/altera/12.0/nios2eds/bin/gnu/H-i686-pc-linux-gnu/bin/../lib/gcc/nios2-elf/4.1.2/../../../../nios2-elf/lib/mno-hw-mul/libc.a(lib_a-dtoa.o)
                0x0008517c                _dtoa_r
 .text          0x00086730      0x230 /tools/altera/12.0/nios2eds/bin/gnu/H-i686-pc-linux-gnu/bin/../lib/gcc/nios2-elf/4.1.2/../../../../nios2-elf/lib/mno-hw-mul/libc.a(lib_a-fflush.o)
                0x00086730                _fflush_r
                0x0008692c                fflush
 .text          0x00086960      0x2f4 /tools/altera/12.0/nios2eds/bin/gnu/H-i686-pc-linux-gnu/bin/../lib/gcc/nios2-elf/4.1.2/../../../../nios2-elf/lib/mno-hw-mul/libc.a(lib_a-findfp.o)
                0x000869b8                __sfp_lock_acquire
                0x000869bc                __sfp_lock_release
                0x000869c0                __sinit_lock_acquire
                0x000869c4                __sinit_lock_release
                0x000869c8                __sinit
                0x00086a7c                __fp_unlock_all
                0x00086a94                __fp_lock_all
                0x00086aac                _cleanup_r
                0x00086ab8                _cleanup
                0x00086ac8                __sfmoreglue
                0x00086b64                __sfp
 .text          0x00086c54      0x440 /tools/altera/12.0/nios2eds/bin/gnu/H-i686-pc-linux-gnu/bin/../lib/gcc/nios2-elf/4.1.2/../../../../nios2-elf/lib/mno-hw-mul/libc.a(lib_a-freer.o)
                0x00086c54                _malloc_trim_r
                0x00086d80                _free_r
 .text          0x00087094      0x49c /tools/altera/12.0/nios2eds/bin/gnu/H-i686-pc-linux-gnu/bin/../lib/gcc/nios2-elf/4.1.2/../../../../nios2-elf/lib/mno-hw-mul/libc.a(lib_a-fvwrite.o)
                0x00087094                __sfvwrite_r
 .text          0x00087530      0x180 /tools/altera/12.0/nios2eds/bin/gnu/H-i686-pc-linux-gnu/bin/../lib/gcc/nios2-elf/4.1.2/../../../../nios2-elf/lib/mno-hw-mul/libc.a(lib_a-fwalk.o)
                0x00087530                _fwalk_reent
                0x000875f8                _fwalk
 .text          0x000876b0       0xc4 /tools/altera/12.0/nios2eds/bin/gnu/H-i686-pc-linux-gnu/bin/../lib/gcc/nios2-elf/4.1.2/../../../../nios2-elf/lib/mno-hw-mul/libc.a(lib_a-locale.o)
                0x000876b0                __locale_charset
                0x000876b8                _localeconv_r
                0x000876c4                localeconv
                0x000876d4                _setlocale_r
                0x00087758                setlocale
 .text          0x00087774      0x194 /tools/altera/12.0/nios2eds/bin/gnu/H-i686-pc-linux-gnu/bin/../lib/gcc/nios2-elf/4.1.2/../../../../nios2-elf/lib/mno-hw-mul/libc.a(lib_a-makebuf.o)
                0x00087774                __smakebuf_r
 .text          0x00087908      0x740 /tools/altera/12.0/nios2eds/bin/gnu/H-i686-pc-linux-gnu/bin/../lib/gcc/nios2-elf/4.1.2/../../../../nios2-elf/lib/mno-hw-mul/libc.a(lib_a-mallocr.o)
                0x00087908                _malloc_r
 .text          0x00088048       0xe4 /tools/altera/12.0/nios2eds/bin/gnu/H-i686-pc-linux-gnu/bin/../lib/gcc/nios2-elf/4.1.2/../../../../nios2-elf/lib/mno-hw-mul/libc.a(lib_a-memchr.o)
                0x00088048                memchr
 .text          0x0008812c       0xa0 /tools/altera/12.0/nios2eds/bin/gnu/H-i686-pc-linux-gnu/bin/../lib/gcc/nios2-elf/4.1.2/../../../../nios2-elf/lib/mno-hw-mul/libc.a(lib_a-memcpy.o)
                0x0008812c                memcpy
 .text          0x000881cc       0xe0 /tools/altera/12.0/nios2eds/bin/gnu/H-i686-pc-linux-gnu/bin/../lib/gcc/nios2-elf/4.1.2/../../../../nios2-elf/lib/mno-hw-mul/libc.a(lib_a-memmove.o)
                0x000881cc                memmove
 .text          0x000882ac       0x98 /tools/altera/12.0/nios2eds/bin/gnu/H-i686-pc-linux-gnu/bin/../lib/gcc/nios2-elf/4.1.2/../../../../nios2-elf/lib/mno-hw-mul/libc.a(lib_a-memset.o)
                0x000882ac                memset
 .text          0x00088344     0x108c /tools/altera/12.0/nios2eds/bin/gnu/H-i686-pc-linux-gnu/bin/../lib/gcc/nios2-elf/4.1.2/../../../../nios2-elf/lib/mno-hw-mul/libc.a(lib_a-mprec.o)
                0x00088344                _Bfree
                0x0008836c                __hi0bits
                0x000883dc                __lo0bits
                0x000884a0                __mcmp
                0x00088500                __ulp
                0x00088580                __b2d
                0x000886a0                __ratio
                0x00088750                _mprec_log10
                0x000887e4                __copybits
                0x0008883c                __any_on
                0x000888c4                _Balloc
                0x00088980                __d2b
                0x00088afc                __mdiff
                0x00088c88                __lshift
                0x00088dd4                __multiply
                0x00089028                __i2b
                0x00089064                __multadd
                0x00089190                __pow5mult
                0x000892b0                __s2b
 .text          0x000893d0      0x5f4 /tools/altera/12.0/nios2eds/bin/gnu/H-i686-pc-linux-gnu/bin/../lib/gcc/nios2-elf/4.1.2/../../../../nios2-elf/lib/mno-hw-mul/libc.a(lib_a-reallocr.o)
                0x000893d0                _realloc_r
 .text          0x000899c4       0x40 /tools/altera/12.0/nios2eds/bin/gnu/H-i686-pc-linux-gnu/bin/../lib/gcc/nios2-elf/4.1.2/../../../../nios2-elf/lib/mno-hw-mul/libc.a(lib_a-s_isinfd.o)
                0x000899c4                __isinfd
 .text          0x00089a04       0x30 /tools/altera/12.0/nios2eds/bin/gnu/H-i686-pc-linux-gnu/bin/../lib/gcc/nios2-elf/4.1.2/../../../../nios2-elf/lib/mno-hw-mul/libc.a(lib_a-s_isnand.o)
                0x00089a04                __isnand
 .text          0x00089a34       0x70 /tools/altera/12.0/nios2eds/bin/gnu/H-i686-pc-linux-gnu/bin/../lib/gcc/nios2-elf/4.1.2/../../../../nios2-elf/lib/mno-hw-mul/libc.a(lib_a-sbrkr.o)
                0x00089a34                _sbrk_r
 .text          0x00089aa4      0x14c /tools/altera/12.0/nios2eds/bin/gnu/H-i686-pc-linux-gnu/bin/../lib/gcc/nios2-elf/4.1.2/../../../../nios2-elf/lib/mno-hw-mul/libc.a(lib_a-stdio.o)
                0x00089aa4                __sclose
                0x00089aac                __sseek
                0x00089b14                __swrite
                0x00089b90                __sread
 .text          0x00089bf0       0xbc /tools/altera/12.0/nios2eds/bin/gnu/H-i686-pc-linux-gnu/bin/../lib/gcc/nios2-elf/4.1.2/../../../../nios2-elf/lib/mno-hw-mul/libc.a(lib_a-strcmp.o)
                0x00089bf0                strcmp
 .text          0x00089cac       0x78 /tools/altera/12.0/nios2eds/bin/gnu/H-i686-pc-linux-gnu/bin/../lib/gcc/nios2-elf/4.1.2/../../../../nios2-elf/lib/mno-hw-mul/libc.a(lib_a-writer.o)
                0x00089cac                _write_r
 .text          0x00089d24       0xc8 /tools/altera/12.0/nios2eds/bin/gnu/H-i686-pc-linux-gnu/bin/../lib/gcc/nios2-elf/4.1.2/../../../../nios2-elf/lib/mno-hw-mul/libc.a(lib_a-callocr.o)
                0x00089d24                _calloc_r
 .text          0x00089dec       0x70 /tools/altera/12.0/nios2eds/bin/gnu/H-i686-pc-linux-gnu/bin/../lib/gcc/nios2-elf/4.1.2/../../../../nios2-elf/lib/mno-hw-mul/libc.a(lib_a-closer.o)
                0x00089dec                _close_r
 .text          0x00089e5c      0x124 /tools/altera/12.0/nios2eds/bin/gnu/H-i686-pc-linux-gnu/bin/../lib/gcc/nios2-elf/4.1.2/../../../../nios2-elf/lib/mno-hw-mul/libc.a(lib_a-fclose.o)
                0x00089e5c                _fclose_r
                0x00089f6c                fclose
 .text          0x00089f80       0x74 /tools/altera/12.0/nios2eds/bin/gnu/H-i686-pc-linux-gnu/bin/../lib/gcc/nios2-elf/4.1.2/../../../../nios2-elf/lib/mno-hw-mul/libc.a(lib_a-fstatr.o)
                0x00089f80                _fstat_r
 .text          0x00089ff4        0x0 /tools/altera/12.0/nios2eds/bin/gnu/H-i686-pc-linux-gnu/bin/../lib/gcc/nios2-elf/4.1.2/../../../../nios2-elf/lib/mno-hw-mul/libc.a(lib_a-int_errno.o)
 .text          0x00089ff4       0x70 /tools/altera/12.0/nios2eds/bin/gnu/H-i686-pc-linux-gnu/bin/../lib/gcc/nios2-elf/4.1.2/../../../../nios2-elf/lib/mno-hw-mul/libc.a(lib_a-isattyr.o)
                0x00089ff4                _isatty_r
 .text          0x0008a064       0x78 /tools/altera/12.0/nios2eds/bin/gnu/H-i686-pc-linux-gnu/bin/../lib/gcc/nios2-elf/4.1.2/../../../../nios2-elf/lib/mno-hw-mul/libc.a(lib_a-lseekr.o)
                0x0008a064                _lseek_r
 .text          0x0008a0dc       0x78 /tools/altera/12.0/nios2eds/bin/gnu/H-i686-pc-linux-gnu/bin/../lib/gcc/nios2-elf/4.1.2/../../../../nios2-elf/lib/mno-hw-mul/libc.a(lib_a-readr.o)
                0x0008a0dc                _read_r
 .text          0x0008a154      0x124 /tools/altera/12.0/nios2eds/bin/gnu/H-i686-pc-linux-gnu/bin/../lib/gcc/nios2-elf/4.1.2/mno-hw-mul/libgcc.a(_muldi3.o)
                0x0008a154                __muldi3
 .text          0x0008a278      0x66c /tools/altera/12.0/nios2eds/bin/gnu/H-i686-pc-linux-gnu/bin/../lib/gcc/nios2-elf/4.1.2/mno-hw-mul/libgcc.a(_udivdi3.o)
                0x0008a278                __udivdi3
 .text          0x0008a8e4      0x660 /tools/altera/12.0/nios2eds/bin/gnu/H-i686-pc-linux-gnu/bin/../lib/gcc/nios2-elf/4.1.2/mno-hw-mul/libgcc.a(_umoddi3.o)
                0x0008a8e4                __umoddi3
 .text          0x0008af44      0x504 /tools/altera/12.0/nios2eds/bin/gnu/H-i686-pc-linux-gnu/bin/../lib/gcc/nios2-elf/4.1.2/mno-hw-mul/libgcc.a(_addsub_df.o)
                0x0008b354                __subdf3
                0x0008b3d4                __adddf3
 .text          0x0008b448      0x3c4 /tools/altera/12.0/nios2eds/bin/gnu/H-i686-pc-linux-gnu/bin/../lib/gcc/nios2-elf/4.1.2/mno-hw-mul/libgcc.a(_mul_df.o)
                0x0008b448                __muldf3
 .text          0x0008b80c      0x258 /tools/altera/12.0/nios2eds/bin/gnu/H-i686-pc-linux-gnu/bin/../lib/gcc/nios2-elf/4.1.2/mno-hw-mul/libgcc.a(_div_df.o)
                0x0008b80c                __divdf3
 .text          0x0008ba64       0x88 /tools/altera/12.0/nios2eds/bin/gnu/H-i686-pc-linux-gnu/bin/../lib/gcc/nios2-elf/4.1.2/mno-hw-mul/libgcc.a(_eq_df.o)
                0x0008ba64                __eqdf2
 .text          0x0008baec       0x88 /tools/altera/12.0/nios2eds/bin/gnu/H-i686-pc-linux-gnu/bin/../lib/gcc/nios2-elf/4.1.2/mno-hw-mul/libgcc.a(_ne_df.o)
                0x0008baec                __nedf2
 .text          0x0008bb74       0x88 /tools/altera/12.0/nios2eds/bin/gnu/H-i686-pc-linux-gnu/bin/../lib/gcc/nios2-elf/4.1.2/mno-hw-mul/libgcc.a(_gt_df.o)
                0x0008bb74                __gtdf2
 .text          0x0008bbfc       0x88 /tools/altera/12.0/nios2eds/bin/gnu/H-i686-pc-linux-gnu/bin/../lib/gcc/nios2-elf/4.1.2/mno-hw-mul/libgcc.a(_ge_df.o)
                0x0008bbfc                __gedf2
 .text          0x0008bc84       0x88 /tools/altera/12.0/nios2eds/bin/gnu/H-i686-pc-linux-gnu/bin/../lib/gcc/nios2-elf/4.1.2/mno-hw-mul/libgcc.a(_lt_df.o)
                0x0008bc84                __ltdf2
 .text          0x0008bd0c       0xf8 /tools/altera/12.0/nios2eds/bin/gnu/H-i686-pc-linux-gnu/bin/../lib/gcc/nios2-elf/4.1.2/mno-hw-mul/libgcc.a(_si_to_df.o)
                0x0008bd0c                __floatsidf
 .text          0x0008be04       0xd8 /tools/altera/12.0/nios2eds/bin/gnu/H-i686-pc-linux-gnu/bin/../lib/gcc/nios2-elf/4.1.2/mno-hw-mul/libgcc.a(_df_to_si.o)
                0x0008be04                __fixdfsi
 .text          0x0008bedc        0x0 /tools/altera/12.0/nios2eds/bin/gnu/H-i686-pc-linux-gnu/bin/../lib/gcc/nios2-elf/4.1.2/mno-hw-mul/libgcc.a(_thenan_df.o)
 .text          0x0008bedc      0x194 /tools/altera/12.0/nios2eds/bin/gnu/H-i686-pc-linux-gnu/bin/../lib/gcc/nios2-elf/4.1.2/mno-hw-mul/libgcc.a(_usi_to_df.o)
                0x0008bedc                __floatunsidf
 .text          0x0008c070        0x0 /tools/altera/12.0/nios2eds/bin/gnu/H-i686-pc-linux-gnu/bin/../lib/gcc/nios2-elf/4.1.2/mno-hw-mul/libgcc.a(_clz.o)
 .text          0x0008c070       0x80 /tools/altera/12.0/nios2eds/bin/gnu/H-i686-pc-linux-gnu/bin/../lib/gcc/nios2-elf/4.1.2/mno-hw-mul/libgcc.a(_clzsi2.o)
                0x0008c070                __clzsi2
 .text          0x0008c0f0      0x314 /tools/altera/12.0/nios2eds/bin/gnu/H-i686-pc-linux-gnu/bin/../lib/gcc/nios2-elf/4.1.2/mno-hw-mul/libgcc.a(_pack_df.o)
                0x0008c0f0                __pack_d
 .text          0x0008c404      0x138 /tools/altera/12.0/nios2eds/bin/gnu/H-i686-pc-linux-gnu/bin/../lib/gcc/nios2-elf/4.1.2/mno-hw-mul/libgcc.a(_unpack_df.o)
                0x0008c404                __unpack_d
 .text          0x0008c53c       0xc8 /tools/altera/12.0/nios2eds/bin/gnu/H-i686-pc-linux-gnu/bin/../lib/gcc/nios2-elf/4.1.2/mno-hw-mul/libgcc.a(_fpcmp_parts_df.o)
                0x0008c53c                __fpcmp_parts_d
 .text          0x0008c604      0x160 ../experiment2_bsp//libucosii_bsp.a(alt_close.o)
                0x0008c604                close
 .text          0x0008c764       0x2c ../experiment2_bsp//libucosii_bsp.a(alt_dev.o)
 .text          0x0008c790        0x0 ../experiment2_bsp//libucosii_bsp.a(alt_errno.o)
 .text          0x0008c790      0x138 ../experiment2_bsp//libucosii_bsp.a(alt_fstat.o)
                0x0008c790                fstat
 .text          0x0008c8c8      0x1c0 ../experiment2_bsp//libucosii_bsp.a(alt_irq_register.o)
                0x0008c8c8                alt_irq_register
 .text          0x0008ca88        0x0 ../experiment2_bsp//libucosii_bsp.a(alt_irq_vars.o)
 .text          0x0008ca88      0x124 ../experiment2_bsp//libucosii_bsp.a(alt_isatty.o)
                0x0008ca88                isatty
 .text          0x0008cbac       0xec ../experiment2_bsp//libucosii_bsp.a(alt_load.o)
                0x0008cbac                alt_load
 .text          0x0008cc98      0x154 ../experiment2_bsp//libucosii_bsp.a(alt_lseek.o)
                0x0008cc98                lseek
 .text          0x0008cdec       0xc8 ../experiment2_bsp//libucosii_bsp.a(alt_main.o)
                0x0008cdec                alt_main
 .text          0x0008ceb4      0x258 ../experiment2_bsp//libucosii_bsp.a(alt_printf.o)
                0x0008ceb4                alt_printf
 .text          0x0008d10c       0x40 ../experiment2_bsp//libucosii_bsp.a(alt_putchar.o)
                0x0008d10c                alt_putchar
 .text          0x0008d14c      0x184 ../experiment2_bsp//libucosii_bsp.a(alt_read.o)
                0x0008d14c                read
 .text          0x0008d2d0       0x78 ../experiment2_bsp//libucosii_bsp.a(alt_release_fd.o)
                0x0008d2d0                alt_release_fd
 .text          0x0008d348       0xbc ../experiment2_bsp//libucosii_bsp.a(alt_sbrk.o)
                0x0008d348                sbrk
 .text          0x0008d404      0x184 ../experiment2_bsp//libucosii_bsp.a(alt_write.o)
                0x0008d404                write
 .text          0x0008d588      0x108 ../experiment2_bsp//libucosii_bsp.a(alt_env_lock.o)
                0x0008d588                __env_lock
                0x0008d634                __env_unlock
 .text          0x0008d690      0x1d8 ../experiment2_bsp//libucosii_bsp.a(alt_malloc_lock.o)
                0x0008d690                __malloc_lock
                0x0008d798                __malloc_unlock
 .text          0x0008d868     0x2128 ../experiment2_bsp//libucosii_bsp.a(os_core.o)
                0x0008d868                OSEventNameGet
                0x0008d998                OSEventNameSet
                0x0008dadc                OSEventPendMulti
                0x0008e190                OSInit
                0x0008e1e4                OSIntEnter
                0x0008e260                OSIntExit
                0x0008e360                OSSchedLock
                0x0008e3ec                OSSchedUnlock
                0x0008e4d0                OSStart
                0x0008e540                OSStatInit
                0x0008e5ec                OSTimeTick
                0x0008e82c                OSVersion
                0x0008e84c                OS_Dummy
                0x0008e868                OS_EventTaskRdy
                0x0008e9fc                OS_EventTaskWait
                0x0008eb0c                OS_EventTaskWaitMulti
                0x0008ec60                OS_EventTaskRemove
                0x0008ed18                OS_EventTaskRemoveMulti
                0x0008ee1c                OS_EventWaitListInit
                0x0008f1e8                OS_MemClr
                0x0008f23c                OS_MemCopy
                0x0008f2a8                OS_Sched
                0x0008f3ec                OS_StrCopy
                0x0008f46c                OS_StrLen
                0x0008f4c4                OS_TaskIdle
                0x0008f520                OS_TaskStat
                0x0008f5e8                OS_TaskStatStkChk
                0x0008f6b0                OS_TCBInit
 .text          0x0008f990      0x18c ../experiment2_bsp//libucosii_bsp.a(os_dbg.o)
                0x0008f990                OSDebugInit
 .text          0x0008fb1c     0x193c ../experiment2_bsp//libucosii_bsp.a(os_flag.o)
                0x0008fb1c                OSFlagAccept
                0x0008fe50                OSFlagCreate
                0x0008ff8c                OSFlagDel
                0x00090234                OSFlagNameGet
                0x00090378                OSFlagNameSet
                0x000904cc                OSFlagPend
                0x00090b10                OSFlagPendGetFlagsRdy
                0x00090b78                OSFlagPost
                0x00090f20                OSFlagQuery
                0x000911b8                OS_FlagInit
                0x000913ac                OS_FlagUnlink
 .text          0x00091458      0x80c ../experiment2_bsp//libucosii_bsp.a(os_mem.o)
                0x00091458                OSMemCreate
                0x00091674                OSMemGet
                0x00091778                OSMemNameGet
                0x00091884                OSMemNameSet
                0x000919a4                OSMemPut
                0x00091a94                OSMemQuery
                0x00091b90                OS_MemInit
 .text          0x00091c64     0x1334 ../experiment2_bsp//libucosii_bsp.a(os_q.o)
                0x00091c64                OSQAccept
                0x00091db8                OSQCreate
                0x00091fcc                OSQDel
                0x000922cc                OSQFlush
                0x00092394                OSQPend
                0x000926b4                OSQPendAbort
                0x00092830                OSQPost
                0x000929b0                OSQPostFront
                0x00092b38                OSQPostOpt
                0x00092d6c                OSQQuery
                0x00092eec                OS_QInit
 .text          0x00092f98      0xbc8 ../experiment2_bsp//libucosii_bsp.a(os_sem.o)
                0x00092f98                OSSemAccept
                0x00093058                OSSemCreate
                0x0009316c                OSSemDel
                0x0009340c                OSSemPend
                0x00093688                OSSemPendAbort
                0x00093804                OSSemPost
                0x0009392c                OSSemQuery
                0x00093a5c                OSSemSet
 .text          0x00093b60     0x1a40 ../experiment2_bsp//libucosii_bsp.a(os_task.o)
                0x00093b60                OSTaskChangePrio
                0x000940d4                OSTaskCreate
                0x000942a8                OSTaskCreateExt
                0x000944a8                OSTaskDel
                0x000948b4                OSTaskDelReq
                0x00094a24                OSTaskNameGet
                0x00094bdc                OSTaskNameSet
                0x00094da0                OSTaskResume
                0x00094fb8                OSTaskStkChk
                0x000951b4                OSTaskSuspend
                0x000953e0                OSTaskQuery
                0x00095524                OS_TaskStkClr
 .text          0x000955a0      0x5b4 ../experiment2_bsp//libucosii_bsp.a(os_time.o)
                0x000955a0                OSTimeDly
                0x000956ec                OSTimeDlyHMSM
                0x0009587c                OSTimeDlyResume
                0x00095a8c                OSTimeGet
                0x00095af0                OSTimeSet
 .text          0x00095b54       0xf0 ../experiment2_bsp//libucosii_bsp.a(alt_sys_init.o)
                0x00095b54                alt_irq_init
                0x00095b88                alt_sys_init
 .text          0x00095c44      0x148 ../experiment2_bsp//libucosii_bsp.a(altera_avalon_jtag_uart_fd.o)
                0x00095c44                altera_avalon_jtag_uart_read_fd
                0x00095c9c                altera_avalon_jtag_uart_write_fd
                0x00095cf4                altera_avalon_jtag_uart_close_fd
                0x00095d3c                altera_avalon_jtag_uart_ioctl_fd
 .text          0x00095d8c      0x584 ../experiment2_bsp//libucosii_bsp.a(altera_avalon_jtag_uart_init.o)
                0x00095d8c                altera_avalon_jtag_uart_init
                0x0009629c                altera_avalon_jtag_uart_close
 .text          0x00096310       0xf4 ../experiment2_bsp//libucosii_bsp.a(altera_avalon_jtag_uart_ioctl.o)
                0x00096310                altera_avalon_jtag_uart_ioctl
 .text          0x00096404      0x2c0 ../experiment2_bsp//libucosii_bsp.a(altera_avalon_jtag_uart_read.o)
                0x00096404                altera_avalon_jtag_uart_read
 .text          0x000966c4      0x2dc ../experiment2_bsp//libucosii_bsp.a(altera_avalon_jtag_uart_write.o)
                0x000966c4                altera_avalon_jtag_uart_write
 .text          0x000969a0      0x100 ../experiment2_bsp//libucosii_bsp.a(altera_avalon_timer_sc.o)
                0x00096a10                alt_avalon_timer_sc_init
 .text          0x00096aa0      0x530 ../experiment2_bsp//libucosii_bsp.a(altera_up_avalon_character_lcd.o)
                0x00096aa0                get_DDRAM_addr
                0x00096b1c                alt_up_character_lcd_send_cmd
                0x00096b50                alt_up_character_lcd_init
                0x00096b84                alt_up_character_lcd_open_dev
                0x00096bc4                alt_up_character_lcd_write
                0x00096c3c                alt_up_character_lcd_string
                0x00096cb4                alt_up_character_lcd_write_fd
                0x00096d00                alt_up_character_lcd_set_cursor_pos
                0x00096d78                alt_up_character_lcd_shift_cursor
                0x00096e28                alt_up_character_lcd_shift_display
                0x00096ed8                alt_up_character_lcd_erase_pos
                0x00096f68                alt_up_character_lcd_cursor_off
                0x00096f9c                alt_up_character_lcd_cursor_blink_on
 .text          0x00096fd0      0x154 ../experiment2_bsp//libucosii_bsp.a(alt_alarm_start.o)
                0x00096fd0                alt_alarm_start
 .text          0x00097124       0x1c ../experiment2_bsp//libucosii_bsp.a(alt_dcache_flush_all.o)
                0x00097124                alt_dcache_flush_all
 .text          0x00097140      0x114 ../experiment2_bsp//libucosii_bsp.a(alt_dev_llist_insert.o)
                0x00097140                alt_dev_llist_insert
 .text          0x00097254       0x64 ../experiment2_bsp//libucosii_bsp.a(alt_do_ctors.o)
                0x00097254                _do_ctors
 .text          0x000972b8       0x64 ../experiment2_bsp//libucosii_bsp.a(alt_do_dtors.o)
                0x000972b8                _do_dtors
 .text          0x0009731c       0x94 ../experiment2_bsp//libucosii_bsp.a(alt_find_dev.o)
                0x0009731c                alt_find_dev
 .text          0x000973b0       0x1c ../experiment2_bsp//libucosii_bsp.a(alt_icache_flush_all.o)
                0x000973b0                alt_icache_flush_all
 .text          0x000973cc      0x1d4 ../experiment2_bsp//libucosii_bsp.a(alt_iic.o)
                0x000973cc                alt_ic_isr_register
                0x0009741c                alt_ic_irq_enable
                0x000974b8                alt_ic_irq_disable
                0x00097558                alt_ic_irq_enabled
 .text          0x000975a0       0xf8 ../experiment2_bsp//libucosii_bsp.a(alt_iic_isr_register.o)
                0x000975a0                alt_iic_isr_register
 .text          0x00097698      0x150 ../experiment2_bsp//libucosii_bsp.a(alt_io_redirect.o)
                0x00097770                alt_io_redirect
 .text          0x000977e8        0x0 ../experiment2_bsp//libucosii_bsp.a(alt_irq_entry.o)
 .text          0x000977e8        0x0 ../experiment2_bsp//libucosii_bsp.a(alt_irq_handler.o)
 .text          0x000977e8      0x2e4 ../experiment2_bsp//libucosii_bsp.a(alt_open.o)
                0x000978e0                open
 .text          0x00097acc      0x1a8 ../experiment2_bsp//libucosii_bsp.a(alt_tick.o)
                0x00097acc                alt_alarm_stop
                0x00097b64                alt_tick
 .text          0x00097c74       0x20 ../experiment2_bsp//libucosii_bsp.a(altera_nios2_qsys_irq.o)
                0x00097c74                altera_nios2_qsys_irq_init
 .text          0x00097c94       0xd0 ../experiment2_bsp//libucosii_bsp.a(os_cpu_a.o)
                0x00097c94                OSCtxSw
                0x00097c94                OSIntCtxSw
                0x00097d20                OSStartHighRdy
                0x00097d40                OSStartTsk
 .text          0x00097d64      0x418 ../experiment2_bsp//libucosii_bsp.a(os_cpu_c.o)
                0x00097d64                OSTaskStkInit
                0x00098074                OSTaskCreateHook
                0x00098094                OSTaskDelHook
                0x000980b4                OSTaskSwHook
                0x000980d0                OSTaskStatHook
                0x000980ec                OSTimeTickHook
                0x00098108                OSInitHookBegin
                0x00098124                OSInitHookEnd
                0x00098140                OSTaskIdleHook
                0x0009815c                OSTCBInitHook
 .text          0x0009817c        0x0 ../experiment2_bsp//libucosii_bsp.a(alt_exception_entry.o)
 .text          0x0009817c      0x120 ../experiment2_bsp//libucosii_bsp.a(alt_find_file.o)
                0x0009817c                alt_find_file
 .text          0x0009829c      0x104 ../experiment2_bsp//libucosii_bsp.a(alt_get_fd.o)
                0x0009829c                alt_get_fd
 .text          0x000983a0       0x14 /tools/altera/12.0/nios2eds/bin/gnu/H-i686-pc-linux-gnu/bin/../lib/gcc/nios2-elf/4.1.2/../../../../nios2-elf/lib/mno-hw-mul/libc.a(lib_a-atexit.o)
                0x000983a0                atexit
 .text          0x000983b4       0x38 /tools/altera/12.0/nios2eds/bin/gnu/H-i686-pc-linux-gnu/bin/../lib/gcc/nios2-elf/4.1.2/../../../../nios2-elf/lib/mno-hw-mul/libc.a(lib_a-exit.o)
                0x000983b4                exit
 .text          0x000983ec       0x74 /tools/altera/12.0/nios2eds/bin/gnu/H-i686-pc-linux-gnu/bin/../lib/gcc/nios2-elf/4.1.2/../../../../nios2-elf/lib/mno-hw-mul/libc.a(lib_a-memcmp.o)
                0x000983ec                memcmp
 .text          0x00098460      0x1ec /tools/altera/12.0/nios2eds/bin/gnu/H-i686-pc-linux-gnu/bin/../lib/gcc/nios2-elf/4.1.2/../../../../nios2-elf/lib/mno-hw-mul/libc.a(lib_a-putc.o)
                0x00098460                putc
                0x00098564                _putc_r
 .text          0x0009864c      0x14c /tools/altera/12.0/nios2eds/bin/gnu/H-i686-pc-linux-gnu/bin/../lib/gcc/nios2-elf/4.1.2/../../../../nios2-elf/lib/mno-hw-mul/libc.a(lib_a-wbuf.o)
                0x0009864c                __swbuf_r
                0x0009877c                __swbuf
 .text          0x00098798      0x134 /tools/altera/12.0/nios2eds/bin/gnu/H-i686-pc-linux-gnu/bin/../lib/gcc/nios2-elf/4.1.2/../../../../nios2-elf/lib/mno-hw-mul/libc.a(lib_a-__atexit.o)
                0x00098798                __register_exitproc
 .text          0x000988cc      0x1b4 /tools/altera/12.0/nios2eds/bin/gnu/H-i686-pc-linux-gnu/bin/../lib/gcc/nios2-elf/4.1.2/../../../../nios2-elf/lib/mno-hw-mul/libc.a(lib_a-__call_atexit.o)
                0x000988d0                __call_exitprocs
 .text          0x00098a80       0x6c ../experiment2_bsp//libucosii_bsp.a(alt_exit.o)
                0x00098ac0                _exit
 *(.gnu.warning.*)
 *(.fini)
                0x00098aec                PROVIDE (__etext, ABSOLUTE (.))
                0x00098aec                PROVIDE (_etext, ABSOLUTE (.))
                0x00098aec                PROVIDE (etext, ABSOLUTE (.))
 *(.eh_frame_hdr)
                0x00098aec                . = ALIGN (0x4)
                0x00098aec                PROVIDE (__preinit_array_start, ABSOLUTE (.))
 *(.preinit_array)
                0x00098aec                PROVIDE (__preinit_array_end, ABSOLUTE (.))
                0x00098aec                PROVIDE (__init_array_start, ABSOLUTE (.))
 *(.init_array)
                0x00098aec                PROVIDE (__init_array_end, ABSOLUTE (.))
                0x00098aec                PROVIDE (__fini_array_start, ABSOLUTE (.))
 *(.fini_array)
                0x00098aec                PROVIDE (__fini_array_end, ABSOLUTE (.))
 *(.eh_frame)
 .eh_frame      0x00098aec       0x40 /tools/altera/12.0/nios2eds/bin/gnu/H-i686-pc-linux-gnu/bin/../lib/gcc/nios2-elf/4.1.2/mno-hw-mul/libgcc.a(_udivdi3.o)
 .eh_frame      0x00098b2c       0x2c /tools/altera/12.0/nios2eds/bin/gnu/H-i686-pc-linux-gnu/bin/../lib/gcc/nios2-elf/4.1.2/mno-hw-mul/libgcc.a(_umoddi3.o)
                                 0x40 (size before relaxing)
 *(.gcc_except_table)
 *(.dynamic)
                0x00098b58                PROVIDE (__CTOR_LIST__, ABSOLUTE (.))
 *(.ctors)
 *(SORT(.ctors.*))
 .ctors.65535   0x00098b58        0x4 /tools/altera/12.0/nios2eds/bin/gnu/H-i686-pc-linux-gnu/bin/../lib/gcc/nios2-elf/4.1.2/../../../../nios2-elf/lib/mno-hw-mul/libc.a(lib_a-__call_atexit.o)
                0x00098b5c                PROVIDE (__CTOR_END__, ABSOLUTE (.))
                0x00098b5c                PROVIDE (__DTOR_LIST__, ABSOLUTE (.))
 *(.dtors)
 *(SORT(.dtors.*))
                0x00098b5c                PROVIDE (__DTOR_END__, ABSOLUTE (.))
 *(.jcr)
                0x00098b5c                . = ALIGN (0x4)

.rodata         0x00098b5c      0xd54
                0x00098b5c                PROVIDE (__ram_rodata_start, ABSOLUTE (.))
                0x00098b5c                . = ALIGN (0x4)
 *(.rodata .rodata.* .gnu.linkonce.r.*)
 .rodata        0x00098b5c      0x3bc obj/default/alt_ucosii_simple_error_check.o
 .rodata        0x00098f18      0x134 obj/default/experiment2.o
 .rodata        0x0009904c      0x3e4 obj/default/tasks.o
 .rodata.str1.4
                0x00099430        0x2 /tools/altera/12.0/nios2eds/bin/gnu/H-i686-pc-linux-gnu/bin/../lib/gcc/nios2-elf/4.1.2/../../../../nios2-elf/lib/mno-hw-mul/libc.a(lib_a-impure.o)
                                  0x4 (size before relaxing)
 *fill*         0x00099432        0x2 00
 .rodata.str1.4
                0x00099434        0x2 /tools/altera/12.0/nios2eds/bin/gnu/H-i686-pc-linux-gnu/bin/../lib/gcc/nios2-elf/4.1.2/../../../../nios2-elf/lib/mno-hw-mul/libc.a(lib_a-puts.o)
                                  0x4 (size before relaxing)
 *fill*         0x00099436        0x2 00
 .rodata.str1.4
                0x00099438       0x5e /tools/altera/12.0/nios2eds/bin/gnu/H-i686-pc-linux-gnu/bin/../lib/gcc/nios2-elf/4.1.2/../../../../nios2-elf/lib/mno-hw-mul/libc.a(lib_a-vfprintf.o)
                                 0x60 (size before relaxing)
 .rodata        0x00099496       0x20 /tools/altera/12.0/nios2eds/bin/gnu/H-i686-pc-linux-gnu/bin/../lib/gcc/nios2-elf/4.1.2/../../../../nios2-elf/lib/mno-hw-mul/libc.a(lib_a-vfprintf.o)
 *fill*         0x000994b6        0x2 00
 .rodata.str1.4
                0x000994b8       0x10 /tools/altera/12.0/nios2eds/bin/gnu/H-i686-pc-linux-gnu/bin/../lib/gcc/nios2-elf/4.1.2/../../../../nios2-elf/lib/mno-hw-mul/libc.a(lib_a-dtoa.o)
                                 0x14 (size before relaxing)
 .rodata.str1.4
                0x000994c8       0x10 /tools/altera/12.0/nios2eds/bin/gnu/H-i686-pc-linux-gnu/bin/../lib/gcc/nios2-elf/4.1.2/../../../../nios2-elf/lib/mno-hw-mul/libc.a(lib_a-locale.o)
                                 0x18 (size before relaxing)
 .rodata        0x000994d8       0x30 /tools/altera/12.0/nios2eds/bin/gnu/H-i686-pc-linux-gnu/bin/../lib/gcc/nios2-elf/4.1.2/../../../../nios2-elf/lib/mno-hw-mul/libc.a(lib_a-locale.o)
 .rodata        0x00099508      0x124 /tools/altera/12.0/nios2eds/bin/gnu/H-i686-pc-linux-gnu/bin/../lib/gcc/nios2-elf/4.1.2/../../../../nios2-elf/lib/mno-hw-mul/libc.a(lib_a-mprec.o)
                0x00099508                __mprec_tens
                0x000995d0                __mprec_bigtens
                0x000995f8                __mprec_tinytens
 .rodata        0x0009962c       0x14 /tools/altera/12.0/nios2eds/bin/gnu/H-i686-pc-linux-gnu/bin/../lib/gcc/nios2-elf/4.1.2/mno-hw-mul/libgcc.a(_thenan_df.o)
                0x0009962c                __thenan_df
 .rodata        0x00099640      0x100 /tools/altera/12.0/nios2eds/bin/gnu/H-i686-pc-linux-gnu/bin/../lib/gcc/nios2-elf/4.1.2/mno-hw-mul/libgcc.a(_clz.o)
                0x00099640                __clz_tab
 .rodata        0x00099740        0xc ../experiment2_bsp//libucosii_bsp.a(alt_dev.o)
 .rodata        0x0009974c       0x14 ../experiment2_bsp//libucosii_bsp.a(alt_main.o)
 .rodata        0x00099760      0x120 ../experiment2_bsp//libucosii_bsp.a(os_core.o)
                0x00099760                OSUnMapTbl
 .rodata        0x00099880       0x2c ../experiment2_bsp//libucosii_bsp.a(alt_sys_init.o)
 .rodata        0x000998ac        0x4 ../experiment2_bsp//libucosii_bsp.a(os_cpu_c.o)
 *(.rodata1)
                0x000998b0                . = ALIGN (0x4)
                0x000998b0                PROVIDE (__ram_rodata_end, ABSOLUTE (.))
                0x00098b5c                PROVIDE (__flash_rodata_start, LOADADDR (.rodata))

.rwdata         0x000998b0     0x1b14 load address 0x0009b3c4
                0x000998b0                PROVIDE (__ram_rwdata_start, ABSOLUTE (.))
                0x000998b0                . = ALIGN (0x4)
 *(.got.plt)
 *(.got)
 *(.data1)
 *(.data .data.* .gnu.linkonce.d.*)
 .data          0x000998b0        0x0 ../experiment2_bsp//obj/HAL/src/crt0.o
 .data          0x000998b0        0x0 obj/default/PB_button.o
 .data          0x000998b0        0x0 obj/default/alt_ucosii_simple_error_check.o
 .data          0x000998b0        0x0 obj/default/experiment2.o
 .data          0x000998b0        0x0 obj/default/tasks.o
 .data          0x000998b0        0x0 /tools/altera/12.0/nios2eds/bin/gnu/H-i686-pc-linux-gnu/bin/../lib/gcc/nios2-elf/4.1.2/mno-hw-mul/libgcc.a(lib2-divmod.o)
 .data          0x000998b0        0x0 /tools/altera/12.0/nios2eds/bin/gnu/H-i686-pc-linux-gnu/bin/../lib/gcc/nios2-elf/4.1.2/mno-hw-mul/libgcc.a(lib2-mul.o)
 .data          0x000998b0        0x0 /tools/altera/12.0/nios2eds/bin/gnu/H-i686-pc-linux-gnu/bin/../lib/gcc/nios2-elf/4.1.2/../../../../nios2-elf/lib/mno-hw-mul/libc.a(lib_a-fprintf.o)
 .data          0x000998b0        0x0 /tools/altera/12.0/nios2eds/bin/gnu/H-i686-pc-linux-gnu/bin/../lib/gcc/nios2-elf/4.1.2/../../../../nios2-elf/lib/mno-hw-mul/libc.a(lib_a-fwrite.o)
 .data          0x000998b0      0x400 /tools/altera/12.0/nios2eds/bin/gnu/H-i686-pc-linux-gnu/bin/../lib/gcc/nios2-elf/4.1.2/../../../../nios2-elf/lib/mno-hw-mul/libc.a(lib_a-impure.o)
 .data          0x00099cb0        0x0 /tools/altera/12.0/nios2eds/bin/gnu/H-i686-pc-linux-gnu/bin/../lib/gcc/nios2-elf/4.1.2/../../../../nios2-elf/lib/mno-hw-mul/libc.a(lib_a-printf.o)
 .data          0x00099cb0        0x0 /tools/altera/12.0/nios2eds/bin/gnu/H-i686-pc-linux-gnu/bin/../lib/gcc/nios2-elf/4.1.2/../../../../nios2-elf/lib/mno-hw-mul/libc.a(lib_a-puts.o)
 .data          0x00099cb0        0x0 /tools/altera/12.0/nios2eds/bin/gnu/H-i686-pc-linux-gnu/bin/../lib/gcc/nios2-elf/4.1.2/../../../../nios2-elf/lib/mno-hw-mul/libc.a(lib_a-rand.o)
 .data          0x00099cb0        0x0 /tools/altera/12.0/nios2eds/bin/gnu/H-i686-pc-linux-gnu/bin/../lib/gcc/nios2-elf/4.1.2/../../../../nios2-elf/lib/mno-hw-mul/libc.a(lib_a-strlen.o)
 .data          0x00099cb0        0x0 /tools/altera/12.0/nios2eds/bin/gnu/H-i686-pc-linux-gnu/bin/../lib/gcc/nios2-elf/4.1.2/../../../../nios2-elf/lib/mno-hw-mul/libc.a(lib_a-vfprintf.o)
 .data          0x00099cb0        0x0 /tools/altera/12.0/nios2eds/bin/gnu/H-i686-pc-linux-gnu/bin/../lib/gcc/nios2-elf/4.1.2/../../../../nios2-elf/lib/mno-hw-mul/libc.a(lib_a-wsetup.o)
 .data          0x00099cb0        0x0 /tools/altera/12.0/nios2eds/bin/gnu/H-i686-pc-linux-gnu/bin/../lib/gcc/nios2-elf/4.1.2/../../../../nios2-elf/lib/mno-hw-mul/libc.a(lib_a-dtoa.o)
 .data          0x00099cb0        0x0 /tools/altera/12.0/nios2eds/bin/gnu/H-i686-pc-linux-gnu/bin/../lib/gcc/nios2-elf/4.1.2/../../../../nios2-elf/lib/mno-hw-mul/libc.a(lib_a-fflush.o)
 .data          0x00099cb0        0x0 /tools/altera/12.0/nios2eds/bin/gnu/H-i686-pc-linux-gnu/bin/../lib/gcc/nios2-elf/4.1.2/../../../../nios2-elf/lib/mno-hw-mul/libc.a(lib_a-findfp.o)
 .data          0x00099cb0        0x0 /tools/altera/12.0/nios2eds/bin/gnu/H-i686-pc-linux-gnu/bin/../lib/gcc/nios2-elf/4.1.2/../../../../nios2-elf/lib/mno-hw-mul/libc.a(lib_a-freer.o)
 .data          0x00099cb0        0x0 /tools/altera/12.0/nios2eds/bin/gnu/H-i686-pc-linux-gnu/bin/../lib/gcc/nios2-elf/4.1.2/../../../../nios2-elf/lib/mno-hw-mul/libc.a(lib_a-fvwrite.o)
 .data          0x00099cb0        0x0 /tools/altera/12.0/nios2eds/bin/gnu/H-i686-pc-linux-gnu/bin/../lib/gcc/nios2-elf/4.1.2/../../../../nios2-elf/lib/mno-hw-mul/libc.a(lib_a-fwalk.o)
 .data          0x00099cb0        0xc /tools/altera/12.0/nios2eds/bin/gnu/H-i686-pc-linux-gnu/bin/../lib/gcc/nios2-elf/4.1.2/../../../../nios2-elf/lib/mno-hw-mul/libc.a(lib_a-locale.o)
                0x00099cb0                __lc_ctype
 .data          0x00099cbc        0x0 /tools/altera/12.0/nios2eds/bin/gnu/H-i686-pc-linux-gnu/bin/../lib/gcc/nios2-elf/4.1.2/../../../../nios2-elf/lib/mno-hw-mul/libc.a(lib_a-makebuf.o)
 .data          0x00099cbc      0x408 /tools/altera/12.0/nios2eds/bin/gnu/H-i686-pc-linux-gnu/bin/../lib/gcc/nios2-elf/4.1.2/../../../../nios2-elf/lib/mno-hw-mul/libc.a(lib_a-mallocr.o)
                0x00099cbc                __malloc_av_
 .data          0x0009a0c4        0x0 /tools/altera/12.0/nios2eds/bin/gnu/H-i686-pc-linux-gnu/bin/../lib/gcc/nios2-elf/4.1.2/../../../../nios2-elf/lib/mno-hw-mul/libc.a(lib_a-memchr.o)
 .data          0x0009a0c4        0x0 /tools/altera/12.0/nios2eds/bin/gnu/H-i686-pc-linux-gnu/bin/../lib/gcc/nios2-elf/4.1.2/../../../../nios2-elf/lib/mno-hw-mul/libc.a(lib_a-memcpy.o)
 .data          0x0009a0c4        0x0 /tools/altera/12.0/nios2eds/bin/gnu/H-i686-pc-linux-gnu/bin/../lib/gcc/nios2-elf/4.1.2/../../../../nios2-elf/lib/mno-hw-mul/libc.a(lib_a-memmove.o)
 .data          0x0009a0c4        0x0 /tools/altera/12.0/nios2eds/bin/gnu/H-i686-pc-linux-gnu/bin/../lib/gcc/nios2-elf/4.1.2/../../../../nios2-elf/lib/mno-hw-mul/libc.a(lib_a-memset.o)
 .data          0x0009a0c4        0x0 /tools/altera/12.0/nios2eds/bin/gnu/H-i686-pc-linux-gnu/bin/../lib/gcc/nios2-elf/4.1.2/../../../../nios2-elf/lib/mno-hw-mul/libc.a(lib_a-mprec.o)
 .data          0x0009a0c4        0x0 /tools/altera/12.0/nios2eds/bin/gnu/H-i686-pc-linux-gnu/bin/../lib/gcc/nios2-elf/4.1.2/../../../../nios2-elf/lib/mno-hw-mul/libc.a(lib_a-reallocr.o)
 .data          0x0009a0c4        0x0 /tools/altera/12.0/nios2eds/bin/gnu/H-i686-pc-linux-gnu/bin/../lib/gcc/nios2-elf/4.1.2/../../../../nios2-elf/lib/mno-hw-mul/libc.a(lib_a-s_isinfd.o)
 .data          0x0009a0c4        0x0 /tools/altera/12.0/nios2eds/bin/gnu/H-i686-pc-linux-gnu/bin/../lib/gcc/nios2-elf/4.1.2/../../../../nios2-elf/lib/mno-hw-mul/libc.a(lib_a-s_isnand.o)
 .data          0x0009a0c4        0x0 /tools/altera/12.0/nios2eds/bin/gnu/H-i686-pc-linux-gnu/bin/../lib/gcc/nios2-elf/4.1.2/../../../../nios2-elf/lib/mno-hw-mul/libc.a(lib_a-sbrkr.o)
 .data          0x0009a0c4        0x0 /tools/altera/12.0/nios2eds/bin/gnu/H-i686-pc-linux-gnu/bin/../lib/gcc/nios2-elf/4.1.2/../../../../nios2-elf/lib/mno-hw-mul/libc.a(lib_a-stdio.o)
 .data          0x0009a0c4        0x0 /tools/altera/12.0/nios2eds/bin/gnu/H-i686-pc-linux-gnu/bin/../lib/gcc/nios2-elf/4.1.2/../../../../nios2-elf/lib/mno-hw-mul/libc.a(lib_a-strcmp.o)
 .data          0x0009a0c4        0x0 /tools/altera/12.0/nios2eds/bin/gnu/H-i686-pc-linux-gnu/bin/../lib/gcc/nios2-elf/4.1.2/../../../../nios2-elf/lib/mno-hw-mul/libc.a(lib_a-writer.o)
 .data          0x0009a0c4        0x0 /tools/altera/12.0/nios2eds/bin/gnu/H-i686-pc-linux-gnu/bin/../lib/gcc/nios2-elf/4.1.2/../../../../nios2-elf/lib/mno-hw-mul/libc.a(lib_a-callocr.o)
 .data          0x0009a0c4        0x0 /tools/altera/12.0/nios2eds/bin/gnu/H-i686-pc-linux-gnu/bin/../lib/gcc/nios2-elf/4.1.2/../../../../nios2-elf/lib/mno-hw-mul/libc.a(lib_a-closer.o)
 .data          0x0009a0c4        0x0 /tools/altera/12.0/nios2eds/bin/gnu/H-i686-pc-linux-gnu/bin/../lib/gcc/nios2-elf/4.1.2/../../../../nios2-elf/lib/mno-hw-mul/libc.a(lib_a-fclose.o)
 .data          0x0009a0c4        0x0 /tools/altera/12.0/nios2eds/bin/gnu/H-i686-pc-linux-gnu/bin/../lib/gcc/nios2-elf/4.1.2/../../../../nios2-elf/lib/mno-hw-mul/libc.a(lib_a-fstatr.o)
 .data          0x0009a0c4        0x0 /tools/altera/12.0/nios2eds/bin/gnu/H-i686-pc-linux-gnu/bin/../lib/gcc/nios2-elf/4.1.2/../../../../nios2-elf/lib/mno-hw-mul/libc.a(lib_a-int_errno.o)
 .data          0x0009a0c4        0x0 /tools/altera/12.0/nios2eds/bin/gnu/H-i686-pc-linux-gnu/bin/../lib/gcc/nios2-elf/4.1.2/../../../../nios2-elf/lib/mno-hw-mul/libc.a(lib_a-isattyr.o)
 .data          0x0009a0c4        0x0 /tools/altera/12.0/nios2eds/bin/gnu/H-i686-pc-linux-gnu/bin/../lib/gcc/nios2-elf/4.1.2/../../../../nios2-elf/lib/mno-hw-mul/libc.a(lib_a-lseekr.o)
 .data          0x0009a0c4        0x0 /tools/altera/12.0/nios2eds/bin/gnu/H-i686-pc-linux-gnu/bin/../lib/gcc/nios2-elf/4.1.2/../../../../nios2-elf/lib/mno-hw-mul/libc.a(lib_a-readr.o)
 .data          0x0009a0c4        0x0 /tools/altera/12.0/nios2eds/bin/gnu/H-i686-pc-linux-gnu/bin/../lib/gcc/nios2-elf/4.1.2/mno-hw-mul/libgcc.a(_muldi3.o)
 .data          0x0009a0c4        0x0 /tools/altera/12.0/nios2eds/bin/gnu/H-i686-pc-linux-gnu/bin/../lib/gcc/nios2-elf/4.1.2/mno-hw-mul/libgcc.a(_udivdi3.o)
 .data          0x0009a0c4        0x0 /tools/altera/12.0/nios2eds/bin/gnu/H-i686-pc-linux-gnu/bin/../lib/gcc/nios2-elf/4.1.2/mno-hw-mul/libgcc.a(_umoddi3.o)
 .data          0x0009a0c4        0x0 /tools/altera/12.0/nios2eds/bin/gnu/H-i686-pc-linux-gnu/bin/../lib/gcc/nios2-elf/4.1.2/mno-hw-mul/libgcc.a(_addsub_df.o)
 .data          0x0009a0c4        0x0 /tools/altera/12.0/nios2eds/bin/gnu/H-i686-pc-linux-gnu/bin/../lib/gcc/nios2-elf/4.1.2/mno-hw-mul/libgcc.a(_mul_df.o)
 .data          0x0009a0c4        0x0 /tools/altera/12.0/nios2eds/bin/gnu/H-i686-pc-linux-gnu/bin/../lib/gcc/nios2-elf/4.1.2/mno-hw-mul/libgcc.a(_div_df.o)
 .data          0x0009a0c4        0x0 /tools/altera/12.0/nios2eds/bin/gnu/H-i686-pc-linux-gnu/bin/../lib/gcc/nios2-elf/4.1.2/mno-hw-mul/libgcc.a(_eq_df.o)
 .data          0x0009a0c4        0x0 /tools/altera/12.0/nios2eds/bin/gnu/H-i686-pc-linux-gnu/bin/../lib/gcc/nios2-elf/4.1.2/mno-hw-mul/libgcc.a(_ne_df.o)
 .data          0x0009a0c4        0x0 /tools/altera/12.0/nios2eds/bin/gnu/H-i686-pc-linux-gnu/bin/../lib/gcc/nios2-elf/4.1.2/mno-hw-mul/libgcc.a(_gt_df.o)
 .data          0x0009a0c4        0x0 /tools/altera/12.0/nios2eds/bin/gnu/H-i686-pc-linux-gnu/bin/../lib/gcc/nios2-elf/4.1.2/mno-hw-mul/libgcc.a(_ge_df.o)
 .data          0x0009a0c4        0x0 /tools/altera/12.0/nios2eds/bin/gnu/H-i686-pc-linux-gnu/bin/../lib/gcc/nios2-elf/4.1.2/mno-hw-mul/libgcc.a(_lt_df.o)
 .data          0x0009a0c4        0x0 /tools/altera/12.0/nios2eds/bin/gnu/H-i686-pc-linux-gnu/bin/../lib/gcc/nios2-elf/4.1.2/mno-hw-mul/libgcc.a(_si_to_df.o)
 .data          0x0009a0c4        0x0 /tools/altera/12.0/nios2eds/bin/gnu/H-i686-pc-linux-gnu/bin/../lib/gcc/nios2-elf/4.1.2/mno-hw-mul/libgcc.a(_df_to_si.o)
 .data          0x0009a0c4        0x0 /tools/altera/12.0/nios2eds/bin/gnu/H-i686-pc-linux-gnu/bin/../lib/gcc/nios2-elf/4.1.2/mno-hw-mul/libgcc.a(_thenan_df.o)
 .data          0x0009a0c4        0x0 /tools/altera/12.0/nios2eds/bin/gnu/H-i686-pc-linux-gnu/bin/../lib/gcc/nios2-elf/4.1.2/mno-hw-mul/libgcc.a(_usi_to_df.o)
 .data          0x0009a0c4        0x0 /tools/altera/12.0/nios2eds/bin/gnu/H-i686-pc-linux-gnu/bin/../lib/gcc/nios2-elf/4.1.2/mno-hw-mul/libgcc.a(_clz.o)
 .data          0x0009a0c4        0x0 /tools/altera/12.0/nios2eds/bin/gnu/H-i686-pc-linux-gnu/bin/../lib/gcc/nios2-elf/4.1.2/mno-hw-mul/libgcc.a(_clzsi2.o)
 .data          0x0009a0c4        0x0 /tools/altera/12.0/nios2eds/bin/gnu/H-i686-pc-linux-gnu/bin/../lib/gcc/nios2-elf/4.1.2/mno-hw-mul/libgcc.a(_pack_df.o)
 .data          0x0009a0c4        0x0 /tools/altera/12.0/nios2eds/bin/gnu/H-i686-pc-linux-gnu/bin/../lib/gcc/nios2-elf/4.1.2/mno-hw-mul/libgcc.a(_unpack_df.o)
 .data          0x0009a0c4        0x0 /tools/altera/12.0/nios2eds/bin/gnu/H-i686-pc-linux-gnu/bin/../lib/gcc/nios2-elf/4.1.2/mno-hw-mul/libgcc.a(_fpcmp_parts_df.o)
 .data          0x0009a0c4        0x0 ../experiment2_bsp//libucosii_bsp.a(alt_close.o)
 .data          0x0009a0c4      0x1a8 ../experiment2_bsp//libucosii_bsp.a(alt_dev.o)
                0x0009a0c4                alt_dev_null
                0x0009a0ec                alt_fd_list
 .data          0x0009a26c        0x0 ../experiment2_bsp//libucosii_bsp.a(alt_errno.o)
 .data          0x0009a26c        0x0 ../experiment2_bsp//libucosii_bsp.a(alt_fstat.o)
 .data          0x0009a26c        0x0 ../experiment2_bsp//libucosii_bsp.a(alt_irq_register.o)
 .data          0x0009a26c        0x0 ../experiment2_bsp//libucosii_bsp.a(alt_irq_vars.o)
 .data          0x0009a26c        0x0 ../experiment2_bsp//libucosii_bsp.a(alt_isatty.o)
 .data          0x0009a26c        0x0 ../experiment2_bsp//libucosii_bsp.a(alt_load.o)
 .data          0x0009a26c        0x0 ../experiment2_bsp//libucosii_bsp.a(alt_lseek.o)
 .data          0x0009a26c        0x0 ../experiment2_bsp//libucosii_bsp.a(alt_main.o)
 .data          0x0009a26c        0x0 ../experiment2_bsp//libucosii_bsp.a(alt_printf.o)
 .data          0x0009a26c        0x0 ../experiment2_bsp//libucosii_bsp.a(alt_putchar.o)
 .data          0x0009a26c        0x0 ../experiment2_bsp//libucosii_bsp.a(alt_read.o)
 .data          0x0009a26c        0x0 ../experiment2_bsp//libucosii_bsp.a(alt_release_fd.o)
 .data          0x0009a26c        0x0 ../experiment2_bsp//libucosii_bsp.a(alt_sbrk.o)
 .data          0x0009a26c        0x0 ../experiment2_bsp//libucosii_bsp.a(alt_write.o)
 .data          0x0009a26c        0x0 ../experiment2_bsp//libucosii_bsp.a(alt_env_lock.o)
 .data          0x0009a26c        0x0 ../experiment2_bsp//libucosii_bsp.a(alt_malloc_lock.o)
 .data          0x0009a26c        0x0 ../experiment2_bsp//libucosii_bsp.a(os_core.o)
 .data          0x0009a26c        0x0 ../experiment2_bsp//libucosii_bsp.a(os_dbg.o)
 .data          0x0009a26c        0x0 ../experiment2_bsp//libucosii_bsp.a(os_flag.o)
 .data          0x0009a26c        0x0 ../experiment2_bsp//libucosii_bsp.a(os_mem.o)
 .data          0x0009a26c        0x0 ../experiment2_bsp//libucosii_bsp.a(os_q.o)
 .data          0x0009a26c        0x0 ../experiment2_bsp//libucosii_bsp.a(os_sem.o)
 .data          0x0009a26c        0x0 ../experiment2_bsp//libucosii_bsp.a(os_task.o)
 .data          0x0009a26c        0x0 ../experiment2_bsp//libucosii_bsp.a(os_time.o)
 .data          0x0009a26c     0x1098 ../experiment2_bsp//libucosii_bsp.a(alt_sys_init.o)
 .data          0x0009b304        0x0 ../experiment2_bsp//libucosii_bsp.a(altera_avalon_jtag_uart_fd.o)
 .data          0x0009b304        0x0 ../experiment2_bsp//libucosii_bsp.a(altera_avalon_jtag_uart_init.o)
 .data          0x0009b304        0x0 ../experiment2_bsp//libucosii_bsp.a(altera_avalon_jtag_uart_ioctl.o)
 .data          0x0009b304        0x0 ../experiment2_bsp//libucosii_bsp.a(altera_avalon_jtag_uart_read.o)
 .data          0x0009b304        0x0 ../experiment2_bsp//libucosii_bsp.a(altera_avalon_jtag_uart_write.o)
 .data          0x0009b304        0x0 ../experiment2_bsp//libucosii_bsp.a(altera_avalon_timer_sc.o)
 .data          0x0009b304        0x0 ../experiment2_bsp//libucosii_bsp.a(altera_up_avalon_character_lcd.o)
 .data          0x0009b304        0x0 ../experiment2_bsp//libucosii_bsp.a(alt_alarm_start.o)
 .data          0x0009b304        0x0 ../experiment2_bsp//libucosii_bsp.a(alt_dcache_flush_all.o)
 .data          0x0009b304        0x0 ../experiment2_bsp//libucosii_bsp.a(alt_dev_llist_insert.o)
 .data          0x0009b304        0x0 ../experiment2_bsp//libucosii_bsp.a(alt_do_ctors.o)
 .data          0x0009b304        0x0 ../experiment2_bsp//libucosii_bsp.a(alt_do_dtors.o)
 .data          0x0009b304        0x0 ../experiment2_bsp//libucosii_bsp.a(alt_find_dev.o)
 .data          0x0009b304        0x0 ../experiment2_bsp//libucosii_bsp.a(alt_icache_flush_all.o)
 .data          0x0009b304        0x0 ../experiment2_bsp//libucosii_bsp.a(alt_iic.o)
 .data          0x0009b304        0x0 ../experiment2_bsp//libucosii_bsp.a(alt_iic_isr_register.o)
 .data          0x0009b304        0x0 ../experiment2_bsp//libucosii_bsp.a(alt_io_redirect.o)
 .data          0x0009b304        0x0 ../experiment2_bsp//libucosii_bsp.a(alt_irq_entry.o)
 .data          0x0009b304        0x0 ../experiment2_bsp//libucosii_bsp.a(alt_irq_handler.o)
 .data          0x0009b304        0x0 ../experiment2_bsp//libucosii_bsp.a(alt_open.o)
 .data          0x0009b304        0x0 ../experiment2_bsp//libucosii_bsp.a(alt_tick.o)
 .data          0x0009b304        0x0 ../experiment2_bsp//libucosii_bsp.a(altera_nios2_qsys_irq.o)
 .data          0x0009b304        0x0 ../experiment2_bsp//libucosii_bsp.a(os_cpu_a.o)
 .data          0x0009b304        0x0 ../experiment2_bsp//libucosii_bsp.a(os_cpu_c.o)
 .data          0x0009b304        0x0 ../experiment2_bsp//libucosii_bsp.a(alt_exception_entry.o)
 .data          0x0009b304        0x0 ../experiment2_bsp//libucosii_bsp.a(alt_find_file.o)
 .data          0x0009b304        0x0 ../experiment2_bsp//libucosii_bsp.a(alt_get_fd.o)
 .data          0x0009b304        0x0 /tools/altera/12.0/nios2eds/bin/gnu/H-i686-pc-linux-gnu/bin/../lib/gcc/nios2-elf/4.1.2/../../../../nios2-elf/lib/mno-hw-mul/libc.a(lib_a-atexit.o)
 .data          0x0009b304        0x0 /tools/altera/12.0/nios2eds/bin/gnu/H-i686-pc-linux-gnu/bin/../lib/gcc/nios2-elf/4.1.2/../../../../nios2-elf/lib/mno-hw-mul/libc.a(lib_a-exit.o)
 .data          0x0009b304        0x0 /tools/altera/12.0/nios2eds/bin/gnu/H-i686-pc-linux-gnu/bin/../lib/gcc/nios2-elf/4.1.2/../../../../nios2-elf/lib/mno-hw-mul/libc.a(lib_a-memcmp.o)
 .data          0x0009b304        0x0 /tools/altera/12.0/nios2eds/bin/gnu/H-i686-pc-linux-gnu/bin/../lib/gcc/nios2-elf/4.1.2/../../../../nios2-elf/lib/mno-hw-mul/libc.a(lib_a-putc.o)
 .data          0x0009b304        0x0 /tools/altera/12.0/nios2eds/bin/gnu/H-i686-pc-linux-gnu/bin/../lib/gcc/nios2-elf/4.1.2/../../../../nios2-elf/lib/mno-hw-mul/libc.a(lib_a-wbuf.o)
 .data          0x0009b304        0x0 /tools/altera/12.0/nios2eds/bin/gnu/H-i686-pc-linux-gnu/bin/../lib/gcc/nios2-elf/4.1.2/../../../../nios2-elf/lib/mno-hw-mul/libc.a(lib_a-__atexit.o)
 .data          0x0009b304        0x0 /tools/altera/12.0/nios2eds/bin/gnu/H-i686-pc-linux-gnu/bin/../lib/gcc/nios2-elf/4.1.2/../../../../nios2-elf/lib/mno-hw-mul/libc.a(lib_a-__call_atexit.o)
 .data          0x0009b304        0x0 ../experiment2_bsp//libucosii_bsp.a(alt_exit.o)
                0x000a3304                _gp = ABSOLUTE ((. + 0x8000))
                0x000a3304                PROVIDE (gp, _gp)
 *(.rwdata .rwdata.*)
 *(.sdata .sdata.* .gnu.linkonce.s.*)
 .sdata         0x0009b304        0x4 obj/default/tasks.o
                0x0009b304                performance_name
 .sdata         0x0009b308        0x8 /tools/altera/12.0/nios2eds/bin/gnu/H-i686-pc-linux-gnu/bin/../lib/gcc/nios2-elf/4.1.2/../../../../nios2-elf/lib/mno-hw-mul/libc.a(lib_a-impure.o)
                0x0009b308                _impure_ptr
                0x0009b30c                _global_impure_ptr
 .sdata         0x0009b310        0x8 /tools/altera/12.0/nios2eds/bin/gnu/H-i686-pc-linux-gnu/bin/../lib/gcc/nios2-elf/4.1.2/../../../../nios2-elf/lib/mno-hw-mul/libc.a(lib_a-locale.o)
                0x0009b310                __mb_cur_max
 .sdata         0x0009b318        0x8 /tools/altera/12.0/nios2eds/bin/gnu/H-i686-pc-linux-gnu/bin/../lib/gcc/nios2-elf/4.1.2/../../../../nios2-elf/lib/mno-hw-mul/libc.a(lib_a-mallocr.o)
                0x0009b318                __malloc_trim_threshold
                0x0009b31c                __malloc_sbrk_base
 .sdata         0x0009b320       0x14 ../experiment2_bsp//libucosii_bsp.a(alt_dev.o)
                0x0009b320                alt_fs_list
                0x0009b328                alt_dev_list
                0x0009b330                alt_max_fd
 .sdata         0x0009b334        0x4 ../experiment2_bsp//libucosii_bsp.a(alt_errno.o)
                0x0009b334                alt_errno
 .sdata         0x0009b338        0x4 ../experiment2_bsp//libucosii_bsp.a(alt_irq_vars.o)
                0x0009b338                alt_priority_mask
 .sdata         0x0009b33c        0x4 ../experiment2_bsp//libucosii_bsp.a(alt_sbrk.o)
 .sdata         0x0009b340        0x4 ../experiment2_bsp//libucosii_bsp.a(alt_env_lock.o)
 .sdata         0x0009b344        0x4 ../experiment2_bsp//libucosii_bsp.a(alt_malloc_lock.o)
 .sdata         0x0009b348       0x74 ../experiment2_bsp//libucosii_bsp.a(os_dbg.o)
                0x0009b348                OSDebugEn
                0x0009b34c                OSEndiannessTest
                0x0009b350                OSEventEn
                0x0009b352                OSEventMax
                0x0009b354                OSEventNameSize
                0x0009b356                OSEventSize
                0x0009b358                OSEventTblSize
                0x0009b35a                OSEventMultiEn
                0x0009b35c                OSFlagEn
                0x0009b35e                OSFlagGrpSize
                0x0009b360                OSFlagNodeSize
                0x0009b362                OSFlagWidth
                0x0009b364                OSFlagMax
                0x0009b366                OSFlagNameSize
                0x0009b368                OSLowestPrio
                0x0009b36a                OSMboxEn
                0x0009b36c                OSMemEn
                0x0009b36e                OSMemMax
                0x0009b370                OSMemNameSize
                0x0009b372                OSMemSize
                0x0009b374                OSMemTblSize
                0x0009b376                OSMutexEn
                0x0009b378                OSPtrSize
                0x0009b37a                OSQEn
                0x0009b37c                OSQMax
                0x0009b37e                OSQSize
                0x0009b380                OSRdyTblSize
                0x0009b382                OSSemEn
                0x0009b384                OSStkWidth
                0x0009b386                OSTaskCreateEn
                0x0009b388                OSTaskCreateExtEn
                0x0009b38a                OSTaskDelEn
                0x0009b38c                OSTaskIdleStkSize
                0x0009b38e                OSTaskProfileEn
                0x0009b390                OSTaskMax
                0x0009b392                OSTaskNameSize
                0x0009b394                OSTaskStatEn
                0x0009b396                OSTaskStatStkSize
                0x0009b398                OSTaskStatStkChkEn
                0x0009b39a                OSTaskSwHookEn
                0x0009b39c                OSTCBPrioTblMax
                0x0009b39e                OSTCBSize
                0x0009b3a0                OSTicksPerSec
                0x0009b3a2                OSTimeTickHookEn
                0x0009b3a4                OSVersionNbr
                0x0009b3a6                OSTmrEn
                0x0009b3a8                OSTmrCfgMax
                0x0009b3aa                OSTmrCfgNameSize
                0x0009b3ac                OSTmrCfgWheelSize
                0x0009b3ae                OSTmrCfgTicksPerSec
                0x0009b3b0                OSTmrSize
                0x0009b3b2                OSTmrTblSize
                0x0009b3b4                OSTmrWheelSize
                0x0009b3b6                OSTmrWheelTblSize
                0x0009b3b8                OSDataSize
 .sdata         0x0009b3bc        0x8 ../experiment2_bsp//libucosii_bsp.a(alt_tick.o)
                0x0009b3bc                alt_alarm_list
 *(.sdata2 .sdata2.* .gnu.linkonce.s2.*)
                0x0009b3c4                . = ALIGN (0x4)
                0x0009b3c4                _edata = ABSOLUTE (.)
                0x0009b3c4                PROVIDE (edata, ABSOLUTE (.))
                0x0009b3c4                PROVIDE (__ram_rwdata_end, ABSOLUTE (.))
                0x0009b3c4                PROVIDE (__flash_rwdata_start, LOADADDR (.rwdata))

.bss            0x0009ced8     0xf7a0
                0x0009ced8                __bss_start = ABSOLUTE (.)
                0x0009ced8                PROVIDE (__sbss_start, ABSOLUTE (.))
                0x0009ced8                PROVIDE (___sbss_start, ABSOLUTE (.))
 *(.dynsbss)
 *(.sbss .sbss.* .gnu.linkonce.sb.*)
 .sbss          0x0009ced8        0xc /tools/altera/12.0/nios2eds/bin/gnu/H-i686-pc-linux-gnu/bin/../lib/gcc/nios2-elf/4.1.2/../../../../nios2-elf/lib/mno-hw-mul/libc.a(lib_a-locale.o)
                0x0009ced8                __nlocale_changed
                0x0009cedc                __mlocale_changed
                0x0009cee0                _PathLocale
 .sbss          0x0009cee4        0xc /tools/altera/12.0/nios2eds/bin/gnu/H-i686-pc-linux-gnu/bin/../lib/gcc/nios2-elf/4.1.2/../../../../nios2-elf/lib/mno-hw-mul/libc.a(lib_a-mallocr.o)
                0x0009cee4                __malloc_top_pad
                0x0009cee8                __malloc_max_sbrked_mem
                0x0009ceec                __malloc_max_total_mem
 .sbss          0x0009cef0        0x4 /tools/altera/12.0/nios2eds/bin/gnu/H-i686-pc-linux-gnu/bin/../lib/gcc/nios2-elf/4.1.2/../../../../nios2-elf/lib/mno-hw-mul/libc.a(lib_a-int_errno.o)
                0x0009cef0                errno
 .sbss          0x0009cef4        0x4 ../experiment2_bsp//libucosii_bsp.a(alt_dev.o)
                0x0009cef4                alt_fd_list_lock
 .sbss          0x0009cef8        0x4 ../experiment2_bsp//libucosii_bsp.a(alt_irq_vars.o)
                0x0009cef8                alt_irq_active
 .sbss          0x0009cefc        0xc ../experiment2_bsp//libucosii_bsp.a(alt_main.o)
                0x0009cefc                alt_argc
                0x0009cf00                alt_argv
                0x0009cf04                alt_envp
 .sbss          0x0009cf08        0x8 ../experiment2_bsp//libucosii_bsp.a(alt_env_lock.o)
                0x0009cf0c                alt_envsem
 .sbss          0x0009cf10        0x8 ../experiment2_bsp//libucosii_bsp.a(alt_malloc_lock.o)
                0x0009cf14                alt_heapsem
 .sbss          0x0009cf18       0x50 ../experiment2_bsp//libucosii_bsp.a(os_core.o)
                0x0009cf18                OSLockNesting
                0x0009cf19                OSRunning
                0x0009cf1c                OSIdleCtr
                0x0009cf20                OSPrioHighRdy
                0x0009cf21                OSPrioCur
                0x0009cf24                OSTCBList
                0x0009cf28                OSTickStepState
                0x0009cf2c                OSCtxSwCtr
                0x0009cf30                OSIdleCtrMax
                0x0009cf34                OSTCBFreeList
                0x0009cf38                OSCPUUsage
                0x0009cf39                OSTaskCtr
                0x0009cf3c                OSMemFreeList
                0x0009cf40                OSTCBHighRdy
                0x0009cf44                OSQFreeList
                0x0009cf48                OSRdyGrp
                0x0009cf49                OSRdyTbl
                0x0009cf4c                OSEventFreeList
                0x0009cf50                OSIntNesting
                0x0009cf54                OSTCBCur
                0x0009cf58                OSTime
                0x0009cf5c                OSFlagFreeList
                0x0009cf60                OSStatRdy
                0x0009cf64                OSIdleCtrRun
 .sbss          0x0009cf68        0x8 ../experiment2_bsp//libucosii_bsp.a(alt_tick.o)
                0x0009cf68                _alt_tick_rate
                0x0009cf6c                _alt_nticks
 *(.sbss2 .sbss2.* .gnu.linkonce.sb2.*)
 *(.scommon)
                0x0009cf70                PROVIDE (__sbss_end, ABSOLUTE (.))
                0x0009cf70                PROVIDE (___sbss_end, ABSOLUTE (.))
 *(.dynbss)
 *(.bss .bss.* .gnu.linkonce.b.*)
 .bss           0x0009cf70        0x0 ../experiment2_bsp//obj/HAL/src/crt0.o
 .bss           0x0009cf70        0x0 obj/default/PB_button.o
 .bss           0x0009cf70        0x0 obj/default/alt_ucosii_simple_error_check.o
 .bss           0x0009cf70        0x0 obj/default/experiment2.o
 .bss           0x0009cf70        0x0 obj/default/tasks.o
 .bss           0x0009cf70        0x0 /tools/altera/12.0/nios2eds/bin/gnu/H-i686-pc-linux-gnu/bin/../lib/gcc/nios2-elf/4.1.2/mno-hw-mul/libgcc.a(lib2-divmod.o)
 .bss           0x0009cf70        0x0 /tools/altera/12.0/nios2eds/bin/gnu/H-i686-pc-linux-gnu/bin/../lib/gcc/nios2-elf/4.1.2/mno-hw-mul/libgcc.a(lib2-mul.o)
 .bss           0x0009cf70        0x0 /tools/altera/12.0/nios2eds/bin/gnu/H-i686-pc-linux-gnu/bin/../lib/gcc/nios2-elf/4.1.2/../../../../nios2-elf/lib/mno-hw-mul/libc.a(lib_a-fprintf.o)
 .bss           0x0009cf70        0x0 /tools/altera/12.0/nios2eds/bin/gnu/H-i686-pc-linux-gnu/bin/../lib/gcc/nios2-elf/4.1.2/../../../../nios2-elf/lib/mno-hw-mul/libc.a(lib_a-fwrite.o)
 .bss           0x0009cf70        0x0 /tools/altera/12.0/nios2eds/bin/gnu/H-i686-pc-linux-gnu/bin/../lib/gcc/nios2-elf/4.1.2/../../../../nios2-elf/lib/mno-hw-mul/libc.a(lib_a-impure.o)
 .bss           0x0009cf70        0x0 /tools/altera/12.0/nios2eds/bin/gnu/H-i686-pc-linux-gnu/bin/../lib/gcc/nios2-elf/4.1.2/../../../../nios2-elf/lib/mno-hw-mul/libc.a(lib_a-printf.o)
 .bss           0x0009cf70        0x0 /tools/altera/12.0/nios2eds/bin/gnu/H-i686-pc-linux-gnu/bin/../lib/gcc/nios2-elf/4.1.2/../../../../nios2-elf/lib/mno-hw-mul/libc.a(lib_a-puts.o)
 .bss           0x0009cf70        0x0 /tools/altera/12.0/nios2eds/bin/gnu/H-i686-pc-linux-gnu/bin/../lib/gcc/nios2-elf/4.1.2/../../../../nios2-elf/lib/mno-hw-mul/libc.a(lib_a-rand.o)
 .bss           0x0009cf70        0x0 /tools/altera/12.0/nios2eds/bin/gnu/H-i686-pc-linux-gnu/bin/../lib/gcc/nios2-elf/4.1.2/../../../../nios2-elf/lib/mno-hw-mul/libc.a(lib_a-strlen.o)
 .bss           0x0009cf70        0x0 /tools/altera/12.0/nios2eds/bin/gnu/H-i686-pc-linux-gnu/bin/../lib/gcc/nios2-elf/4.1.2/../../../../nios2-elf/lib/mno-hw-mul/libc.a(lib_a-vfprintf.o)
 .bss           0x0009cf70        0x0 /tools/altera/12.0/nios2eds/bin/gnu/H-i686-pc-linux-gnu/bin/../lib/gcc/nios2-elf/4.1.2/../../../../nios2-elf/lib/mno-hw-mul/libc.a(lib_a-wsetup.o)
 .bss           0x0009cf70        0x0 /tools/altera/12.0/nios2eds/bin/gnu/H-i686-pc-linux-gnu/bin/../lib/gcc/nios2-elf/4.1.2/../../../../nios2-elf/lib/mno-hw-mul/libc.a(lib_a-dtoa.o)
 .bss           0x0009cf70        0x0 /tools/altera/12.0/nios2eds/bin/gnu/H-i686-pc-linux-gnu/bin/../lib/gcc/nios2-elf/4.1.2/../../../../nios2-elf/lib/mno-hw-mul/libc.a(lib_a-fflush.o)
 .bss           0x0009cf70        0x0 /tools/altera/12.0/nios2eds/bin/gnu/H-i686-pc-linux-gnu/bin/../lib/gcc/nios2-elf/4.1.2/../../../../nios2-elf/lib/mno-hw-mul/libc.a(lib_a-findfp.o)
 .bss           0x0009cf70        0x0 /tools/altera/12.0/nios2eds/bin/gnu/H-i686-pc-linux-gnu/bin/../lib/gcc/nios2-elf/4.1.2/../../../../nios2-elf/lib/mno-hw-mul/libc.a(lib_a-freer.o)
 .bss           0x0009cf70        0x0 /tools/altera/12.0/nios2eds/bin/gnu/H-i686-pc-linux-gnu/bin/../lib/gcc/nios2-elf/4.1.2/../../../../nios2-elf/lib/mno-hw-mul/libc.a(lib_a-fvwrite.o)
 .bss           0x0009cf70        0x0 /tools/altera/12.0/nios2eds/bin/gnu/H-i686-pc-linux-gnu/bin/../lib/gcc/nios2-elf/4.1.2/../../../../nios2-elf/lib/mno-hw-mul/libc.a(lib_a-fwalk.o)
 .bss           0x0009cf70        0x0 /tools/altera/12.0/nios2eds/bin/gnu/H-i686-pc-linux-gnu/bin/../lib/gcc/nios2-elf/4.1.2/../../../../nios2-elf/lib/mno-hw-mul/libc.a(lib_a-locale.o)
 .bss           0x0009cf70        0x0 /tools/altera/12.0/nios2eds/bin/gnu/H-i686-pc-linux-gnu/bin/../lib/gcc/nios2-elf/4.1.2/../../../../nios2-elf/lib/mno-hw-mul/libc.a(lib_a-makebuf.o)
 .bss           0x0009cf70       0x28 /tools/altera/12.0/nios2eds/bin/gnu/H-i686-pc-linux-gnu/bin/../lib/gcc/nios2-elf/4.1.2/../../../../nios2-elf/lib/mno-hw-mul/libc.a(lib_a-mallocr.o)
                0x0009cf70                __malloc_current_mallinfo
 .bss           0x0009cf98        0x0 /tools/altera/12.0/nios2eds/bin/gnu/H-i686-pc-linux-gnu/bin/../lib/gcc/nios2-elf/4.1.2/../../../../nios2-elf/lib/mno-hw-mul/libc.a(lib_a-memchr.o)
 .bss           0x0009cf98        0x0 /tools/altera/12.0/nios2eds/bin/gnu/H-i686-pc-linux-gnu/bin/../lib/gcc/nios2-elf/4.1.2/../../../../nios2-elf/lib/mno-hw-mul/libc.a(lib_a-memcpy.o)
 .bss           0x0009cf98        0x0 /tools/altera/12.0/nios2eds/bin/gnu/H-i686-pc-linux-gnu/bin/../lib/gcc/nios2-elf/4.1.2/../../../../nios2-elf/lib/mno-hw-mul/libc.a(lib_a-memmove.o)
 .bss           0x0009cf98        0x0 /tools/altera/12.0/nios2eds/bin/gnu/H-i686-pc-linux-gnu/bin/../lib/gcc/nios2-elf/4.1.2/../../../../nios2-elf/lib/mno-hw-mul/libc.a(lib_a-memset.o)
 .bss           0x0009cf98        0x0 /tools/altera/12.0/nios2eds/bin/gnu/H-i686-pc-linux-gnu/bin/../lib/gcc/nios2-elf/4.1.2/../../../../nios2-elf/lib/mno-hw-mul/libc.a(lib_a-mprec.o)
 .bss           0x0009cf98        0x0 /tools/altera/12.0/nios2eds/bin/gnu/H-i686-pc-linux-gnu/bin/../lib/gcc/nios2-elf/4.1.2/../../../../nios2-elf/lib/mno-hw-mul/libc.a(lib_a-reallocr.o)
 .bss           0x0009cf98        0x0 /tools/altera/12.0/nios2eds/bin/gnu/H-i686-pc-linux-gnu/bin/../lib/gcc/nios2-elf/4.1.2/../../../../nios2-elf/lib/mno-hw-mul/libc.a(lib_a-s_isinfd.o)
 .bss           0x0009cf98        0x0 /tools/altera/12.0/nios2eds/bin/gnu/H-i686-pc-linux-gnu/bin/../lib/gcc/nios2-elf/4.1.2/../../../../nios2-elf/lib/mno-hw-mul/libc.a(lib_a-s_isnand.o)
 .bss           0x0009cf98        0x0 /tools/altera/12.0/nios2eds/bin/gnu/H-i686-pc-linux-gnu/bin/../lib/gcc/nios2-elf/4.1.2/../../../../nios2-elf/lib/mno-hw-mul/libc.a(lib_a-sbrkr.o)
 .bss           0x0009cf98        0x0 /tools/altera/12.0/nios2eds/bin/gnu/H-i686-pc-linux-gnu/bin/../lib/gcc/nios2-elf/4.1.2/../../../../nios2-elf/lib/mno-hw-mul/libc.a(lib_a-stdio.o)
 .bss           0x0009cf98        0x0 /tools/altera/12.0/nios2eds/bin/gnu/H-i686-pc-linux-gnu/bin/../lib/gcc/nios2-elf/4.1.2/../../../../nios2-elf/lib/mno-hw-mul/libc.a(lib_a-strcmp.o)
 .bss           0x0009cf98        0x0 /tools/altera/12.0/nios2eds/bin/gnu/H-i686-pc-linux-gnu/bin/../lib/gcc/nios2-elf/4.1.2/../../../../nios2-elf/lib/mno-hw-mul/libc.a(lib_a-writer.o)
 .bss           0x0009cf98        0x0 /tools/altera/12.0/nios2eds/bin/gnu/H-i686-pc-linux-gnu/bin/../lib/gcc/nios2-elf/4.1.2/../../../../nios2-elf/lib/mno-hw-mul/libc.a(lib_a-callocr.o)
 .bss           0x0009cf98        0x0 /tools/altera/12.0/nios2eds/bin/gnu/H-i686-pc-linux-gnu/bin/../lib/gcc/nios2-elf/4.1.2/../../../../nios2-elf/lib/mno-hw-mul/libc.a(lib_a-closer.o)
 .bss           0x0009cf98        0x0 /tools/altera/12.0/nios2eds/bin/gnu/H-i686-pc-linux-gnu/bin/../lib/gcc/nios2-elf/4.1.2/../../../../nios2-elf/lib/mno-hw-mul/libc.a(lib_a-fclose.o)
 .bss           0x0009cf98        0x0 /tools/altera/12.0/nios2eds/bin/gnu/H-i686-pc-linux-gnu/bin/../lib/gcc/nios2-elf/4.1.2/../../../../nios2-elf/lib/mno-hw-mul/libc.a(lib_a-fstatr.o)
 .bss           0x0009cf98        0x0 /tools/altera/12.0/nios2eds/bin/gnu/H-i686-pc-linux-gnu/bin/../lib/gcc/nios2-elf/4.1.2/../../../../nios2-elf/lib/mno-hw-mul/libc.a(lib_a-int_errno.o)
 .bss           0x0009cf98        0x0 /tools/altera/12.0/nios2eds/bin/gnu/H-i686-pc-linux-gnu/bin/../lib/gcc/nios2-elf/4.1.2/../../../../nios2-elf/lib/mno-hw-mul/libc.a(lib_a-isattyr.o)
 .bss           0x0009cf98        0x0 /tools/altera/12.0/nios2eds/bin/gnu/H-i686-pc-linux-gnu/bin/../lib/gcc/nios2-elf/4.1.2/../../../../nios2-elf/lib/mno-hw-mul/libc.a(lib_a-lseekr.o)
 .bss           0x0009cf98        0x0 /tools/altera/12.0/nios2eds/bin/gnu/H-i686-pc-linux-gnu/bin/../lib/gcc/nios2-elf/4.1.2/../../../../nios2-elf/lib/mno-hw-mul/libc.a(lib_a-readr.o)
 .bss           0x0009cf98        0x0 /tools/altera/12.0/nios2eds/bin/gnu/H-i686-pc-linux-gnu/bin/../lib/gcc/nios2-elf/4.1.2/mno-hw-mul/libgcc.a(_muldi3.o)
 .bss           0x0009cf98        0x0 /tools/altera/12.0/nios2eds/bin/gnu/H-i686-pc-linux-gnu/bin/../lib/gcc/nios2-elf/4.1.2/mno-hw-mul/libgcc.a(_udivdi3.o)
 .bss           0x0009cf98        0x0 /tools/altera/12.0/nios2eds/bin/gnu/H-i686-pc-linux-gnu/bin/../lib/gcc/nios2-elf/4.1.2/mno-hw-mul/libgcc.a(_umoddi3.o)
 .bss           0x0009cf98        0x0 /tools/altera/12.0/nios2eds/bin/gnu/H-i686-pc-linux-gnu/bin/../lib/gcc/nios2-elf/4.1.2/mno-hw-mul/libgcc.a(_addsub_df.o)
 .bss           0x0009cf98        0x0 /tools/altera/12.0/nios2eds/bin/gnu/H-i686-pc-linux-gnu/bin/../lib/gcc/nios2-elf/4.1.2/mno-hw-mul/libgcc.a(_mul_df.o)
 .bss           0x0009cf98        0x0 /tools/altera/12.0/nios2eds/bin/gnu/H-i686-pc-linux-gnu/bin/../lib/gcc/nios2-elf/4.1.2/mno-hw-mul/libgcc.a(_div_df.o)
 .bss           0x0009cf98        0x0 /tools/altera/12.0/nios2eds/bin/gnu/H-i686-pc-linux-gnu/bin/../lib/gcc/nios2-elf/4.1.2/mno-hw-mul/libgcc.a(_eq_df.o)
 .bss           0x0009cf98        0x0 /tools/altera/12.0/nios2eds/bin/gnu/H-i686-pc-linux-gnu/bin/../lib/gcc/nios2-elf/4.1.2/mno-hw-mul/libgcc.a(_ne_df.o)
 .bss           0x0009cf98        0x0 /tools/altera/12.0/nios2eds/bin/gnu/H-i686-pc-linux-gnu/bin/../lib/gcc/nios2-elf/4.1.2/mno-hw-mul/libgcc.a(_gt_df.o)
 .bss           0x0009cf98        0x0 /tools/altera/12.0/nios2eds/bin/gnu/H-i686-pc-linux-gnu/bin/../lib/gcc/nios2-elf/4.1.2/mno-hw-mul/libgcc.a(_ge_df.o)
 .bss           0x0009cf98        0x0 /tools/altera/12.0/nios2eds/bin/gnu/H-i686-pc-linux-gnu/bin/../lib/gcc/nios2-elf/4.1.2/mno-hw-mul/libgcc.a(_lt_df.o)
 .bss           0x0009cf98        0x0 /tools/altera/12.0/nios2eds/bin/gnu/H-i686-pc-linux-gnu/bin/../lib/gcc/nios2-elf/4.1.2/mno-hw-mul/libgcc.a(_si_to_df.o)
 .bss           0x0009cf98        0x0 /tools/altera/12.0/nios2eds/bin/gnu/H-i686-pc-linux-gnu/bin/../lib/gcc/nios2-elf/4.1.2/mno-hw-mul/libgcc.a(_df_to_si.o)
 .bss           0x0009cf98        0x0 /tools/altera/12.0/nios2eds/bin/gnu/H-i686-pc-linux-gnu/bin/../lib/gcc/nios2-elf/4.1.2/mno-hw-mul/libgcc.a(_thenan_df.o)
 .bss           0x0009cf98        0x0 /tools/altera/12.0/nios2eds/bin/gnu/H-i686-pc-linux-gnu/bin/../lib/gcc/nios2-elf/4.1.2/mno-hw-mul/libgcc.a(_usi_to_df.o)
 .bss           0x0009cf98        0x0 /tools/altera/12.0/nios2eds/bin/gnu/H-i686-pc-linux-gnu/bin/../lib/gcc/nios2-elf/4.1.2/mno-hw-mul/libgcc.a(_clz.o)
 .bss           0x0009cf98        0x0 /tools/altera/12.0/nios2eds/bin/gnu/H-i686-pc-linux-gnu/bin/../lib/gcc/nios2-elf/4.1.2/mno-hw-mul/libgcc.a(_clzsi2.o)
 .bss           0x0009cf98        0x0 /tools/altera/12.0/nios2eds/bin/gnu/H-i686-pc-linux-gnu/bin/../lib/gcc/nios2-elf/4.1.2/mno-hw-mul/libgcc.a(_pack_df.o)
 .bss           0x0009cf98        0x0 /tools/altera/12.0/nios2eds/bin/gnu/H-i686-pc-linux-gnu/bin/../lib/gcc/nios2-elf/4.1.2/mno-hw-mul/libgcc.a(_unpack_df.o)
 .bss           0x0009cf98        0x0 /tools/altera/12.0/nios2eds/bin/gnu/H-i686-pc-linux-gnu/bin/../lib/gcc/nios2-elf/4.1.2/mno-hw-mul/libgcc.a(_fpcmp_parts_df.o)
 .bss           0x0009cf98        0x0 ../experiment2_bsp//libucosii_bsp.a(alt_close.o)
 .bss           0x0009cf98        0x0 ../experiment2_bsp//libucosii_bsp.a(alt_dev.o)
 .bss           0x0009cf98        0x0 ../experiment2_bsp//libucosii_bsp.a(alt_errno.o)
 .bss           0x0009cf98        0x0 ../experiment2_bsp//libucosii_bsp.a(alt_fstat.o)
 .bss           0x0009cf98        0x0 ../experiment2_bsp//libucosii_bsp.a(alt_irq_register.o)
 .bss           0x0009cf98        0x0 ../experiment2_bsp//libucosii_bsp.a(alt_irq_vars.o)
 .bss           0x0009cf98        0x0 ../experiment2_bsp//libucosii_bsp.a(alt_isatty.o)
 .bss           0x0009cf98        0x0 ../experiment2_bsp//libucosii_bsp.a(alt_load.o)
 .bss           0x0009cf98        0x0 ../experiment2_bsp//libucosii_bsp.a(alt_lseek.o)
 .bss           0x0009cf98        0x0 ../experiment2_bsp//libucosii_bsp.a(alt_main.o)
 .bss           0x0009cf98        0x0 ../experiment2_bsp//libucosii_bsp.a(alt_printf.o)
 .bss           0x0009cf98        0x0 ../experiment2_bsp//libucosii_bsp.a(alt_putchar.o)
 .bss           0x0009cf98        0x0 ../experiment2_bsp//libucosii_bsp.a(alt_read.o)
 .bss           0x0009cf98        0x0 ../experiment2_bsp//libucosii_bsp.a(alt_release_fd.o)
 .bss           0x0009cf98        0x0 ../experiment2_bsp//libucosii_bsp.a(alt_sbrk.o)
 .bss           0x0009cf98        0x0 ../experiment2_bsp//libucosii_bsp.a(alt_write.o)
 .bss           0x0009cf98        0x0 ../experiment2_bsp//libucosii_bsp.a(alt_env_lock.o)
 .bss           0x0009cf98        0x0 ../experiment2_bsp//libucosii_bsp.a(alt_malloc_lock.o)
 .bss           0x0009cf98        0x0 ../experiment2_bsp//libucosii_bsp.a(os_core.o)
 .bss           0x0009cf98        0x0 ../experiment2_bsp//libucosii_bsp.a(os_dbg.o)
 .bss           0x0009cf98        0x0 ../experiment2_bsp//libucosii_bsp.a(os_flag.o)
 .bss           0x0009cf98        0x0 ../experiment2_bsp//libucosii_bsp.a(os_mem.o)
 .bss           0x0009cf98        0x0 ../experiment2_bsp//libucosii_bsp.a(os_q.o)
 .bss           0x0009cf98        0x0 ../experiment2_bsp//libucosii_bsp.a(os_sem.o)
 .bss           0x0009cf98        0x0 ../experiment2_bsp//libucosii_bsp.a(os_task.o)
 .bss           0x0009cf98        0x0 ../experiment2_bsp//libucosii_bsp.a(os_time.o)
 .bss           0x0009cf98        0x0 ../experiment2_bsp//libucosii_bsp.a(alt_sys_init.o)
 .bss           0x0009cf98        0x0 ../experiment2_bsp//libucosii_bsp.a(altera_avalon_jtag_uart_fd.o)
 .bss           0x0009cf98        0x0 ../experiment2_bsp//libucosii_bsp.a(altera_avalon_jtag_uart_init.o)
 .bss           0x0009cf98        0x0 ../experiment2_bsp//libucosii_bsp.a(altera_avalon_jtag_uart_ioctl.o)
 .bss           0x0009cf98        0x0 ../experiment2_bsp//libucosii_bsp.a(altera_avalon_jtag_uart_read.o)
 .bss           0x0009cf98        0x0 ../experiment2_bsp//libucosii_bsp.a(altera_avalon_jtag_uart_write.o)
 .bss           0x0009cf98        0x0 ../experiment2_bsp//libucosii_bsp.a(altera_avalon_timer_sc.o)
 .bss           0x0009cf98        0x0 ../experiment2_bsp//libucosii_bsp.a(altera_up_avalon_character_lcd.o)
 .bss           0x0009cf98        0x0 ../experiment2_bsp//libucosii_bsp.a(alt_alarm_start.o)
 .bss           0x0009cf98        0x0 ../experiment2_bsp//libucosii_bsp.a(alt_dcache_flush_all.o)
 .bss           0x0009cf98        0x0 ../experiment2_bsp//libucosii_bsp.a(alt_dev_llist_insert.o)
 .bss           0x0009cf98        0x0 ../experiment2_bsp//libucosii_bsp.a(alt_do_ctors.o)
 .bss           0x0009cf98        0x0 ../experiment2_bsp//libucosii_bsp.a(alt_do_dtors.o)
 .bss           0x0009cf98        0x0 ../experiment2_bsp//libucosii_bsp.a(alt_find_dev.o)
 .bss           0x0009cf98        0x0 ../experiment2_bsp//libucosii_bsp.a(alt_icache_flush_all.o)
 .bss           0x0009cf98        0x0 ../experiment2_bsp//libucosii_bsp.a(alt_iic.o)
 .bss           0x0009cf98        0x0 ../experiment2_bsp//libucosii_bsp.a(alt_iic_isr_register.o)
 .bss           0x0009cf98        0x0 ../experiment2_bsp//libucosii_bsp.a(alt_io_redirect.o)
 .bss           0x0009cf98        0x0 ../experiment2_bsp//libucosii_bsp.a(alt_irq_entry.o)
 .bss           0x0009cf98        0x0 ../experiment2_bsp//libucosii_bsp.a(alt_irq_handler.o)
 .bss           0x0009cf98        0x0 ../experiment2_bsp//libucosii_bsp.a(alt_open.o)
 .bss           0x0009cf98        0x0 ../experiment2_bsp//libucosii_bsp.a(alt_tick.o)
 .bss           0x0009cf98        0x0 ../experiment2_bsp//libucosii_bsp.a(altera_nios2_qsys_irq.o)
 .bss           0x0009cf98        0x0 ../experiment2_bsp//libucosii_bsp.a(os_cpu_a.o)
 .bss           0x0009cf98        0x0 ../experiment2_bsp//libucosii_bsp.a(os_cpu_c.o)
 .bss           0x0009cf98        0x0 ../experiment2_bsp//libucosii_bsp.a(alt_exception_entry.o)
 .bss           0x0009cf98        0x0 ../experiment2_bsp//libucosii_bsp.a(alt_find_file.o)
 .bss           0x0009cf98        0x0 ../experiment2_bsp//libucosii_bsp.a(alt_get_fd.o)
 .bss           0x0009cf98        0x0 /tools/altera/12.0/nios2eds/bin/gnu/H-i686-pc-linux-gnu/bin/../lib/gcc/nios2-elf/4.1.2/../../../../nios2-elf/lib/mno-hw-mul/libc.a(lib_a-atexit.o)
 .bss           0x0009cf98        0x0 /tools/altera/12.0/nios2eds/bin/gnu/H-i686-pc-linux-gnu/bin/../lib/gcc/nios2-elf/4.1.2/../../../../nios2-elf/lib/mno-hw-mul/libc.a(lib_a-exit.o)
 .bss           0x0009cf98        0x0 /tools/altera/12.0/nios2eds/bin/gnu/H-i686-pc-linux-gnu/bin/../lib/gcc/nios2-elf/4.1.2/../../../../nios2-elf/lib/mno-hw-mul/libc.a(lib_a-memcmp.o)
 .bss           0x0009cf98        0x0 /tools/altera/12.0/nios2eds/bin/gnu/H-i686-pc-linux-gnu/bin/../lib/gcc/nios2-elf/4.1.2/../../../../nios2-elf/lib/mno-hw-mul/libc.a(lib_a-putc.o)
 .bss           0x0009cf98        0x0 /tools/altera/12.0/nios2eds/bin/gnu/H-i686-pc-linux-gnu/bin/../lib/gcc/nios2-elf/4.1.2/../../../../nios2-elf/lib/mno-hw-mul/libc.a(lib_a-wbuf.o)
 .bss           0x0009cf98        0x0 /tools/altera/12.0/nios2eds/bin/gnu/H-i686-pc-linux-gnu/bin/../lib/gcc/nios2-elf/4.1.2/../../../../nios2-elf/lib/mno-hw-mul/libc.a(lib_a-__atexit.o)
 .bss           0x0009cf98        0x0 /tools/altera/12.0/nios2eds/bin/gnu/H-i686-pc-linux-gnu/bin/../lib/gcc/nios2-elf/4.1.2/../../../../nios2-elf/lib/mno-hw-mul/libc.a(lib_a-__call_atexit.o)
 .bss           0x0009cf98        0x0 ../experiment2_bsp//libucosii_bsp.a(alt_exit.o)
 *(COMMON)
 COMMON         0x0009cf98     0xc22c obj/default/tasks.o
                0x0009cf98                custom_scheduler_stk
                0x0009ef98                periodic_task_stk
                0x000a6f98                PBSemaphore
                0x000a6fa8                custom_scheduler_tcb
                0x000a7014                periodic_task_tcb
                0x000a71c4                initialize_task_stk
 COMMON         0x000a91c4     0x3224 ../experiment2_bsp//libucosii_bsp.a(os_core.o)
                0x000a91c4                OSFlagTbl
                0x000a9534                OSMemTbl
                0x000aa164                OSTaskStatStk
                0x000aa964                OSQTbl
                0x000aab44                OSTaskIdleStk
                0x000ab344                OSEventTbl
                0x000abe84                OSTCBTbl
                0x000ac394                OSTCBPrioTbl
 COMMON         0x000ac3e8      0x100 ../experiment2_bsp//libucosii_bsp.a(alt_irq_handler.o)
                0x000ac3e8                alt_irq
 COMMON         0x000ac4e8      0x190 /tools/altera/12.0/nios2eds/bin/gnu/H-i686-pc-linux-gnu/bin/../lib/gcc/nios2-elf/4.1.2/../../../../nios2-elf/lib/mno-hw-mul/libc.a(lib_a-atexit.o)
                0x000ac4e8                _atexit0
                0x000ac678                . = ALIGN (0x4)
                0x000ac678                __bss_end = ABSOLUTE (.)

.sram_0         0x000ac678        0x0
                0x000ac678                PROVIDE (_alt_partition_sram_0_start, ABSOLUTE (.))
 *(.sram_0. sram_0.*)
                0x000ac678                . = ALIGN (0x4)
                0x000ac678                PROVIDE (_alt_partition_sram_0_end, ABSOLUTE (.))
                0x000ac678                _end = ABSOLUTE (.)
                0x000ac678                end = ABSOLUTE (.)
                0x000ac678                __alt_stack_base = ABSOLUTE (.)
                0x000ac678                PROVIDE (_alt_partition_sram_0_load_addr, LOADADDR (.sram_0))

.stab
 *(.stab)

.stabstr
 *(.stabstr)

.stab.excl
 *(.stab.excl)

.stab.exclstr
 *(.stab.exclstr)

.stab.index
 *(.stab.index)

.stab.indexstr
 *(.stab.indexstr)

.comment        0x00000000       0x23
 *(.comment)
 .comment       0x00000000       0x23 obj/default/PB_button.o
                                 0x24 (size before relaxing)
 .comment       0x00000000       0x24 obj/default/alt_ucosii_simple_error_check.o
 .comment       0x00000000       0x24 obj/default/experiment2.o
 .comment       0x00000000       0x24 obj/default/tasks.o
 .comment       0x00000000       0x24 /tools/altera/12.0/nios2eds/bin/gnu/H-i686-pc-linux-gnu/bin/../lib/gcc/nios2-elf/4.1.2/mno-hw-mul/libgcc.a(lib2-divmod.o)
 .comment       0x00000000       0x24 /tools/altera/12.0/nios2eds/bin/gnu/H-i686-pc-linux-gnu/bin/../lib/gcc/nios2-elf/4.1.2/mno-hw-mul/libgcc.a(lib2-mul.o)
 .comment       0x00000000       0x24 /tools/altera/12.0/nios2eds/bin/gnu/H-i686-pc-linux-gnu/bin/../lib/gcc/nios2-elf/4.1.2/../../../../nios2-elf/lib/mno-hw-mul/libc.a(lib_a-fprintf.o)
 .comment       0x00000000       0x24 /tools/altera/12.0/nios2eds/bin/gnu/H-i686-pc-linux-gnu/bin/../lib/gcc/nios2-elf/4.1.2/../../../../nios2-elf/lib/mno-hw-mul/libc.a(lib_a-fwrite.o)
 .comment       0x00000000       0x24 /tools/altera/12.0/nios2eds/bin/gnu/H-i686-pc-linux-gnu/bin/../lib/gcc/nios2-elf/4.1.2/../../../../nios2-elf/lib/mno-hw-mul/libc.a(lib_a-impure.o)
 .comment       0x00000000       0x24 /tools/altera/12.0/nios2eds/bin/gnu/H-i686-pc-linux-gnu/bin/../lib/gcc/nios2-elf/4.1.2/../../../../nios2-elf/lib/mno-hw-mul/libc.a(lib_a-printf.o)
 .comment       0x00000000       0x24 /tools/altera/12.0/nios2eds/bin/gnu/H-i686-pc-linux-gnu/bin/../lib/gcc/nios2-elf/4.1.2/../../../../nios2-elf/lib/mno-hw-mul/libc.a(lib_a-puts.o)
 .comment       0x00000000       0x24 /tools/altera/12.0/nios2eds/bin/gnu/H-i686-pc-linux-gnu/bin/../lib/gcc/nios2-elf/4.1.2/../../../../nios2-elf/lib/mno-hw-mul/libc.a(lib_a-rand.o)
 .comment       0x00000000       0x24 /tools/altera/12.0/nios2eds/bin/gnu/H-i686-pc-linux-gnu/bin/../lib/gcc/nios2-elf/4.1.2/../../../../nios2-elf/lib/mno-hw-mul/libc.a(lib_a-strlen.o)
 .comment       0x00000000       0x24 /tools/altera/12.0/nios2eds/bin/gnu/H-i686-pc-linux-gnu/bin/../lib/gcc/nios2-elf/4.1.2/../../../../nios2-elf/lib/mno-hw-mul/libc.a(lib_a-vfprintf.o)
 .comment       0x00000000       0x24 /tools/altera/12.0/nios2eds/bin/gnu/H-i686-pc-linux-gnu/bin/../lib/gcc/nios2-elf/4.1.2/../../../../nios2-elf/lib/mno-hw-mul/libc.a(lib_a-wsetup.o)
 .comment       0x00000000       0x24 /tools/altera/12.0/nios2eds/bin/gnu/H-i686-pc-linux-gnu/bin/../lib/gcc/nios2-elf/4.1.2/../../../../nios2-elf/lib/mno-hw-mul/libc.a(lib_a-dtoa.o)
 .comment       0x00000000       0x24 /tools/altera/12.0/nios2eds/bin/gnu/H-i686-pc-linux-gnu/bin/../lib/gcc/nios2-elf/4.1.2/../../../../nios2-elf/lib/mno-hw-mul/libc.a(lib_a-fflush.o)
 .comment       0x00000000       0x24 /tools/altera/12.0/nios2eds/bin/gnu/H-i686-pc-linux-gnu/bin/../lib/gcc/nios2-elf/4.1.2/../../../../nios2-elf/lib/mno-hw-mul/libc.a(lib_a-findfp.o)
 .comment       0x00000000       0x24 /tools/altera/12.0/nios2eds/bin/gnu/H-i686-pc-linux-gnu/bin/../lib/gcc/nios2-elf/4.1.2/../../../../nios2-elf/lib/mno-hw-mul/libc.a(lib_a-freer.o)
 .comment       0x00000000       0x24 /tools/altera/12.0/nios2eds/bin/gnu/H-i686-pc-linux-gnu/bin/../lib/gcc/nios2-elf/4.1.2/../../../../nios2-elf/lib/mno-hw-mul/libc.a(lib_a-fvwrite.o)
 .comment       0x00000000       0x24 /tools/altera/12.0/nios2eds/bin/gnu/H-i686-pc-linux-gnu/bin/../lib/gcc/nios2-elf/4.1.2/../../../../nios2-elf/lib/mno-hw-mul/libc.a(lib_a-fwalk.o)
 .comment       0x00000000       0x24 /tools/altera/12.0/nios2eds/bin/gnu/H-i686-pc-linux-gnu/bin/../lib/gcc/nios2-elf/4.1.2/../../../../nios2-elf/lib/mno-hw-mul/libc.a(lib_a-locale.o)
 .comment       0x00000000       0x24 /tools/altera/12.0/nios2eds/bin/gnu/H-i686-pc-linux-gnu/bin/../lib/gcc/nios2-elf/4.1.2/../../../../nios2-elf/lib/mno-hw-mul/libc.a(lib_a-makebuf.o)
 .comment       0x00000000       0x24 /tools/altera/12.0/nios2eds/bin/gnu/H-i686-pc-linux-gnu/bin/../lib/gcc/nios2-elf/4.1.2/../../../../nios2-elf/lib/mno-hw-mul/libc.a(lib_a-mallocr.o)
 .comment       0x00000000       0x24 /tools/altera/12.0/nios2eds/bin/gnu/H-i686-pc-linux-gnu/bin/../lib/gcc/nios2-elf/4.1.2/../../../../nios2-elf/lib/mno-hw-mul/libc.a(lib_a-memchr.o)
 .comment       0x00000000       0x24 /tools/altera/12.0/nios2eds/bin/gnu/H-i686-pc-linux-gnu/bin/../lib/gcc/nios2-elf/4.1.2/../../../../nios2-elf/lib/mno-hw-mul/libc.a(lib_a-memcpy.o)
 .comment       0x00000000       0x24 /tools/altera/12.0/nios2eds/bin/gnu/H-i686-pc-linux-gnu/bin/../lib/gcc/nios2-elf/4.1.2/../../../../nios2-elf/lib/mno-hw-mul/libc.a(lib_a-memmove.o)
 .comment       0x00000000       0x24 /tools/altera/12.0/nios2eds/bin/gnu/H-i686-pc-linux-gnu/bin/../lib/gcc/nios2-elf/4.1.2/../../../../nios2-elf/lib/mno-hw-mul/libc.a(lib_a-memset.o)
 .comment       0x00000000       0x24 /tools/altera/12.0/nios2eds/bin/gnu/H-i686-pc-linux-gnu/bin/../lib/gcc/nios2-elf/4.1.2/../../../../nios2-elf/lib/mno-hw-mul/libc.a(lib_a-mprec.o)
 .comment       0x00000000       0x24 /tools/altera/12.0/nios2eds/bin/gnu/H-i686-pc-linux-gnu/bin/../lib/gcc/nios2-elf/4.1.2/../../../../nios2-elf/lib/mno-hw-mul/libc.a(lib_a-reallocr.o)
 .comment       0x00000000       0x24 /tools/altera/12.0/nios2eds/bin/gnu/H-i686-pc-linux-gnu/bin/../lib/gcc/nios2-elf/4.1.2/../../../../nios2-elf/lib/mno-hw-mul/libc.a(lib_a-s_isinfd.o)
 .comment       0x00000000       0x24 /tools/altera/12.0/nios2eds/bin/gnu/H-i686-pc-linux-gnu/bin/../lib/gcc/nios2-elf/4.1.2/../../../../nios2-elf/lib/mno-hw-mul/libc.a(lib_a-s_isnand.o)
 .comment       0x00000000       0x24 /tools/altera/12.0/nios2eds/bin/gnu/H-i686-pc-linux-gnu/bin/../lib/gcc/nios2-elf/4.1.2/../../../../nios2-elf/lib/mno-hw-mul/libc.a(lib_a-sbrkr.o)
 .comment       0x00000000       0x24 /tools/altera/12.0/nios2eds/bin/gnu/H-i686-pc-linux-gnu/bin/../lib/gcc/nios2-elf/4.1.2/../../../../nios2-elf/lib/mno-hw-mul/libc.a(lib_a-stdio.o)
 .comment       0x00000000       0x24 /tools/altera/12.0/nios2eds/bin/gnu/H-i686-pc-linux-gnu/bin/../lib/gcc/nios2-elf/4.1.2/../../../../nios2-elf/lib/mno-hw-mul/libc.a(lib_a-strcmp.o)
 .comment       0x00000000       0x24 /tools/altera/12.0/nios2eds/bin/gnu/H-i686-pc-linux-gnu/bin/../lib/gcc/nios2-elf/4.1.2/../../../../nios2-elf/lib/mno-hw-mul/libc.a(lib_a-writer.o)
 .comment       0x00000000       0x24 /tools/altera/12.0/nios2eds/bin/gnu/H-i686-pc-linux-gnu/bin/../lib/gcc/nios2-elf/4.1.2/../../../../nios2-elf/lib/mno-hw-mul/libc.a(lib_a-callocr.o)
 .comment       0x00000000       0x24 /tools/altera/12.0/nios2eds/bin/gnu/H-i686-pc-linux-gnu/bin/../lib/gcc/nios2-elf/4.1.2/../../../../nios2-elf/lib/mno-hw-mul/libc.a(lib_a-closer.o)
 .comment       0x00000000       0x24 /tools/altera/12.0/nios2eds/bin/gnu/H-i686-pc-linux-gnu/bin/../lib/gcc/nios2-elf/4.1.2/../../../../nios2-elf/lib/mno-hw-mul/libc.a(lib_a-fclose.o)
 .comment       0x00000000       0x24 /tools/altera/12.0/nios2eds/bin/gnu/H-i686-pc-linux-gnu/bin/../lib/gcc/nios2-elf/4.1.2/../../../../nios2-elf/lib/mno-hw-mul/libc.a(lib_a-fstatr.o)
 .comment       0x00000000       0x24 /tools/altera/12.0/nios2eds/bin/gnu/H-i686-pc-linux-gnu/bin/../lib/gcc/nios2-elf/4.1.2/../../../../nios2-elf/lib/mno-hw-mul/libc.a(lib_a-int_errno.o)
 .comment       0x00000000       0x24 /tools/altera/12.0/nios2eds/bin/gnu/H-i686-pc-linux-gnu/bin/../lib/gcc/nios2-elf/4.1.2/../../../../nios2-elf/lib/mno-hw-mul/libc.a(lib_a-isattyr.o)
 .comment       0x00000000       0x24 /tools/altera/12.0/nios2eds/bin/gnu/H-i686-pc-linux-gnu/bin/../lib/gcc/nios2-elf/4.1.2/../../../../nios2-elf/lib/mno-hw-mul/libc.a(lib_a-lseekr.o)
 .comment       0x00000000       0x24 /tools/altera/12.0/nios2eds/bin/gnu/H-i686-pc-linux-gnu/bin/../lib/gcc/nios2-elf/4.1.2/../../../../nios2-elf/lib/mno-hw-mul/libc.a(lib_a-readr.o)
 .comment       0x00000000       0x24 /tools/altera/12.0/nios2eds/bin/gnu/H-i686-pc-linux-gnu/bin/../lib/gcc/nios2-elf/4.1.2/mno-hw-mul/libgcc.a(_muldi3.o)
 .comment       0x00000000       0x24 /tools/altera/12.0/nios2eds/bin/gnu/H-i686-pc-linux-gnu/bin/../lib/gcc/nios2-elf/4.1.2/mno-hw-mul/libgcc.a(_udivdi3.o)
 .comment       0x00000000       0x24 /tools/altera/12.0/nios2eds/bin/gnu/H-i686-pc-linux-gnu/bin/../lib/gcc/nios2-elf/4.1.2/mno-hw-mul/libgcc.a(_umoddi3.o)
 .comment       0x00000000       0x24 /tools/altera/12.0/nios2eds/bin/gnu/H-i686-pc-linux-gnu/bin/../lib/gcc/nios2-elf/4.1.2/mno-hw-mul/libgcc.a(_addsub_df.o)
 .comment       0x00000000       0x24 /tools/altera/12.0/nios2eds/bin/gnu/H-i686-pc-linux-gnu/bin/../lib/gcc/nios2-elf/4.1.2/mno-hw-mul/libgcc.a(_mul_df.o)
 .comment       0x00000000       0x24 /tools/altera/12.0/nios2eds/bin/gnu/H-i686-pc-linux-gnu/bin/../lib/gcc/nios2-elf/4.1.2/mno-hw-mul/libgcc.a(_div_df.o)
 .comment       0x00000000       0x24 /tools/altera/12.0/nios2eds/bin/gnu/H-i686-pc-linux-gnu/bin/../lib/gcc/nios2-elf/4.1.2/mno-hw-mul/libgcc.a(_eq_df.o)
 .comment       0x00000000       0x24 /tools/altera/12.0/nios2eds/bin/gnu/H-i686-pc-linux-gnu/bin/../lib/gcc/nios2-elf/4.1.2/mno-hw-mul/libgcc.a(_ne_df.o)
 .comment       0x00000000       0x24 /tools/altera/12.0/nios2eds/bin/gnu/H-i686-pc-linux-gnu/bin/../lib/gcc/nios2-elf/4.1.2/mno-hw-mul/libgcc.a(_gt_df.o)
 .comment       0x00000000       0x24 /tools/altera/12.0/nios2eds/bin/gnu/H-i686-pc-linux-gnu/bin/../lib/gcc/nios2-elf/4.1.2/mno-hw-mul/libgcc.a(_ge_df.o)
 .comment       0x00000000       0x24 /tools/altera/12.0/nios2eds/bin/gnu/H-i686-pc-linux-gnu/bin/../lib/gcc/nios2-elf/4.1.2/mno-hw-mul/libgcc.a(_lt_df.o)
 .comment       0x00000000       0x24 /tools/altera/12.0/nios2eds/bin/gnu/H-i686-pc-linux-gnu/bin/../lib/gcc/nios2-elf/4.1.2/mno-hw-mul/libgcc.a(_si_to_df.o)
 .comment       0x00000000       0x24 /tools/altera/12.0/nios2eds/bin/gnu/H-i686-pc-linux-gnu/bin/../lib/gcc/nios2-elf/4.1.2/mno-hw-mul/libgcc.a(_df_to_si.o)
 .comment       0x00000000       0x24 /tools/altera/12.0/nios2eds/bin/gnu/H-i686-pc-linux-gnu/bin/../lib/gcc/nios2-elf/4.1.2/mno-hw-mul/libgcc.a(_thenan_df.o)
 .comment       0x00000000       0x24 /tools/altera/12.0/nios2eds/bin/gnu/H-i686-pc-linux-gnu/bin/../lib/gcc/nios2-elf/4.1.2/mno-hw-mul/libgcc.a(_usi_to_df.o)
 .comment       0x00000000       0x24 /tools/altera/12.0/nios2eds/bin/gnu/H-i686-pc-linux-gnu/bin/../lib/gcc/nios2-elf/4.1.2/mno-hw-mul/libgcc.a(_clz.o)
 .comment       0x00000000       0x24 /tools/altera/12.0/nios2eds/bin/gnu/H-i686-pc-linux-gnu/bin/../lib/gcc/nios2-elf/4.1.2/mno-hw-mul/libgcc.a(_clzsi2.o)
 .comment       0x00000000       0x24 /tools/altera/12.0/nios2eds/bin/gnu/H-i686-pc-linux-gnu/bin/../lib/gcc/nios2-elf/4.1.2/mno-hw-mul/libgcc.a(_pack_df.o)
 .comment       0x00000000       0x24 /tools/altera/12.0/nios2eds/bin/gnu/H-i686-pc-linux-gnu/bin/../lib/gcc/nios2-elf/4.1.2/mno-hw-mul/libgcc.a(_unpack_df.o)
 .comment       0x00000000       0x24 /tools/altera/12.0/nios2eds/bin/gnu/H-i686-pc-linux-gnu/bin/../lib/gcc/nios2-elf/4.1.2/mno-hw-mul/libgcc.a(_fpcmp_parts_df.o)
 .comment       0x00000000       0x24 ../experiment2_bsp//libucosii_bsp.a(alt_close.o)
 .comment       0x00000000       0x24 ../experiment2_bsp//libucosii_bsp.a(alt_dev.o)
 .comment       0x00000000       0x24 ../experiment2_bsp//libucosii_bsp.a(alt_errno.o)
 .comment       0x00000000       0x24 ../experiment2_bsp//libucosii_bsp.a(alt_fstat.o)
 .comment       0x00000000       0x24 ../experiment2_bsp//libucosii_bsp.a(alt_irq_register.o)
 .comment       0x00000000       0x24 ../experiment2_bsp//libucosii_bsp.a(alt_irq_vars.o)
 .comment       0x00000000       0x24 ../experiment2_bsp//libucosii_bsp.a(alt_isatty.o)
 .comment       0x00000000       0x24 ../experiment2_bsp//libucosii_bsp.a(alt_load.o)
 .comment       0x00000000       0x24 ../experiment2_bsp//libucosii_bsp.a(alt_lseek.o)
 .comment       0x00000000       0x24 ../experiment2_bsp//libucosii_bsp.a(alt_main.o)
 .comment       0x00000000       0x24 ../experiment2_bsp//libucosii_bsp.a(alt_printf.o)
 .comment       0x00000000       0x24 ../experiment2_bsp//libucosii_bsp.a(alt_putchar.o)
 .comment       0x00000000       0x24 ../experiment2_bsp//libucosii_bsp.a(alt_read.o)
 .comment       0x00000000       0x24 ../experiment2_bsp//libucosii_bsp.a(alt_release_fd.o)
 .comment       0x00000000       0x24 ../experiment2_bsp//libucosii_bsp.a(alt_sbrk.o)
 .comment       0x00000000       0x24 ../experiment2_bsp//libucosii_bsp.a(alt_write.o)
 .comment       0x00000000       0x24 ../experiment2_bsp//libucosii_bsp.a(alt_env_lock.o)
 .comment       0x00000000       0x24 ../experiment2_bsp//libucosii_bsp.a(alt_malloc_lock.o)
 .comment       0x00000000       0x24 ../experiment2_bsp//libucosii_bsp.a(os_core.o)
 .comment       0x00000000       0x24 ../experiment2_bsp//libucosii_bsp.a(os_dbg.o)
 .comment       0x00000000       0x24 ../experiment2_bsp//libucosii_bsp.a(os_flag.o)
 .comment       0x00000000       0x24 ../experiment2_bsp//libucosii_bsp.a(os_mem.o)
 .comment       0x00000000       0x24 ../experiment2_bsp//libucosii_bsp.a(os_q.o)
 .comment       0x00000000       0x24 ../experiment2_bsp//libucosii_bsp.a(os_sem.o)
 .comment       0x00000000       0x24 ../experiment2_bsp//libucosii_bsp.a(os_task.o)
 .comment       0x00000000       0x24 ../experiment2_bsp//libucosii_bsp.a(os_time.o)
 .comment       0x00000000       0x24 ../experiment2_bsp//libucosii_bsp.a(alt_sys_init.o)
 .comment       0x00000000       0x24 ../experiment2_bsp//libucosii_bsp.a(altera_avalon_jtag_uart_fd.o)
 .comment       0x00000000       0x24 ../experiment2_bsp//libucosii_bsp.a(altera_avalon_jtag_uart_init.o)
 .comment       0x00000000       0x24 ../experiment2_bsp//libucosii_bsp.a(altera_avalon_jtag_uart_ioctl.o)
 .comment       0x00000000       0x24 ../experiment2_bsp//libucosii_bsp.a(altera_avalon_jtag_uart_read.o)
 .comment       0x00000000       0x24 ../experiment2_bsp//libucosii_bsp.a(altera_avalon_jtag_uart_write.o)
 .comment       0x00000000       0x24 ../experiment2_bsp//libucosii_bsp.a(altera_avalon_timer_sc.o)
 .comment       0x00000000       0x24 ../experiment2_bsp//libucosii_bsp.a(altera_up_avalon_character_lcd.o)
 .comment       0x00000000       0x24 ../experiment2_bsp//libucosii_bsp.a(alt_alarm_start.o)
 .comment       0x00000000       0x24 ../experiment2_bsp//libucosii_bsp.a(alt_dcache_flush_all.o)
 .comment       0x00000000       0x24 ../experiment2_bsp//libucosii_bsp.a(alt_dev_llist_insert.o)
 .comment       0x00000000       0x24 ../experiment2_bsp//libucosii_bsp.a(alt_do_ctors.o)
 .comment       0x00000000       0x24 ../experiment2_bsp//libucosii_bsp.a(alt_do_dtors.o)
 .comment       0x00000000       0x24 ../experiment2_bsp//libucosii_bsp.a(alt_find_dev.o)
 .comment       0x00000000       0x24 ../experiment2_bsp//libucosii_bsp.a(alt_icache_flush_all.o)
 .comment       0x00000000       0x24 ../experiment2_bsp//libucosii_bsp.a(alt_iic.o)
 .comment       0x00000000       0x24 ../experiment2_bsp//libucosii_bsp.a(alt_iic_isr_register.o)
 .comment       0x00000000       0x24 ../experiment2_bsp//libucosii_bsp.a(alt_io_redirect.o)
 .comment       0x00000000       0x24 ../experiment2_bsp//libucosii_bsp.a(alt_irq_handler.o)
 .comment       0x00000000       0x24 ../experiment2_bsp//libucosii_bsp.a(alt_open.o)
 .comment       0x00000000       0x24 ../experiment2_bsp//libucosii_bsp.a(alt_tick.o)
 .comment       0x00000000       0x24 ../experiment2_bsp//libucosii_bsp.a(altera_nios2_qsys_irq.o)
 .comment       0x00000000       0x24 ../experiment2_bsp//libucosii_bsp.a(os_cpu_c.o)
 .comment       0x00000000       0x24 ../experiment2_bsp//libucosii_bsp.a(alt_find_file.o)
 .comment       0x00000000       0x24 ../experiment2_bsp//libucosii_bsp.a(alt_get_fd.o)
 .comment       0x00000000       0x24 /tools/altera/12.0/nios2eds/bin/gnu/H-i686-pc-linux-gnu/bin/../lib/gcc/nios2-elf/4.1.2/../../../../nios2-elf/lib/mno-hw-mul/libc.a(lib_a-atexit.o)
 .comment       0x00000000       0x24 /tools/altera/12.0/nios2eds/bin/gnu/H-i686-pc-linux-gnu/bin/../lib/gcc/nios2-elf/4.1.2/../../../../nios2-elf/lib/mno-hw-mul/libc.a(lib_a-exit.o)
 .comment       0x00000000       0x24 /tools/altera/12.0/nios2eds/bin/gnu/H-i686-pc-linux-gnu/bin/../lib/gcc/nios2-elf/4.1.2/../../../../nios2-elf/lib/mno-hw-mul/libc.a(lib_a-memcmp.o)
 .comment       0x00000000       0x24 /tools/altera/12.0/nios2eds/bin/gnu/H-i686-pc-linux-gnu/bin/../lib/gcc/nios2-elf/4.1.2/../../../../nios2-elf/lib/mno-hw-mul/libc.a(lib_a-putc.o)
 .comment       0x00000000       0x24 /tools/altera/12.0/nios2eds/bin/gnu/H-i686-pc-linux-gnu/bin/../lib/gcc/nios2-elf/4.1.2/../../../../nios2-elf/lib/mno-hw-mul/libc.a(lib_a-wbuf.o)
 .comment       0x00000000       0x24 /tools/altera/12.0/nios2eds/bin/gnu/H-i686-pc-linux-gnu/bin/../lib/gcc/nios2-elf/4.1.2/../../../../nios2-elf/lib/mno-hw-mul/libc.a(lib_a-__atexit.o)
 .comment       0x00000000       0x24 /tools/altera/12.0/nios2eds/bin/gnu/H-i686-pc-linux-gnu/bin/../lib/gcc/nios2-elf/4.1.2/../../../../nios2-elf/lib/mno-hw-mul/libc.a(lib_a-__call_atexit.o)
 .comment       0x00000000       0x24 ../experiment2_bsp//libucosii_bsp.a(alt_exit.o)

.debug
 *(.debug)

.line
 *(.line)

.debug_srcinfo
 *(.debug_srcinfo)

.debug_sfnames
 *(.debug_sfnames)

.debug_aranges  0x00000000      0xf58
 *(.debug_aranges)
 .debug_aranges
                0x00000000       0x28 ../experiment2_bsp//obj/HAL/src/crt0.o
 .debug_aranges
                0x00000028       0x20 obj/default/PB_button.o
 .debug_aranges
                0x00000048       0x20 obj/default/alt_ucosii_simple_error_check.o
 .debug_aranges
                0x00000068       0x20 obj/default/experiment2.o
 .debug_aranges
                0x00000088       0x20 obj/default/tasks.o
 .debug_aranges
                0x000000a8       0x20 /tools/altera/12.0/nios2eds/bin/gnu/H-i686-pc-linux-gnu/bin/../lib/gcc/nios2-elf/4.1.2/mno-hw-mul/libgcc.a(lib2-divmod.o)
 .debug_aranges
                0x000000c8       0x20 /tools/altera/12.0/nios2eds/bin/gnu/H-i686-pc-linux-gnu/bin/../lib/gcc/nios2-elf/4.1.2/mno-hw-mul/libgcc.a(lib2-mul.o)
 .debug_aranges
                0x000000e8       0x20 /tools/altera/12.0/nios2eds/bin/gnu/H-i686-pc-linux-gnu/bin/../lib/gcc/nios2-elf/4.1.2/../../../../nios2-elf/lib/mno-hw-mul/libc.a(lib_a-fprintf.o)
 .debug_aranges
                0x00000108       0x20 /tools/altera/12.0/nios2eds/bin/gnu/H-i686-pc-linux-gnu/bin/../lib/gcc/nios2-elf/4.1.2/../../../../nios2-elf/lib/mno-hw-mul/libc.a(lib_a-fwrite.o)
 .debug_aranges
                0x00000128       0x20 /tools/altera/12.0/nios2eds/bin/gnu/H-i686-pc-linux-gnu/bin/../lib/gcc/nios2-elf/4.1.2/../../../../nios2-elf/lib/mno-hw-mul/libc.a(lib_a-printf.o)
 .debug_aranges
                0x00000148       0x20 /tools/altera/12.0/nios2eds/bin/gnu/H-i686-pc-linux-gnu/bin/../lib/gcc/nios2-elf/4.1.2/../../../../nios2-elf/lib/mno-hw-mul/libc.a(lib_a-puts.o)
 .debug_aranges
                0x00000168       0x20 /tools/altera/12.0/nios2eds/bin/gnu/H-i686-pc-linux-gnu/bin/../lib/gcc/nios2-elf/4.1.2/../../../../nios2-elf/lib/mno-hw-mul/libc.a(lib_a-rand.o)
 .debug_aranges
                0x00000188       0x20 /tools/altera/12.0/nios2eds/bin/gnu/H-i686-pc-linux-gnu/bin/../lib/gcc/nios2-elf/4.1.2/../../../../nios2-elf/lib/mno-hw-mul/libc.a(lib_a-strlen.o)
 .debug_aranges
                0x000001a8       0x20 /tools/altera/12.0/nios2eds/bin/gnu/H-i686-pc-linux-gnu/bin/../lib/gcc/nios2-elf/4.1.2/../../../../nios2-elf/lib/mno-hw-mul/libc.a(lib_a-vfprintf.o)
 .debug_aranges
                0x000001c8       0x20 /tools/altera/12.0/nios2eds/bin/gnu/H-i686-pc-linux-gnu/bin/../lib/gcc/nios2-elf/4.1.2/../../../../nios2-elf/lib/mno-hw-mul/libc.a(lib_a-wsetup.o)
 .debug_aranges
                0x000001e8       0x20 /tools/altera/12.0/nios2eds/bin/gnu/H-i686-pc-linux-gnu/bin/../lib/gcc/nios2-elf/4.1.2/../../../../nios2-elf/lib/mno-hw-mul/libc.a(lib_a-dtoa.o)
 .debug_aranges
                0x00000208       0x20 /tools/altera/12.0/nios2eds/bin/gnu/H-i686-pc-linux-gnu/bin/../lib/gcc/nios2-elf/4.1.2/../../../../nios2-elf/lib/mno-hw-mul/libc.a(lib_a-fflush.o)
 .debug_aranges
                0x00000228       0x20 /tools/altera/12.0/nios2eds/bin/gnu/H-i686-pc-linux-gnu/bin/../lib/gcc/nios2-elf/4.1.2/../../../../nios2-elf/lib/mno-hw-mul/libc.a(lib_a-findfp.o)
 .debug_aranges
                0x00000248       0x20 /tools/altera/12.0/nios2eds/bin/gnu/H-i686-pc-linux-gnu/bin/../lib/gcc/nios2-elf/4.1.2/../../../../nios2-elf/lib/mno-hw-mul/libc.a(lib_a-freer.o)
 .debug_aranges
                0x00000268       0x20 /tools/altera/12.0/nios2eds/bin/gnu/H-i686-pc-linux-gnu/bin/../lib/gcc/nios2-elf/4.1.2/../../../../nios2-elf/lib/mno-hw-mul/libc.a(lib_a-fvwrite.o)
 .debug_aranges
                0x00000288       0x20 /tools/altera/12.0/nios2eds/bin/gnu/H-i686-pc-linux-gnu/bin/../lib/gcc/nios2-elf/4.1.2/../../../../nios2-elf/lib/mno-hw-mul/libc.a(lib_a-fwalk.o)
 .debug_aranges
                0x000002a8       0x20 /tools/altera/12.0/nios2eds/bin/gnu/H-i686-pc-linux-gnu/bin/../lib/gcc/nios2-elf/4.1.2/../../../../nios2-elf/lib/mno-hw-mul/libc.a(lib_a-locale.o)
 .debug_aranges
                0x000002c8       0x20 /tools/altera/12.0/nios2eds/bin/gnu/H-i686-pc-linux-gnu/bin/../lib/gcc/nios2-elf/4.1.2/../../../../nios2-elf/lib/mno-hw-mul/libc.a(lib_a-makebuf.o)
 .debug_aranges
                0x000002e8       0x20 /tools/altera/12.0/nios2eds/bin/gnu/H-i686-pc-linux-gnu/bin/../lib/gcc/nios2-elf/4.1.2/../../../../nios2-elf/lib/mno-hw-mul/libc.a(lib_a-mallocr.o)
 .debug_aranges
                0x00000308       0x20 /tools/altera/12.0/nios2eds/bin/gnu/H-i686-pc-linux-gnu/bin/../lib/gcc/nios2-elf/4.1.2/../../../../nios2-elf/lib/mno-hw-mul/libc.a(lib_a-memchr.o)
 .debug_aranges
                0x00000328       0x20 /tools/altera/12.0/nios2eds/bin/gnu/H-i686-pc-linux-gnu/bin/../lib/gcc/nios2-elf/4.1.2/../../../../nios2-elf/lib/mno-hw-mul/libc.a(lib_a-memcpy.o)
 .debug_aranges
                0x00000348       0x20 /tools/altera/12.0/nios2eds/bin/gnu/H-i686-pc-linux-gnu/bin/../lib/gcc/nios2-elf/4.1.2/../../../../nios2-elf/lib/mno-hw-mul/libc.a(lib_a-memmove.o)
 .debug_aranges
                0x00000368       0x20 /tools/altera/12.0/nios2eds/bin/gnu/H-i686-pc-linux-gnu/bin/../lib/gcc/nios2-elf/4.1.2/../../../../nios2-elf/lib/mno-hw-mul/libc.a(lib_a-memset.o)
 .debug_aranges
                0x00000388       0x20 /tools/altera/12.0/nios2eds/bin/gnu/H-i686-pc-linux-gnu/bin/../lib/gcc/nios2-elf/4.1.2/../../../../nios2-elf/lib/mno-hw-mul/libc.a(lib_a-mprec.o)
 .debug_aranges
                0x000003a8       0x20 /tools/altera/12.0/nios2eds/bin/gnu/H-i686-pc-linux-gnu/bin/../lib/gcc/nios2-elf/4.1.2/../../../../nios2-elf/lib/mno-hw-mul/libc.a(lib_a-reallocr.o)
 .debug_aranges
                0x000003c8       0x20 /tools/altera/12.0/nios2eds/bin/gnu/H-i686-pc-linux-gnu/bin/../lib/gcc/nios2-elf/4.1.2/../../../../nios2-elf/lib/mno-hw-mul/libc.a(lib_a-s_isinfd.o)
 .debug_aranges
                0x000003e8       0x20 /tools/altera/12.0/nios2eds/bin/gnu/H-i686-pc-linux-gnu/bin/../lib/gcc/nios2-elf/4.1.2/../../../../nios2-elf/lib/mno-hw-mul/libc.a(lib_a-s_isnand.o)
 .debug_aranges
                0x00000408       0x20 /tools/altera/12.0/nios2eds/bin/gnu/H-i686-pc-linux-gnu/bin/../lib/gcc/nios2-elf/4.1.2/../../../../nios2-elf/lib/mno-hw-mul/libc.a(lib_a-sbrkr.o)
 .debug_aranges
                0x00000428       0x20 /tools/altera/12.0/nios2eds/bin/gnu/H-i686-pc-linux-gnu/bin/../lib/gcc/nios2-elf/4.1.2/../../../../nios2-elf/lib/mno-hw-mul/libc.a(lib_a-stdio.o)
 .debug_aranges
                0x00000448       0x20 /tools/altera/12.0/nios2eds/bin/gnu/H-i686-pc-linux-gnu/bin/../lib/gcc/nios2-elf/4.1.2/../../../../nios2-elf/lib/mno-hw-mul/libc.a(lib_a-strcmp.o)
 .debug_aranges
                0x00000468       0x20 /tools/altera/12.0/nios2eds/bin/gnu/H-i686-pc-linux-gnu/bin/../lib/gcc/nios2-elf/4.1.2/../../../../nios2-elf/lib/mno-hw-mul/libc.a(lib_a-writer.o)
 .debug_aranges
                0x00000488       0x20 /tools/altera/12.0/nios2eds/bin/gnu/H-i686-pc-linux-gnu/bin/../lib/gcc/nios2-elf/4.1.2/../../../../nios2-elf/lib/mno-hw-mul/libc.a(lib_a-callocr.o)
 .debug_aranges
                0x000004a8       0x20 /tools/altera/12.0/nios2eds/bin/gnu/H-i686-pc-linux-gnu/bin/../lib/gcc/nios2-elf/4.1.2/../../../../nios2-elf/lib/mno-hw-mul/libc.a(lib_a-closer.o)
 .debug_aranges
                0x000004c8       0x20 /tools/altera/12.0/nios2eds/bin/gnu/H-i686-pc-linux-gnu/bin/../lib/gcc/nios2-elf/4.1.2/../../../../nios2-elf/lib/mno-hw-mul/libc.a(lib_a-fclose.o)
 .debug_aranges
                0x000004e8       0x20 /tools/altera/12.0/nios2eds/bin/gnu/H-i686-pc-linux-gnu/bin/../lib/gcc/nios2-elf/4.1.2/../../../../nios2-elf/lib/mno-hw-mul/libc.a(lib_a-fstatr.o)
 .debug_aranges
                0x00000508       0x20 /tools/altera/12.0/nios2eds/bin/gnu/H-i686-pc-linux-gnu/bin/../lib/gcc/nios2-elf/4.1.2/../../../../nios2-elf/lib/mno-hw-mul/libc.a(lib_a-isattyr.o)
 .debug_aranges
                0x00000528       0x20 /tools/altera/12.0/nios2eds/bin/gnu/H-i686-pc-linux-gnu/bin/../lib/gcc/nios2-elf/4.1.2/../../../../nios2-elf/lib/mno-hw-mul/libc.a(lib_a-lseekr.o)
 .debug_aranges
                0x00000548       0x20 /tools/altera/12.0/nios2eds/bin/gnu/H-i686-pc-linux-gnu/bin/../lib/gcc/nios2-elf/4.1.2/../../../../nios2-elf/lib/mno-hw-mul/libc.a(lib_a-readr.o)
 .debug_aranges
                0x00000568       0x20 /tools/altera/12.0/nios2eds/bin/gnu/H-i686-pc-linux-gnu/bin/../lib/gcc/nios2-elf/4.1.2/mno-hw-mul/libgcc.a(_muldi3.o)
 .debug_aranges
                0x00000588       0x20 /tools/altera/12.0/nios2eds/bin/gnu/H-i686-pc-linux-gnu/bin/../lib/gcc/nios2-elf/4.1.2/mno-hw-mul/libgcc.a(_udivdi3.o)
 .debug_aranges
                0x000005a8       0x20 /tools/altera/12.0/nios2eds/bin/gnu/H-i686-pc-linux-gnu/bin/../lib/gcc/nios2-elf/4.1.2/mno-hw-mul/libgcc.a(_umoddi3.o)
 .debug_aranges
                0x000005c8       0x20 /tools/altera/12.0/nios2eds/bin/gnu/H-i686-pc-linux-gnu/bin/../lib/gcc/nios2-elf/4.1.2/mno-hw-mul/libgcc.a(_addsub_df.o)
 .debug_aranges
                0x000005e8       0x20 /tools/altera/12.0/nios2eds/bin/gnu/H-i686-pc-linux-gnu/bin/../lib/gcc/nios2-elf/4.1.2/mno-hw-mul/libgcc.a(_mul_df.o)
 .debug_aranges
                0x00000608       0x20 /tools/altera/12.0/nios2eds/bin/gnu/H-i686-pc-linux-gnu/bin/../lib/gcc/nios2-elf/4.1.2/mno-hw-mul/libgcc.a(_div_df.o)
 .debug_aranges
                0x00000628       0x20 /tools/altera/12.0/nios2eds/bin/gnu/H-i686-pc-linux-gnu/bin/../lib/gcc/nios2-elf/4.1.2/mno-hw-mul/libgcc.a(_eq_df.o)
 .debug_aranges
                0x00000648       0x20 /tools/altera/12.0/nios2eds/bin/gnu/H-i686-pc-linux-gnu/bin/../lib/gcc/nios2-elf/4.1.2/mno-hw-mul/libgcc.a(_ne_df.o)
 .debug_aranges
                0x00000668       0x20 /tools/altera/12.0/nios2eds/bin/gnu/H-i686-pc-linux-gnu/bin/../lib/gcc/nios2-elf/4.1.2/mno-hw-mul/libgcc.a(_gt_df.o)
 .debug_aranges
                0x00000688       0x20 /tools/altera/12.0/nios2eds/bin/gnu/H-i686-pc-linux-gnu/bin/../lib/gcc/nios2-elf/4.1.2/mno-hw-mul/libgcc.a(_ge_df.o)
 .debug_aranges
                0x000006a8       0x20 /tools/altera/12.0/nios2eds/bin/gnu/H-i686-pc-linux-gnu/bin/../lib/gcc/nios2-elf/4.1.2/mno-hw-mul/libgcc.a(_lt_df.o)
 .debug_aranges
                0x000006c8       0x20 /tools/altera/12.0/nios2eds/bin/gnu/H-i686-pc-linux-gnu/bin/../lib/gcc/nios2-elf/4.1.2/mno-hw-mul/libgcc.a(_si_to_df.o)
 .debug_aranges
                0x000006e8       0x20 /tools/altera/12.0/nios2eds/bin/gnu/H-i686-pc-linux-gnu/bin/../lib/gcc/nios2-elf/4.1.2/mno-hw-mul/libgcc.a(_df_to_si.o)
 .debug_aranges
                0x00000708       0x20 /tools/altera/12.0/nios2eds/bin/gnu/H-i686-pc-linux-gnu/bin/../lib/gcc/nios2-elf/4.1.2/mno-hw-mul/libgcc.a(_usi_to_df.o)
 .debug_aranges
                0x00000728       0x20 /tools/altera/12.0/nios2eds/bin/gnu/H-i686-pc-linux-gnu/bin/../lib/gcc/nios2-elf/4.1.2/mno-hw-mul/libgcc.a(_clzsi2.o)
 .debug_aranges
                0x00000748       0x20 /tools/altera/12.0/nios2eds/bin/gnu/H-i686-pc-linux-gnu/bin/../lib/gcc/nios2-elf/4.1.2/mno-hw-mul/libgcc.a(_pack_df.o)
 .debug_aranges
                0x00000768       0x20 /tools/altera/12.0/nios2eds/bin/gnu/H-i686-pc-linux-gnu/bin/../lib/gcc/nios2-elf/4.1.2/mno-hw-mul/libgcc.a(_unpack_df.o)
 .debug_aranges
                0x00000788       0x20 /tools/altera/12.0/nios2eds/bin/gnu/H-i686-pc-linux-gnu/bin/../lib/gcc/nios2-elf/4.1.2/mno-hw-mul/libgcc.a(_fpcmp_parts_df.o)
 .debug_aranges
                0x000007a8       0x20 ../experiment2_bsp//libucosii_bsp.a(alt_close.o)
 .debug_aranges
                0x000007c8       0x20 ../experiment2_bsp//libucosii_bsp.a(alt_dev.o)
 .debug_aranges
                0x000007e8       0x20 ../experiment2_bsp//libucosii_bsp.a(alt_fstat.o)
 .debug_aranges
                0x00000808       0x20 ../experiment2_bsp//libucosii_bsp.a(alt_irq_register.o)
 .debug_aranges
                0x00000828       0x20 ../experiment2_bsp//libucosii_bsp.a(alt_isatty.o)
 .debug_aranges
                0x00000848       0x20 ../experiment2_bsp//libucosii_bsp.a(alt_load.o)
 .debug_aranges
                0x00000868       0x20 ../experiment2_bsp//libucosii_bsp.a(alt_lseek.o)
 .debug_aranges
                0x00000888       0x20 ../experiment2_bsp//libucosii_bsp.a(alt_main.o)
 .debug_aranges
                0x000008a8       0x20 ../experiment2_bsp//libucosii_bsp.a(alt_printf.o)
 .debug_aranges
                0x000008c8       0x20 ../experiment2_bsp//libucosii_bsp.a(alt_putchar.o)
 .debug_aranges
                0x000008e8       0x20 ../experiment2_bsp//libucosii_bsp.a(alt_read.o)
 .debug_aranges
                0x00000908       0x20 ../experiment2_bsp//libucosii_bsp.a(alt_release_fd.o)
 .debug_aranges
                0x00000928       0x20 ../experiment2_bsp//libucosii_bsp.a(alt_sbrk.o)
 .debug_aranges
                0x00000948       0x20 ../experiment2_bsp//libucosii_bsp.a(alt_write.o)
 .debug_aranges
                0x00000968       0x20 ../experiment2_bsp//libucosii_bsp.a(alt_env_lock.o)
 .debug_aranges
                0x00000988       0x20 ../experiment2_bsp//libucosii_bsp.a(alt_malloc_lock.o)
 .debug_aranges
                0x000009a8       0x20 ../experiment2_bsp//libucosii_bsp.a(os_core.o)
 .debug_aranges
                0x000009c8       0x20 ../experiment2_bsp//libucosii_bsp.a(os_dbg.o)
 .debug_aranges
                0x000009e8       0x20 ../experiment2_bsp//libucosii_bsp.a(os_flag.o)
 .debug_aranges
                0x00000a08       0x20 ../experiment2_bsp//libucosii_bsp.a(os_mem.o)
 .debug_aranges
                0x00000a28       0x20 ../experiment2_bsp//libucosii_bsp.a(os_q.o)
 .debug_aranges
                0x00000a48       0x20 ../experiment2_bsp//libucosii_bsp.a(os_sem.o)
 .debug_aranges
                0x00000a68       0x20 ../experiment2_bsp//libucosii_bsp.a(os_task.o)
 .debug_aranges
                0x00000a88       0x20 ../experiment2_bsp//libucosii_bsp.a(os_time.o)
 .debug_aranges
                0x00000aa8       0x20 ../experiment2_bsp//libucosii_bsp.a(alt_sys_init.o)
 .debug_aranges
                0x00000ac8       0x20 ../experiment2_bsp//libucosii_bsp.a(altera_avalon_jtag_uart_fd.o)
 .debug_aranges
                0x00000ae8       0x20 ../experiment2_bsp//libucosii_bsp.a(altera_avalon_jtag_uart_init.o)
 .debug_aranges
                0x00000b08       0x20 ../experiment2_bsp//libucosii_bsp.a(altera_avalon_jtag_uart_ioctl.o)
 .debug_aranges
                0x00000b28       0x20 ../experiment2_bsp//libucosii_bsp.a(altera_avalon_jtag_uart_read.o)
 .debug_aranges
                0x00000b48       0x20 ../experiment2_bsp//libucosii_bsp.a(altera_avalon_jtag_uart_write.o)
 .debug_aranges
                0x00000b68       0x20 ../experiment2_bsp//libucosii_bsp.a(altera_avalon_timer_sc.o)
 .debug_aranges
                0x00000b88       0x20 ../experiment2_bsp//libucosii_bsp.a(altera_up_avalon_character_lcd.o)
 .debug_aranges
                0x00000ba8       0x20 ../experiment2_bsp//libucosii_bsp.a(alt_alarm_start.o)
 .debug_aranges
                0x00000bc8       0x20 ../experiment2_bsp//libucosii_bsp.a(alt_dcache_flush_all.o)
 .debug_aranges
                0x00000be8       0x20 ../experiment2_bsp//libucosii_bsp.a(alt_dev_llist_insert.o)
 .debug_aranges
                0x00000c08       0x20 ../experiment2_bsp//libucosii_bsp.a(alt_do_ctors.o)
 .debug_aranges
                0x00000c28       0x20 ../experiment2_bsp//libucosii_bsp.a(alt_do_dtors.o)
 .debug_aranges
                0x00000c48       0x20 ../experiment2_bsp//libucosii_bsp.a(alt_find_dev.o)
 .debug_aranges
                0x00000c68       0x20 ../experiment2_bsp//libucosii_bsp.a(alt_icache_flush_all.o)
 .debug_aranges
                0x00000c88       0x20 ../experiment2_bsp//libucosii_bsp.a(alt_iic.o)
 .debug_aranges
                0x00000ca8       0x20 ../experiment2_bsp//libucosii_bsp.a(alt_iic_isr_register.o)
 .debug_aranges
                0x00000cc8       0x20 ../experiment2_bsp//libucosii_bsp.a(alt_io_redirect.o)
 .debug_aranges
                0x00000ce8       0x30 ../experiment2_bsp//libucosii_bsp.a(alt_irq_entry.o)
 .debug_aranges
                0x00000d18       0x28 ../experiment2_bsp//libucosii_bsp.a(alt_irq_handler.o)
 .debug_aranges
                0x00000d40       0x20 ../experiment2_bsp//libucosii_bsp.a(alt_open.o)
 .debug_aranges
                0x00000d60       0x20 ../experiment2_bsp//libucosii_bsp.a(alt_tick.o)
 .debug_aranges
                0x00000d80       0x20 ../experiment2_bsp//libucosii_bsp.a(altera_nios2_qsys_irq.o)
 .debug_aranges
                0x00000da0       0x20 ../experiment2_bsp//libucosii_bsp.a(os_cpu_a.o)
 .debug_aranges
                0x00000dc0       0x20 ../experiment2_bsp//libucosii_bsp.a(os_cpu_c.o)
 .debug_aranges
                0x00000de0       0x38 ../experiment2_bsp//libucosii_bsp.a(alt_exception_entry.o)
 .debug_aranges
                0x00000e18       0x20 ../experiment2_bsp//libucosii_bsp.a(alt_find_file.o)
 .debug_aranges
                0x00000e38       0x20 ../experiment2_bsp//libucosii_bsp.a(alt_get_fd.o)
 .debug_aranges
                0x00000e58       0x20 /tools/altera/12.0/nios2eds/bin/gnu/H-i686-pc-linux-gnu/bin/../lib/gcc/nios2-elf/4.1.2/../../../../nios2-elf/lib/mno-hw-mul/libc.a(lib_a-atexit.o)
 .debug_aranges
                0x00000e78       0x20 /tools/altera/12.0/nios2eds/bin/gnu/H-i686-pc-linux-gnu/bin/../lib/gcc/nios2-elf/4.1.2/../../../../nios2-elf/lib/mno-hw-mul/libc.a(lib_a-exit.o)
 .debug_aranges
                0x00000e98       0x20 /tools/altera/12.0/nios2eds/bin/gnu/H-i686-pc-linux-gnu/bin/../lib/gcc/nios2-elf/4.1.2/../../../../nios2-elf/lib/mno-hw-mul/libc.a(lib_a-memcmp.o)
 .debug_aranges
                0x00000eb8       0x20 /tools/altera/12.0/nios2eds/bin/gnu/H-i686-pc-linux-gnu/bin/../lib/gcc/nios2-elf/4.1.2/../../../../nios2-elf/lib/mno-hw-mul/libc.a(lib_a-putc.o)
 .debug_aranges
                0x00000ed8       0x20 /tools/altera/12.0/nios2eds/bin/gnu/H-i686-pc-linux-gnu/bin/../lib/gcc/nios2-elf/4.1.2/../../../../nios2-elf/lib/mno-hw-mul/libc.a(lib_a-wbuf.o)
 .debug_aranges
                0x00000ef8       0x20 /tools/altera/12.0/nios2eds/bin/gnu/H-i686-pc-linux-gnu/bin/../lib/gcc/nios2-elf/4.1.2/../../../../nios2-elf/lib/mno-hw-mul/libc.a(lib_a-__atexit.o)
 .debug_aranges
                0x00000f18       0x20 /tools/altera/12.0/nios2eds/bin/gnu/H-i686-pc-linux-gnu/bin/../lib/gcc/nios2-elf/4.1.2/../../../../nios2-elf/lib/mno-hw-mul/libc.a(lib_a-__call_atexit.o)
 .debug_aranges
                0x00000f38       0x20 ../experiment2_bsp//libucosii_bsp.a(alt_exit.o)

.debug_pubnames
                0x00000000     0x254b
 *(.debug_pubnames)
 .debug_pubnames
                0x00000000       0x87 obj/default/PB_button.o
 .debug_pubnames
                0x00000087       0x57 obj/default/alt_ucosii_simple_error_check.o
 .debug_pubnames
                0x000000de       0x5e obj/default/experiment2.o
 .debug_pubnames
                0x0000013c      0x14a obj/default/tasks.o
 .debug_pubnames
                0x00000286       0x48 /tools/altera/12.0/nios2eds/bin/gnu/H-i686-pc-linux-gnu/bin/../lib/gcc/nios2-elf/4.1.2/mno-hw-mul/libgcc.a(lib2-divmod.o)
 .debug_pubnames
                0x000002ce       0x1f /tools/altera/12.0/nios2eds/bin/gnu/H-i686-pc-linux-gnu/bin/../lib/gcc/nios2-elf/4.1.2/mno-hw-mul/libgcc.a(lib2-mul.o)
 .debug_pubnames
                0x000002ed       0x2d /tools/altera/12.0/nios2eds/bin/gnu/H-i686-pc-linux-gnu/bin/../lib/gcc/nios2-elf/4.1.2/../../../../nios2-elf/lib/mno-hw-mul/libc.a(lib_a-fprintf.o)
 .debug_pubnames
                0x0000031a       0x2b /tools/altera/12.0/nios2eds/bin/gnu/H-i686-pc-linux-gnu/bin/../lib/gcc/nios2-elf/4.1.2/../../../../nios2-elf/lib/mno-hw-mul/libc.a(lib_a-fwrite.o)
 .debug_pubnames
                0x00000345       0x39 /tools/altera/12.0/nios2eds/bin/gnu/H-i686-pc-linux-gnu/bin/../lib/gcc/nios2-elf/4.1.2/../../../../nios2-elf/lib/mno-hw-mul/libc.a(lib_a-impure.o)
 .debug_pubnames
                0x0000037e       0x2b /tools/altera/12.0/nios2eds/bin/gnu/H-i686-pc-linux-gnu/bin/../lib/gcc/nios2-elf/4.1.2/../../../../nios2-elf/lib/mno-hw-mul/libc.a(lib_a-printf.o)
 .debug_pubnames
                0x000003a9       0x27 /tools/altera/12.0/nios2eds/bin/gnu/H-i686-pc-linux-gnu/bin/../lib/gcc/nios2-elf/4.1.2/../../../../nios2-elf/lib/mno-hw-mul/libc.a(lib_a-puts.o)
 .debug_pubnames
                0x000003d0       0x25 /tools/altera/12.0/nios2eds/bin/gnu/H-i686-pc-linux-gnu/bin/../lib/gcc/nios2-elf/4.1.2/../../../../nios2-elf/lib/mno-hw-mul/libc.a(lib_a-rand.o)
 .debug_pubnames
                0x000003f5       0x1d /tools/altera/12.0/nios2eds/bin/gnu/H-i686-pc-linux-gnu/bin/../lib/gcc/nios2-elf/4.1.2/../../../../nios2-elf/lib/mno-hw-mul/libc.a(lib_a-strlen.o)
 .debug_pubnames
                0x00000412       0x45 /tools/altera/12.0/nios2eds/bin/gnu/H-i686-pc-linux-gnu/bin/../lib/gcc/nios2-elf/4.1.2/../../../../nios2-elf/lib/mno-hw-mul/libc.a(lib_a-vfprintf.o)
 .debug_pubnames
                0x00000457       0x22 /tools/altera/12.0/nios2eds/bin/gnu/H-i686-pc-linux-gnu/bin/../lib/gcc/nios2-elf/4.1.2/../../../../nios2-elf/lib/mno-hw-mul/libc.a(lib_a-wsetup.o)
 .debug_pubnames
                0x00000479       0x1e /tools/altera/12.0/nios2eds/bin/gnu/H-i686-pc-linux-gnu/bin/../lib/gcc/nios2-elf/4.1.2/../../../../nios2-elf/lib/mno-hw-mul/libc.a(lib_a-dtoa.o)
 .debug_pubnames
                0x00000497       0x2b /tools/altera/12.0/nios2eds/bin/gnu/H-i686-pc-linux-gnu/bin/../lib/gcc/nios2-elf/4.1.2/../../../../nios2-elf/lib/mno-hw-mul/libc.a(lib_a-fflush.o)
 .debug_pubnames
                0x000004c2       0xdb /tools/altera/12.0/nios2eds/bin/gnu/H-i686-pc-linux-gnu/bin/../lib/gcc/nios2-elf/4.1.2/../../../../nios2-elf/lib/mno-hw-mul/libc.a(lib_a-findfp.o)
 .debug_pubnames
                0x0000059d       0x31 /tools/altera/12.0/nios2eds/bin/gnu/H-i686-pc-linux-gnu/bin/../lib/gcc/nios2-elf/4.1.2/../../../../nios2-elf/lib/mno-hw-mul/libc.a(lib_a-freer.o)
 .debug_pubnames
                0x000005ce       0x23 /tools/altera/12.0/nios2eds/bin/gnu/H-i686-pc-linux-gnu/bin/../lib/gcc/nios2-elf/4.1.2/../../../../nios2-elf/lib/mno-hw-mul/libc.a(lib_a-fvwrite.o)
 .debug_pubnames
                0x000005f1       0x2e /tools/altera/12.0/nios2eds/bin/gnu/H-i686-pc-linux-gnu/bin/../lib/gcc/nios2-elf/4.1.2/../../../../nios2-elf/lib/mno-hw-mul/libc.a(lib_a-fwalk.o)
 .debug_pubnames
                0x0000061f       0xc3 /tools/altera/12.0/nios2eds/bin/gnu/H-i686-pc-linux-gnu/bin/../lib/gcc/nios2-elf/4.1.2/../../../../nios2-elf/lib/mno-hw-mul/libc.a(lib_a-locale.o)
 .debug_pubnames
                0x000006e2       0x23 /tools/altera/12.0/nios2eds/bin/gnu/H-i686-pc-linux-gnu/bin/../lib/gcc/nios2-elf/4.1.2/../../../../nios2-elf/lib/mno-hw-mul/libc.a(lib_a-makebuf.o)
 .debug_pubnames
                0x00000705       0xce /tools/altera/12.0/nios2eds/bin/gnu/H-i686-pc-linux-gnu/bin/../lib/gcc/nios2-elf/4.1.2/../../../../nios2-elf/lib/mno-hw-mul/libc.a(lib_a-mallocr.o)
 .debug_pubnames
                0x000007d3       0x1d /tools/altera/12.0/nios2eds/bin/gnu/H-i686-pc-linux-gnu/bin/../lib/gcc/nios2-elf/4.1.2/../../../../nios2-elf/lib/mno-hw-mul/libc.a(lib_a-memchr.o)
 .debug_pubnames
                0x000007f0       0x1d /tools/altera/12.0/nios2eds/bin/gnu/H-i686-pc-linux-gnu/bin/../lib/gcc/nios2-elf/4.1.2/../../../../nios2-elf/lib/mno-hw-mul/libc.a(lib_a-memcpy.o)
 .debug_pubnames
                0x0000080d       0x1e /tools/altera/12.0/nios2eds/bin/gnu/H-i686-pc-linux-gnu/bin/../lib/gcc/nios2-elf/4.1.2/../../../../nios2-elf/lib/mno-hw-mul/libc.a(lib_a-memmove.o)
 .debug_pubnames
                0x0000082b       0x1d /tools/altera/12.0/nios2eds/bin/gnu/H-i686-pc-linux-gnu/bin/../lib/gcc/nios2-elf/4.1.2/../../../../nios2-elf/lib/mno-hw-mul/libc.a(lib_a-memset.o)
 .debug_pubnames
                0x00000848      0x13a /tools/altera/12.0/nios2eds/bin/gnu/H-i686-pc-linux-gnu/bin/../lib/gcc/nios2-elf/4.1.2/../../../../nios2-elf/lib/mno-hw-mul/libc.a(lib_a-mprec.o)
 .debug_pubnames
                0x00000982       0x21 /tools/altera/12.0/nios2eds/bin/gnu/H-i686-pc-linux-gnu/bin/../lib/gcc/nios2-elf/4.1.2/../../../../nios2-elf/lib/mno-hw-mul/libc.a(lib_a-reallocr.o)
 .debug_pubnames
                0x000009a3       0x1f /tools/altera/12.0/nios2eds/bin/gnu/H-i686-pc-linux-gnu/bin/../lib/gcc/nios2-elf/4.1.2/../../../../nios2-elf/lib/mno-hw-mul/libc.a(lib_a-s_isinfd.o)
 .debug_pubnames
                0x000009c2       0x1f /tools/altera/12.0/nios2eds/bin/gnu/H-i686-pc-linux-gnu/bin/../lib/gcc/nios2-elf/4.1.2/../../../../nios2-elf/lib/mno-hw-mul/libc.a(lib_a-s_isnand.o)
 .debug_pubnames
                0x000009e1       0x1e /tools/altera/12.0/nios2eds/bin/gnu/H-i686-pc-linux-gnu/bin/../lib/gcc/nios2-elf/4.1.2/../../../../nios2-elf/lib/mno-hw-mul/libc.a(lib_a-sbrkr.o)
 .debug_pubnames
                0x000009ff       0x44 /tools/altera/12.0/nios2eds/bin/gnu/H-i686-pc-linux-gnu/bin/../lib/gcc/nios2-elf/4.1.2/../../../../nios2-elf/lib/mno-hw-mul/libc.a(lib_a-stdio.o)
 .debug_pubnames
                0x00000a43       0x1d /tools/altera/12.0/nios2eds/bin/gnu/H-i686-pc-linux-gnu/bin/../lib/gcc/nios2-elf/4.1.2/../../../../nios2-elf/lib/mno-hw-mul/libc.a(lib_a-strcmp.o)
 .debug_pubnames
                0x00000a60       0x1f /tools/altera/12.0/nios2eds/bin/gnu/H-i686-pc-linux-gnu/bin/../lib/gcc/nios2-elf/4.1.2/../../../../nios2-elf/lib/mno-hw-mul/libc.a(lib_a-writer.o)
 .debug_pubnames
                0x00000a7f       0x20 /tools/altera/12.0/nios2eds/bin/gnu/H-i686-pc-linux-gnu/bin/../lib/gcc/nios2-elf/4.1.2/../../../../nios2-elf/lib/mno-hw-mul/libc.a(lib_a-callocr.o)
 .debug_pubnames
                0x00000a9f       0x1f /tools/altera/12.0/nios2eds/bin/gnu/H-i686-pc-linux-gnu/bin/../lib/gcc/nios2-elf/4.1.2/../../../../nios2-elf/lib/mno-hw-mul/libc.a(lib_a-closer.o)
 .debug_pubnames
                0x00000abe       0x2b /tools/altera/12.0/nios2eds/bin/gnu/H-i686-pc-linux-gnu/bin/../lib/gcc/nios2-elf/4.1.2/../../../../nios2-elf/lib/mno-hw-mul/libc.a(lib_a-fclose.o)
 .debug_pubnames
                0x00000ae9       0x1f /tools/altera/12.0/nios2eds/bin/gnu/H-i686-pc-linux-gnu/bin/../lib/gcc/nios2-elf/4.1.2/../../../../nios2-elf/lib/mno-hw-mul/libc.a(lib_a-fstatr.o)
 .debug_pubnames
                0x00000b08       0x1c /tools/altera/12.0/nios2eds/bin/gnu/H-i686-pc-linux-gnu/bin/../lib/gcc/nios2-elf/4.1.2/../../../../nios2-elf/lib/mno-hw-mul/libc.a(lib_a-int_errno.o)
 .debug_pubnames
                0x00000b24       0x20 /tools/altera/12.0/nios2eds/bin/gnu/H-i686-pc-linux-gnu/bin/../lib/gcc/nios2-elf/4.1.2/../../../../nios2-elf/lib/mno-hw-mul/libc.a(lib_a-isattyr.o)
 .debug_pubnames
                0x00000b44       0x1f /tools/altera/12.0/nios2eds/bin/gnu/H-i686-pc-linux-gnu/bin/../lib/gcc/nios2-elf/4.1.2/../../../../nios2-elf/lib/mno-hw-mul/libc.a(lib_a-lseekr.o)
 .debug_pubnames
                0x00000b63       0x1e /tools/altera/12.0/nios2eds/bin/gnu/H-i686-pc-linux-gnu/bin/../lib/gcc/nios2-elf/4.1.2/../../../../nios2-elf/lib/mno-hw-mul/libc.a(lib_a-readr.o)
 .debug_pubnames
                0x00000b81       0x1f /tools/altera/12.0/nios2eds/bin/gnu/H-i686-pc-linux-gnu/bin/../lib/gcc/nios2-elf/4.1.2/mno-hw-mul/libgcc.a(_muldi3.o)
 .debug_pubnames
                0x00000ba0       0x20 /tools/altera/12.0/nios2eds/bin/gnu/H-i686-pc-linux-gnu/bin/../lib/gcc/nios2-elf/4.1.2/mno-hw-mul/libgcc.a(_udivdi3.o)
 .debug_pubnames
                0x00000bc0       0x20 /tools/altera/12.0/nios2eds/bin/gnu/H-i686-pc-linux-gnu/bin/../lib/gcc/nios2-elf/4.1.2/mno-hw-mul/libgcc.a(_umoddi3.o)
 .debug_pubnames
                0x00000be0       0x2c /tools/altera/12.0/nios2eds/bin/gnu/H-i686-pc-linux-gnu/bin/../lib/gcc/nios2-elf/4.1.2/mno-hw-mul/libgcc.a(_addsub_df.o)
 .debug_pubnames
                0x00000c0c       0x1f /tools/altera/12.0/nios2eds/bin/gnu/H-i686-pc-linux-gnu/bin/../lib/gcc/nios2-elf/4.1.2/mno-hw-mul/libgcc.a(_mul_df.o)
 .debug_pubnames
                0x00000c2b       0x1f /tools/altera/12.0/nios2eds/bin/gnu/H-i686-pc-linux-gnu/bin/../lib/gcc/nios2-elf/4.1.2/mno-hw-mul/libgcc.a(_div_df.o)
 .debug_pubnames
                0x00000c4a       0x1e /tools/altera/12.0/nios2eds/bin/gnu/H-i686-pc-linux-gnu/bin/../lib/gcc/nios2-elf/4.1.2/mno-hw-mul/libgcc.a(_eq_df.o)
 .debug_pubnames
                0x00000c68       0x1e /tools/altera/12.0/nios2eds/bin/gnu/H-i686-pc-linux-gnu/bin/../lib/gcc/nios2-elf/4.1.2/mno-hw-mul/libgcc.a(_ne_df.o)
 .debug_pubnames
                0x00000c86       0x1e /tools/altera/12.0/nios2eds/bin/gnu/H-i686-pc-linux-gnu/bin/../lib/gcc/nios2-elf/4.1.2/mno-hw-mul/libgcc.a(_gt_df.o)
 .debug_pubnames
                0x00000ca4       0x1e /tools/altera/12.0/nios2eds/bin/gnu/H-i686-pc-linux-gnu/bin/../lib/gcc/nios2-elf/4.1.2/mno-hw-mul/libgcc.a(_ge_df.o)
 .debug_pubnames
                0x00000cc2       0x1e /tools/altera/12.0/nios2eds/bin/gnu/H-i686-pc-linux-gnu/bin/../lib/gcc/nios2-elf/4.1.2/mno-hw-mul/libgcc.a(_lt_df.o)
 .debug_pubnames
                0x00000ce0       0x22 /tools/altera/12.0/nios2eds/bin/gnu/H-i686-pc-linux-gnu/bin/../lib/gcc/nios2-elf/4.1.2/mno-hw-mul/libgcc.a(_si_to_df.o)
 .debug_pubnames
                0x00000d02       0x20 /tools/altera/12.0/nios2eds/bin/gnu/H-i686-pc-linux-gnu/bin/../lib/gcc/nios2-elf/4.1.2/mno-hw-mul/libgcc.a(_df_to_si.o)
 .debug_pubnames
                0x00000d22       0x22 /tools/altera/12.0/nios2eds/bin/gnu/H-i686-pc-linux-gnu/bin/../lib/gcc/nios2-elf/4.1.2/mno-hw-mul/libgcc.a(_thenan_df.o)
 .debug_pubnames
                0x00000d44       0x24 /tools/altera/12.0/nios2eds/bin/gnu/H-i686-pc-linux-gnu/bin/../lib/gcc/nios2-elf/4.1.2/mno-hw-mul/libgcc.a(_usi_to_df.o)
 .debug_pubnames
                0x00000d68       0x20 /tools/altera/12.0/nios2eds/bin/gnu/H-i686-pc-linux-gnu/bin/../lib/gcc/nios2-elf/4.1.2/mno-hw-mul/libgcc.a(_clz.o)
 .debug_pubnames
                0x00000d88       0x1f /tools/altera/12.0/nios2eds/bin/gnu/H-i686-pc-linux-gnu/bin/../lib/gcc/nios2-elf/4.1.2/mno-hw-mul/libgcc.a(_clzsi2.o)
 .debug_pubnames
                0x00000da7       0x1f /tools/altera/12.0/nios2eds/bin/gnu/H-i686-pc-linux-gnu/bin/../lib/gcc/nios2-elf/4.1.2/mno-hw-mul/libgcc.a(_pack_df.o)
 .debug_pubnames
                0x00000dc6       0x21 /tools/altera/12.0/nios2eds/bin/gnu/H-i686-pc-linux-gnu/bin/../lib/gcc/nios2-elf/4.1.2/mno-hw-mul/libgcc.a(_unpack_df.o)
 .debug_pubnames
                0x00000de7       0x26 /tools/altera/12.0/nios2eds/bin/gnu/H-i686-pc-linux-gnu/bin/../lib/gcc/nios2-elf/4.1.2/mno-hw-mul/libgcc.a(_fpcmp_parts_df.o)
 .debug_pubnames
                0x00000e0d       0x1c ../experiment2_bsp//libucosii_bsp.a(alt_close.o)
 .debug_pubnames
                0x00000e29       0x78 ../experiment2_bsp//libucosii_bsp.a(alt_dev.o)
 .debug_pubnames
                0x00000ea1       0x20 ../experiment2_bsp//libucosii_bsp.a(alt_errno.o)
 .debug_pubnames
                0x00000ec1       0x1c ../experiment2_bsp//libucosii_bsp.a(alt_fstat.o)
 .debug_pubnames
                0x00000edd       0x27 ../experiment2_bsp//libucosii_bsp.a(alt_irq_register.o)
 .debug_pubnames
                0x00000f04       0x3b ../experiment2_bsp//libucosii_bsp.a(alt_irq_vars.o)
 .debug_pubnames
                0x00000f3f       0x1d ../experiment2_bsp//libucosii_bsp.a(alt_isatty.o)
 .debug_pubnames
                0x00000f5c       0x1f ../experiment2_bsp//libucosii_bsp.a(alt_load.o)
 .debug_pubnames
                0x00000f7b       0x1c ../experiment2_bsp//libucosii_bsp.a(alt_lseek.o)
 .debug_pubnames
                0x00000f97       0x46 ../experiment2_bsp//libucosii_bsp.a(alt_main.o)
 .debug_pubnames
                0x00000fdd       0x21 ../experiment2_bsp//libucosii_bsp.a(alt_printf.o)
 .debug_pubnames
                0x00000ffe       0x22 ../experiment2_bsp//libucosii_bsp.a(alt_putchar.o)
 .debug_pubnames
                0x00001020       0x1b ../experiment2_bsp//libucosii_bsp.a(alt_read.o)
 .debug_pubnames
                0x0000103b       0x25 ../experiment2_bsp//libucosii_bsp.a(alt_release_fd.o)
 .debug_pubnames
                0x00001060       0x1b ../experiment2_bsp//libucosii_bsp.a(alt_sbrk.o)
 .debug_pubnames
                0x0000107b       0x1c ../experiment2_bsp//libucosii_bsp.a(alt_write.o)
 .debug_pubnames
                0x00001097       0x41 ../experiment2_bsp//libucosii_bsp.a(alt_env_lock.o)
 .debug_pubnames
                0x000010d8       0x48 ../experiment2_bsp//libucosii_bsp.a(alt_malloc_lock.o)
 .debug_pubnames
                0x00001120      0x3f8 ../experiment2_bsp//libucosii_bsp.a(os_core.o)
 .debug_pubnames
                0x00001518      0x3c5 ../experiment2_bsp//libucosii_bsp.a(os_dbg.o)
 .debug_pubnames
                0x000018dd       0xd0 ../experiment2_bsp//libucosii_bsp.a(os_flag.o)
 .debug_pubnames
                0x000019ad       0x7c ../experiment2_bsp//libucosii_bsp.a(os_mem.o)
 .debug_pubnames
                0x00001a29       0xa9 ../experiment2_bsp//libucosii_bsp.a(os_q.o)
 .debug_pubnames
                0x00001ad2       0x8a ../experiment2_bsp//libucosii_bsp.a(os_sem.o)
 .debug_pubnames
                0x00001b5c       0xe5 ../experiment2_bsp//libucosii_bsp.a(os_task.o)
 .debug_pubnames
                0x00001c41       0x62 ../experiment2_bsp//libucosii_bsp.a(os_time.o)
 .debug_pubnames
                0x00001ca3       0x34 ../experiment2_bsp//libucosii_bsp.a(alt_sys_init.o)
 .debug_pubnames
                0x00001cd7       0xa5 ../experiment2_bsp//libucosii_bsp.a(altera_avalon_jtag_uart_fd.o)
 .debug_pubnames
                0x00001d7c       0x55 ../experiment2_bsp//libucosii_bsp.a(altera_avalon_jtag_uart_init.o)
 .debug_pubnames
                0x00001dd1       0x34 ../experiment2_bsp//libucosii_bsp.a(altera_avalon_jtag_uart_ioctl.o)
 .debug_pubnames
                0x00001e05       0x33 ../experiment2_bsp//libucosii_bsp.a(altera_avalon_jtag_uart_read.o)
 .debug_pubnames
                0x00001e38       0x34 ../experiment2_bsp//libucosii_bsp.a(altera_avalon_jtag_uart_write.o)
 .debug_pubnames
                0x00001e6c       0x2f ../experiment2_bsp//libucosii_bsp.a(altera_avalon_timer_sc.o)
 .debug_pubnames
                0x00001e9b      0x1cd ../experiment2_bsp//libucosii_bsp.a(altera_up_avalon_character_lcd.o)
 .debug_pubnames
                0x00002068       0x26 ../experiment2_bsp//libucosii_bsp.a(alt_alarm_start.o)
 .debug_pubnames
                0x0000208e       0x2b ../experiment2_bsp//libucosii_bsp.a(alt_dcache_flush_all.o)
 .debug_pubnames
                0x000020b9       0x2b ../experiment2_bsp//libucosii_bsp.a(alt_dev_llist_insert.o)
 .debug_pubnames
                0x000020e4       0x20 ../experiment2_bsp//libucosii_bsp.a(alt_do_ctors.o)
 .debug_pubnames
                0x00002104       0x20 ../experiment2_bsp//libucosii_bsp.a(alt_do_dtors.o)
 .debug_pubnames
                0x00002124       0x23 ../experiment2_bsp//libucosii_bsp.a(alt_find_dev.o)
 .debug_pubnames
                0x00002147       0x2b ../experiment2_bsp//libucosii_bsp.a(alt_icache_flush_all.o)
 .debug_pubnames
                0x00002172       0x6e ../experiment2_bsp//libucosii_bsp.a(alt_iic.o)
 .debug_pubnames
                0x000021e0       0x2b ../experiment2_bsp//libucosii_bsp.a(alt_iic_isr_register.o)
 .debug_pubnames
                0x0000220b       0x26 ../experiment2_bsp//libucosii_bsp.a(alt_io_redirect.o)
 .debug_pubnames
                0x00002231       0x32 ../experiment2_bsp//libucosii_bsp.a(alt_irq_handler.o)
 .debug_pubnames
                0x00002263       0x1b ../experiment2_bsp//libucosii_bsp.a(alt_open.o)
 .debug_pubnames
                0x0000227e       0x68 ../experiment2_bsp//libucosii_bsp.a(alt_tick.o)
 .debug_pubnames
                0x000022e6       0x31 ../experiment2_bsp//libucosii_bsp.a(altera_nios2_qsys_irq.o)
 .debug_pubnames
                0x00002317       0xcd ../experiment2_bsp//libucosii_bsp.a(os_cpu_c.o)
 .debug_pubnames
                0x000023e4       0x24 ../experiment2_bsp//libucosii_bsp.a(alt_find_file.o)
 .debug_pubnames
                0x00002408       0x21 ../experiment2_bsp//libucosii_bsp.a(alt_get_fd.o)
 .debug_pubnames
                0x00002429       0x2a /tools/altera/12.0/nios2eds/bin/gnu/H-i686-pc-linux-gnu/bin/../lib/gcc/nios2-elf/4.1.2/../../../../nios2-elf/lib/mno-hw-mul/libc.a(lib_a-atexit.o)
 .debug_pubnames
                0x00002453       0x1b /tools/altera/12.0/nios2eds/bin/gnu/H-i686-pc-linux-gnu/bin/../lib/gcc/nios2-elf/4.1.2/../../../../nios2-elf/lib/mno-hw-mul/libc.a(lib_a-exit.o)
 .debug_pubnames
                0x0000246e       0x1d /tools/altera/12.0/nios2eds/bin/gnu/H-i686-pc-linux-gnu/bin/../lib/gcc/nios2-elf/4.1.2/../../../../nios2-elf/lib/mno-hw-mul/libc.a(lib_a-memcmp.o)
 .debug_pubnames
                0x0000248b       0x27 /tools/altera/12.0/nios2eds/bin/gnu/H-i686-pc-linux-gnu/bin/../lib/gcc/nios2-elf/4.1.2/../../../../nios2-elf/lib/mno-hw-mul/libc.a(lib_a-putc.o)
 .debug_pubnames
                0x000024b2       0x2c /tools/altera/12.0/nios2eds/bin/gnu/H-i686-pc-linux-gnu/bin/../lib/gcc/nios2-elf/4.1.2/../../../../nios2-elf/lib/mno-hw-mul/libc.a(lib_a-wbuf.o)
 .debug_pubnames
                0x000024de       0x2a /tools/altera/12.0/nios2eds/bin/gnu/H-i686-pc-linux-gnu/bin/../lib/gcc/nios2-elf/4.1.2/../../../../nios2-elf/lib/mno-hw-mul/libc.a(lib_a-__atexit.o)
 .debug_pubnames
                0x00002508       0x27 /tools/altera/12.0/nios2eds/bin/gnu/H-i686-pc-linux-gnu/bin/../lib/gcc/nios2-elf/4.1.2/../../../../nios2-elf/lib/mno-hw-mul/libc.a(lib_a-__call_atexit.o)
 .debug_pubnames
                0x0000252f       0x1c ../experiment2_bsp//libucosii_bsp.a(alt_exit.o)

.debug_info     0x00000000    0x360af
 *(.debug_info .gnu.linkonce.wi.*)
 .debug_info    0x00000000       0x6f ../experiment2_bsp//obj/HAL/src/crt0.o
 .debug_info    0x0000006f      0x3e1 obj/default/PB_button.o
 .debug_info    0x00000450      0xcaa obj/default/alt_ucosii_simple_error_check.o
 .debug_info    0x000010fa      0xa3e obj/default/experiment2.o
 .debug_info    0x00001b38      0xc4c obj/default/tasks.o
 .debug_info    0x00002784      0x21c /tools/altera/12.0/nios2eds/bin/gnu/H-i686-pc-linux-gnu/bin/../lib/gcc/nios2-elf/4.1.2/mno-hw-mul/libgcc.a(lib2-divmod.o)
 .debug_info    0x000029a0       0xf3 /tools/altera/12.0/nios2eds/bin/gnu/H-i686-pc-linux-gnu/bin/../lib/gcc/nios2-elf/4.1.2/mno-hw-mul/libgcc.a(lib2-mul.o)
 .debug_info    0x00002a93      0x9e1 /tools/altera/12.0/nios2eds/bin/gnu/H-i686-pc-linux-gnu/bin/../lib/gcc/nios2-elf/4.1.2/../../../../nios2-elf/lib/mno-hw-mul/libc.a(lib_a-fprintf.o)
 .debug_info    0x00003474      0xa83 /tools/altera/12.0/nios2eds/bin/gnu/H-i686-pc-linux-gnu/bin/../lib/gcc/nios2-elf/4.1.2/../../../../nios2-elf/lib/mno-hw-mul/libc.a(lib_a-fwrite.o)
 .debug_info    0x00003ef7      0x93d /tools/altera/12.0/nios2eds/bin/gnu/H-i686-pc-linux-gnu/bin/../lib/gcc/nios2-elf/4.1.2/../../../../nios2-elf/lib/mno-hw-mul/libc.a(lib_a-impure.o)
 .debug_info    0x00004834      0x9d1 /tools/altera/12.0/nios2eds/bin/gnu/H-i686-pc-linux-gnu/bin/../lib/gcc/nios2-elf/4.1.2/../../../../nios2-elf/lib/mno-hw-mul/libc.a(lib_a-printf.o)
 .debug_info    0x00005205      0xa25 /tools/altera/12.0/nios2eds/bin/gnu/H-i686-pc-linux-gnu/bin/../lib/gcc/nios2-elf/4.1.2/../../../../nios2-elf/lib/mno-hw-mul/libc.a(lib_a-puts.o)
 .debug_info    0x00005c2a      0x951 /tools/altera/12.0/nios2eds/bin/gnu/H-i686-pc-linux-gnu/bin/../lib/gcc/nios2-elf/4.1.2/../../../../nios2-elf/lib/mno-hw-mul/libc.a(lib_a-rand.o)
 .debug_info    0x0000657b       0xdb /tools/altera/12.0/nios2eds/bin/gnu/H-i686-pc-linux-gnu/bin/../lib/gcc/nios2-elf/4.1.2/../../../../nios2-elf/lib/mno-hw-mul/libc.a(lib_a-strlen.o)
 .debug_info    0x00006656     0x10d5 /tools/altera/12.0/nios2eds/bin/gnu/H-i686-pc-linux-gnu/bin/../lib/gcc/nios2-elf/4.1.2/../../../../nios2-elf/lib/mno-hw-mul/libc.a(lib_a-vfprintf.o)
 .debug_info    0x0000772b      0x95d /tools/altera/12.0/nios2eds/bin/gnu/H-i686-pc-linux-gnu/bin/../lib/gcc/nios2-elf/4.1.2/../../../../nios2-elf/lib/mno-hw-mul/libc.a(lib_a-wsetup.o)
 .debug_info    0x00008088      0xd6f /tools/altera/12.0/nios2eds/bin/gnu/H-i686-pc-linux-gnu/bin/../lib/gcc/nios2-elf/4.1.2/../../../../nios2-elf/lib/mno-hw-mul/libc.a(lib_a-dtoa.o)
 .debug_info    0x00008df7      0x9fe /tools/altera/12.0/nios2eds/bin/gnu/H-i686-pc-linux-gnu/bin/../lib/gcc/nios2-elf/4.1.2/../../../../nios2-elf/lib/mno-hw-mul/libc.a(lib_a-fflush.o)
 .debug_info    0x000097f5      0xb72 /tools/altera/12.0/nios2eds/bin/gnu/H-i686-pc-linux-gnu/bin/../lib/gcc/nios2-elf/4.1.2/../../../../nios2-elf/lib/mno-hw-mul/libc.a(lib_a-findfp.o)
 .debug_info    0x0000a367      0xbc9 /tools/altera/12.0/nios2eds/bin/gnu/H-i686-pc-linux-gnu/bin/../lib/gcc/nios2-elf/4.1.2/../../../../nios2-elf/lib/mno-hw-mul/libc.a(lib_a-freer.o)
 .debug_info    0x0000af30      0xa88 /tools/altera/12.0/nios2eds/bin/gnu/H-i686-pc-linux-gnu/bin/../lib/gcc/nios2-elf/4.1.2/../../../../nios2-elf/lib/mno-hw-mul/libc.a(lib_a-fvwrite.o)
 .debug_info    0x0000b9b8      0xaed /tools/altera/12.0/nios2eds/bin/gnu/H-i686-pc-linux-gnu/bin/../lib/gcc/nios2-elf/4.1.2/../../../../nios2-elf/lib/mno-hw-mul/libc.a(lib_a-fwalk.o)
 .debug_info    0x0000c4a5      0xb97 /tools/altera/12.0/nios2eds/bin/gnu/H-i686-pc-linux-gnu/bin/../lib/gcc/nios2-elf/4.1.2/../../../../nios2-elf/lib/mno-hw-mul/libc.a(lib_a-locale.o)
 .debug_info    0x0000d03c      0xb1a /tools/altera/12.0/nios2eds/bin/gnu/H-i686-pc-linux-gnu/bin/../lib/gcc/nios2-elf/4.1.2/../../../../nios2-elf/lib/mno-hw-mul/libc.a(lib_a-makebuf.o)
 .debug_info    0x0000db56      0xcd0 /tools/altera/12.0/nios2eds/bin/gnu/H-i686-pc-linux-gnu/bin/../lib/gcc/nios2-elf/4.1.2/../../../../nios2-elf/lib/mno-hw-mul/libc.a(lib_a-mallocr.o)
 .debug_info    0x0000e826      0x138 /tools/altera/12.0/nios2eds/bin/gnu/H-i686-pc-linux-gnu/bin/../lib/gcc/nios2-elf/4.1.2/../../../../nios2-elf/lib/mno-hw-mul/libc.a(lib_a-memchr.o)
 .debug_info    0x0000e95e      0x106 /tools/altera/12.0/nios2eds/bin/gnu/H-i686-pc-linux-gnu/bin/../lib/gcc/nios2-elf/4.1.2/../../../../nios2-elf/lib/mno-hw-mul/libc.a(lib_a-memcpy.o)
 .debug_info    0x0000ea64      0x13e /tools/altera/12.0/nios2eds/bin/gnu/H-i686-pc-linux-gnu/bin/../lib/gcc/nios2-elf/4.1.2/../../../../nios2-elf/lib/mno-hw-mul/libc.a(lib_a-memmove.o)
 .debug_info    0x0000eba2      0x113 /tools/altera/12.0/nios2eds/bin/gnu/H-i686-pc-linux-gnu/bin/../lib/gcc/nios2-elf/4.1.2/../../../../nios2-elf/lib/mno-hw-mul/libc.a(lib_a-memset.o)
 .debug_info    0x0000ecb5     0x143b /tools/altera/12.0/nios2eds/bin/gnu/H-i686-pc-linux-gnu/bin/../lib/gcc/nios2-elf/4.1.2/../../../../nios2-elf/lib/mno-hw-mul/libc.a(lib_a-mprec.o)
 .debug_info    0x000100f0      0xbd7 /tools/altera/12.0/nios2eds/bin/gnu/H-i686-pc-linux-gnu/bin/../lib/gcc/nios2-elf/4.1.2/../../../../nios2-elf/lib/mno-hw-mul/libc.a(lib_a-reallocr.o)
 .debug_info    0x00010cc7       0xd7 /tools/altera/12.0/nios2eds/bin/gnu/H-i686-pc-linux-gnu/bin/../lib/gcc/nios2-elf/4.1.2/../../../../nios2-elf/lib/mno-hw-mul/libc.a(lib_a-s_isinfd.o)
 .debug_info    0x00010d9e       0xd5 /tools/altera/12.0/nios2eds/bin/gnu/H-i686-pc-linux-gnu/bin/../lib/gcc/nios2-elf/4.1.2/../../../../nios2-elf/lib/mno-hw-mul/libc.a(lib_a-s_isnand.o)
 .debug_info    0x00010e73      0x962 /tools/altera/12.0/nios2eds/bin/gnu/H-i686-pc-linux-gnu/bin/../lib/gcc/nios2-elf/4.1.2/../../../../nios2-elf/lib/mno-hw-mul/libc.a(lib_a-sbrkr.o)
 .debug_info    0x000117d5      0xaac /tools/altera/12.0/nios2eds/bin/gnu/H-i686-pc-linux-gnu/bin/../lib/gcc/nios2-elf/4.1.2/../../../../nios2-elf/lib/mno-hw-mul/libc.a(lib_a-stdio.o)
 .debug_info    0x00012281       0xdd /tools/altera/12.0/nios2eds/bin/gnu/H-i686-pc-linux-gnu/bin/../lib/gcc/nios2-elf/4.1.2/../../../../nios2-elf/lib/mno-hw-mul/libc.a(lib_a-strcmp.o)
 .debug_info    0x0001235e      0x993 /tools/altera/12.0/nios2eds/bin/gnu/H-i686-pc-linux-gnu/bin/../lib/gcc/nios2-elf/4.1.2/../../../../nios2-elf/lib/mno-hw-mul/libc.a(lib_a-writer.o)
 .debug_info    0x00012cf1      0xa1b /tools/altera/12.0/nios2eds/bin/gnu/H-i686-pc-linux-gnu/bin/../lib/gcc/nios2-elf/4.1.2/../../../../nios2-elf/lib/mno-hw-mul/libc.a(lib_a-callocr.o)
 .debug_info    0x0001370c      0x958 /tools/altera/12.0/nios2eds/bin/gnu/H-i686-pc-linux-gnu/bin/../lib/gcc/nios2-elf/4.1.2/../../../../nios2-elf/lib/mno-hw-mul/libc.a(lib_a-closer.o)
 .debug_info    0x00014064      0x994 /tools/altera/12.0/nios2eds/bin/gnu/H-i686-pc-linux-gnu/bin/../lib/gcc/nios2-elf/4.1.2/../../../../nios2-elf/lib/mno-hw-mul/libc.a(lib_a-fclose.o)
 .debug_info    0x000149f8      0xafc /tools/altera/12.0/nios2eds/bin/gnu/H-i686-pc-linux-gnu/bin/../lib/gcc/nios2-elf/4.1.2/../../../../nios2-elf/lib/mno-hw-mul/libc.a(lib_a-fstatr.o)
 .debug_info    0x000154f4       0x8c /tools/altera/12.0/nios2eds/bin/gnu/H-i686-pc-linux-gnu/bin/../lib/gcc/nios2-elf/4.1.2/../../../../nios2-elf/lib/mno-hw-mul/libc.a(lib_a-int_errno.o)
 .debug_info    0x00015580      0x958 /tools/altera/12.0/nios2eds/bin/gnu/H-i686-pc-linux-gnu/bin/../lib/gcc/nios2-elf/4.1.2/../../../../nios2-elf/lib/mno-hw-mul/libc.a(lib_a-isattyr.o)
 .debug_info    0x00015ed8      0x981 /tools/altera/12.0/nios2eds/bin/gnu/H-i686-pc-linux-gnu/bin/../lib/gcc/nios2-elf/4.1.2/../../../../nios2-elf/lib/mno-hw-mul/libc.a(lib_a-lseekr.o)
 .debug_info    0x00016859      0x98c /tools/altera/12.0/nios2eds/bin/gnu/H-i686-pc-linux-gnu/bin/../lib/gcc/nios2-elf/4.1.2/../../../../nios2-elf/lib/mno-hw-mul/libc.a(lib_a-readr.o)
 .debug_info    0x000171e5      0x210 /tools/altera/12.0/nios2eds/bin/gnu/H-i686-pc-linux-gnu/bin/../lib/gcc/nios2-elf/4.1.2/mno-hw-mul/libgcc.a(_muldi3.o)
 .debug_info    0x000173f5      0x71c /tools/altera/12.0/nios2eds/bin/gnu/H-i686-pc-linux-gnu/bin/../lib/gcc/nios2-elf/4.1.2/mno-hw-mul/libgcc.a(_udivdi3.o)
 .debug_info    0x00017b11      0x749 /tools/altera/12.0/nios2eds/bin/gnu/H-i686-pc-linux-gnu/bin/../lib/gcc/nios2-elf/4.1.2/mno-hw-mul/libgcc.a(_umoddi3.o)
 .debug_info    0x0001825a      0x493 /tools/altera/12.0/nios2eds/bin/gnu/H-i686-pc-linux-gnu/bin/../lib/gcc/nios2-elf/4.1.2/mno-hw-mul/libgcc.a(_addsub_df.o)
 .debug_info    0x000186ed      0x488 /tools/altera/12.0/nios2eds/bin/gnu/H-i686-pc-linux-gnu/bin/../lib/gcc/nios2-elf/4.1.2/mno-hw-mul/libgcc.a(_mul_df.o)
 .debug_info    0x00018b75      0x39b /tools/altera/12.0/nios2eds/bin/gnu/H-i686-pc-linux-gnu/bin/../lib/gcc/nios2-elf/4.1.2/mno-hw-mul/libgcc.a(_div_df.o)
 .debug_info    0x00018f10      0x29d /tools/altera/12.0/nios2eds/bin/gnu/H-i686-pc-linux-gnu/bin/../lib/gcc/nios2-elf/4.1.2/mno-hw-mul/libgcc.a(_eq_df.o)
 .debug_info    0x000191ad      0x29d /tools/altera/12.0/nios2eds/bin/gnu/H-i686-pc-linux-gnu/bin/../lib/gcc/nios2-elf/4.1.2/mno-hw-mul/libgcc.a(_ne_df.o)
 .debug_info    0x0001944a      0x29d /tools/altera/12.0/nios2eds/bin/gnu/H-i686-pc-linux-gnu/bin/../lib/gcc/nios2-elf/4.1.2/mno-hw-mul/libgcc.a(_gt_df.o)
 .debug_info    0x000196e7      0x29d /tools/altera/12.0/nios2eds/bin/gnu/H-i686-pc-linux-gnu/bin/../lib/gcc/nios2-elf/4.1.2/mno-hw-mul/libgcc.a(_ge_df.o)
 .debug_info    0x00019984      0x29d /tools/altera/12.0/nios2eds/bin/gnu/H-i686-pc-linux-gnu/bin/../lib/gcc/nios2-elf/4.1.2/mno-hw-mul/libgcc.a(_lt_df.o)
 .debug_info    0x00019c21      0x218 /tools/altera/12.0/nios2eds/bin/gnu/H-i686-pc-linux-gnu/bin/../lib/gcc/nios2-elf/4.1.2/mno-hw-mul/libgcc.a(_si_to_df.o)
 .debug_info    0x00019e39      0x2cd /tools/altera/12.0/nios2eds/bin/gnu/H-i686-pc-linux-gnu/bin/../lib/gcc/nios2-elf/4.1.2/mno-hw-mul/libgcc.a(_df_to_si.o)
 .debug_info    0x0001a106      0x164 /tools/altera/12.0/nios2eds/bin/gnu/H-i686-pc-linux-gnu/bin/../lib/gcc/nios2-elf/4.1.2/mno-hw-mul/libgcc.a(_thenan_df.o)
 .debug_info    0x0001a26a      0x213 /tools/altera/12.0/nios2eds/bin/gnu/H-i686-pc-linux-gnu/bin/../lib/gcc/nios2-elf/4.1.2/mno-hw-mul/libgcc.a(_usi_to_df.o)
 .debug_info    0x0001a47d       0xc9 /tools/altera/12.0/nios2eds/bin/gnu/H-i686-pc-linux-gnu/bin/../lib/gcc/nios2-elf/4.1.2/mno-hw-mul/libgcc.a(_clz.o)
 .debug_info    0x0001a546      0x130 /tools/altera/12.0/nios2eds/bin/gnu/H-i686-pc-linux-gnu/bin/../lib/gcc/nios2-elf/4.1.2/mno-hw-mul/libgcc.a(_clzsi2.o)
 .debug_info    0x0001a676      0x2fc /tools/altera/12.0/nios2eds/bin/gnu/H-i686-pc-linux-gnu/bin/../lib/gcc/nios2-elf/4.1.2/mno-hw-mul/libgcc.a(_pack_df.o)
 .debug_info    0x0001a972      0x268 /tools/altera/12.0/nios2eds/bin/gnu/H-i686-pc-linux-gnu/bin/../lib/gcc/nios2-elf/4.1.2/mno-hw-mul/libgcc.a(_unpack_df.o)
 .debug_info    0x0001abda      0x21b /tools/altera/12.0/nios2eds/bin/gnu/H-i686-pc-linux-gnu/bin/../lib/gcc/nios2-elf/4.1.2/mno-hw-mul/libgcc.a(_fpcmp_parts_df.o)
 .debug_info    0x0001adf5      0x4af ../experiment2_bsp//libucosii_bsp.a(alt_close.o)
 .debug_info    0x0001b2a4      0x7d1 ../experiment2_bsp//libucosii_bsp.a(alt_dev.o)
 .debug_info    0x0001ba75      0x158 ../experiment2_bsp//libucosii_bsp.a(alt_errno.o)
 .debug_info    0x0001bbcd      0x6a8 ../experiment2_bsp//libucosii_bsp.a(alt_fstat.o)
 .debug_info    0x0001c275      0x45e ../experiment2_bsp//libucosii_bsp.a(alt_irq_register.o)
 .debug_info    0x0001c6d3      0x15b ../experiment2_bsp//libucosii_bsp.a(alt_irq_vars.o)
 .debug_info    0x0001c82e      0x6ae ../experiment2_bsp//libucosii_bsp.a(alt_isatty.o)
 .debug_info    0x0001cedc      0x281 ../experiment2_bsp//libucosii_bsp.a(alt_load.o)
 .debug_info    0x0001d15d      0x4e2 ../experiment2_bsp//libucosii_bsp.a(alt_lseek.o)
 .debug_info    0x0001d63f      0x3d1 ../experiment2_bsp//libucosii_bsp.a(alt_main.o)
 .debug_info    0x0001da10      0x19c ../experiment2_bsp//libucosii_bsp.a(alt_printf.o)
 .debug_info    0x0001dbac      0xbf0 ../experiment2_bsp//libucosii_bsp.a(alt_putchar.o)
 .debug_info    0x0001e79c      0x6d2 ../experiment2_bsp//libucosii_bsp.a(alt_read.o)
 .debug_info    0x0001ee6e      0x443 ../experiment2_bsp//libucosii_bsp.a(alt_release_fd.o)
 .debug_info    0x0001f2b1      0x2ab ../experiment2_bsp//libucosii_bsp.a(alt_sbrk.o)
 .debug_info    0x0001f55c      0x6db ../experiment2_bsp//libucosii_bsp.a(alt_write.o)
 .debug_info    0x0001fc37     0x11c7 ../experiment2_bsp//libucosii_bsp.a(alt_env_lock.o)
 .debug_info    0x00020dfe     0x1323 ../experiment2_bsp//libucosii_bsp.a(alt_malloc_lock.o)
 .debug_info    0x00022121     0x1bdd ../experiment2_bsp//libucosii_bsp.a(os_core.o)
 .debug_info    0x00023cfe     0x1122 ../experiment2_bsp//libucosii_bsp.a(os_dbg.o)
 .debug_info    0x00024e20     0x1238 ../experiment2_bsp//libucosii_bsp.a(os_flag.o)
 .debug_info    0x00026058      0x802 ../experiment2_bsp//libucosii_bsp.a(os_mem.o)
 .debug_info    0x0002685a     0x1072 ../experiment2_bsp//libucosii_bsp.a(os_q.o)
 .debug_info    0x000278cc      0xcda ../experiment2_bsp//libucosii_bsp.a(os_sem.o)
 .debug_info    0x000285a6     0x1350 ../experiment2_bsp//libucosii_bsp.a(os_task.o)
 .debug_info    0x000298f6      0x9d4 ../experiment2_bsp//libucosii_bsp.a(os_time.o)
 .debug_info    0x0002a2ca      0x961 ../experiment2_bsp//libucosii_bsp.a(alt_sys_init.o)
 .debug_info    0x0002ac2b      0x9c6 ../experiment2_bsp//libucosii_bsp.a(altera_avalon_jtag_uart_fd.o)
 .debug_info    0x0002b5f1      0x944 ../experiment2_bsp//libucosii_bsp.a(altera_avalon_jtag_uart_init.o)
 .debug_info    0x0002bf35      0x630 ../experiment2_bsp//libucosii_bsp.a(altera_avalon_jtag_uart_ioctl.o)
 .debug_info    0x0002c565      0x7ec ../experiment2_bsp//libucosii_bsp.a(altera_avalon_jtag_uart_read.o)
 .debug_info    0x0002cd51      0x7e3 ../experiment2_bsp//libucosii_bsp.a(altera_avalon_jtag_uart_write.o)
 .debug_info    0x0002d534      0x37f ../experiment2_bsp//libucosii_bsp.a(altera_avalon_timer_sc.o)
 .debug_info    0x0002d8b3      0x8f0 ../experiment2_bsp//libucosii_bsp.a(altera_up_avalon_character_lcd.o)
 .debug_info    0x0002e1a3      0x436 ../experiment2_bsp//libucosii_bsp.a(alt_alarm_start.o)
 .debug_info    0x0002e5d9      0x150 ../experiment2_bsp//libucosii_bsp.a(alt_dcache_flush_all.o)
 .debug_info    0x0002e729      0x2ab ../experiment2_bsp//libucosii_bsp.a(alt_dev_llist_insert.o)
 .debug_info    0x0002e9d4      0x103 ../experiment2_bsp//libucosii_bsp.a(alt_do_ctors.o)
 .debug_info    0x0002ead7      0x102 ../experiment2_bsp//libucosii_bsp.a(alt_do_dtors.o)
 .debug_info    0x0002ebd9      0x460 ../experiment2_bsp//libucosii_bsp.a(alt_find_dev.o)
 .debug_info    0x0002f039      0x150 ../experiment2_bsp//libucosii_bsp.a(alt_icache_flush_all.o)
 .debug_info    0x0002f189      0x487 ../experiment2_bsp//libucosii_bsp.a(alt_iic.o)
 .debug_info    0x0002f610      0x308 ../experiment2_bsp//libucosii_bsp.a(alt_iic_isr_register.o)
 .debug_info    0x0002f918      0x6dd ../experiment2_bsp//libucosii_bsp.a(alt_io_redirect.o)
 .debug_info    0x0002fff5       0x78 ../experiment2_bsp//libucosii_bsp.a(alt_irq_entry.o)
 .debug_info    0x0003006d      0x2ae ../experiment2_bsp//libucosii_bsp.a(alt_irq_handler.o)
 .debug_info    0x0003031b      0x55e ../experiment2_bsp//libucosii_bsp.a(alt_open.o)
 .debug_info    0x00030879      0x405 ../experiment2_bsp//libucosii_bsp.a(alt_tick.o)
 .debug_info    0x00030c7e      0x157 ../experiment2_bsp//libucosii_bsp.a(altera_nios2_qsys_irq.o)
 .debug_info    0x00030dd5       0x77 ../experiment2_bsp//libucosii_bsp.a(os_cpu_a.o)
 .debug_info    0x00030e4c     0x12c7 ../experiment2_bsp//libucosii_bsp.a(os_cpu_c.o)
 .debug_info    0x00032113       0x7e ../experiment2_bsp//libucosii_bsp.a(alt_exception_entry.o)
 .debug_info    0x00032191      0x467 ../experiment2_bsp//libucosii_bsp.a(alt_find_file.o)
 .debug_info    0x000325f8      0x5f9 ../experiment2_bsp//libucosii_bsp.a(alt_get_fd.o)
 .debug_info    0x00032bf1      0x181 /tools/altera/12.0/nios2eds/bin/gnu/H-i686-pc-linux-gnu/bin/../lib/gcc/nios2-elf/4.1.2/../../../../nios2-elf/lib/mno-hw-mul/libc.a(lib_a-atexit.o)
 .debug_info    0x00032d72      0x93f /tools/altera/12.0/nios2eds/bin/gnu/H-i686-pc-linux-gnu/bin/../lib/gcc/nios2-elf/4.1.2/../../../../nios2-elf/lib/mno-hw-mul/libc.a(lib_a-exit.o)
 .debug_info    0x000336b1      0x115 /tools/altera/12.0/nios2eds/bin/gnu/H-i686-pc-linux-gnu/bin/../lib/gcc/nios2-elf/4.1.2/../../../../nios2-elf/lib/mno-hw-mul/libc.a(lib_a-memcmp.o)
 .debug_info    0x000337c6      0x9c1 /tools/altera/12.0/nios2eds/bin/gnu/H-i686-pc-linux-gnu/bin/../lib/gcc/nios2-elf/4.1.2/../../../../nios2-elf/lib/mno-hw-mul/libc.a(lib_a-putc.o)
 .debug_info    0x00034187      0x9ae /tools/altera/12.0/nios2eds/bin/gnu/H-i686-pc-linux-gnu/bin/../lib/gcc/nios2-elf/4.1.2/../../../../nios2-elf/lib/mno-hw-mul/libc.a(lib_a-wbuf.o)
 .debug_info    0x00034b35      0x99c /tools/altera/12.0/nios2eds/bin/gnu/H-i686-pc-linux-gnu/bin/../lib/gcc/nios2-elf/4.1.2/../../../../nios2-elf/lib/mno-hw-mul/libc.a(lib_a-__atexit.o)
 .debug_info    0x000354d1      0x9e2 /tools/altera/12.0/nios2eds/bin/gnu/H-i686-pc-linux-gnu/bin/../lib/gcc/nios2-elf/4.1.2/../../../../nios2-elf/lib/mno-hw-mul/libc.a(lib_a-__call_atexit.o)
 .debug_info    0x00035eb3      0x1fc ../experiment2_bsp//libucosii_bsp.a(alt_exit.o)

.debug_abbrev   0x00000000     0xa305
 *(.debug_abbrev)
 .debug_abbrev  0x00000000       0x12 ../experiment2_bsp//obj/HAL/src/crt0.o
 .debug_abbrev  0x00000012       0xf6 obj/default/PB_button.o
 .debug_abbrev  0x00000108      0x195 obj/default/alt_ucosii_simple_error_check.o
 .debug_abbrev  0x0000029d      0x163 obj/default/experiment2.o
 .debug_abbrev  0x00000400      0x1a0 obj/default/tasks.o
 .debug_abbrev  0x000005a0       0xe0 /tools/altera/12.0/nios2eds/bin/gnu/H-i686-pc-linux-gnu/bin/../lib/gcc/nios2-elf/4.1.2/mno-hw-mul/libgcc.a(lib2-divmod.o)
 .debug_abbrev  0x00000680       0x7b /tools/altera/12.0/nios2eds/bin/gnu/H-i686-pc-linux-gnu/bin/../lib/gcc/nios2-elf/4.1.2/mno-hw-mul/libgcc.a(lib2-mul.o)
 .debug_abbrev  0x000006fb      0x197 /tools/altera/12.0/nios2eds/bin/gnu/H-i686-pc-linux-gnu/bin/../lib/gcc/nios2-elf/4.1.2/../../../../nios2-elf/lib/mno-hw-mul/libc.a(lib_a-fprintf.o)
 .debug_abbrev  0x00000892      0x1b1 /tools/altera/12.0/nios2eds/bin/gnu/H-i686-pc-linux-gnu/bin/../lib/gcc/nios2-elf/4.1.2/../../../../nios2-elf/lib/mno-hw-mul/libc.a(lib_a-fwrite.o)
 .debug_abbrev  0x00000a43      0x157 /tools/altera/12.0/nios2eds/bin/gnu/H-i686-pc-linux-gnu/bin/../lib/gcc/nios2-elf/4.1.2/../../../../nios2-elf/lib/mno-hw-mul/libc.a(lib_a-impure.o)
 .debug_abbrev  0x00000b9a      0x191 /tools/altera/12.0/nios2eds/bin/gnu/H-i686-pc-linux-gnu/bin/../lib/gcc/nios2-elf/4.1.2/../../../../nios2-elf/lib/mno-hw-mul/libc.a(lib_a-printf.o)
 .debug_abbrev  0x00000d2b      0x1ac /tools/altera/12.0/nios2eds/bin/gnu/H-i686-pc-linux-gnu/bin/../lib/gcc/nios2-elf/4.1.2/../../../../nios2-elf/lib/mno-hw-mul/libc.a(lib_a-puts.o)
 .debug_abbrev  0x00000ed7      0x185 /tools/altera/12.0/nios2eds/bin/gnu/H-i686-pc-linux-gnu/bin/../lib/gcc/nios2-elf/4.1.2/../../../../nios2-elf/lib/mno-hw-mul/libc.a(lib_a-rand.o)
 .debug_abbrev  0x0000105c       0x8b /tools/altera/12.0/nios2eds/bin/gnu/H-i686-pc-linux-gnu/bin/../lib/gcc/nios2-elf/4.1.2/../../../../nios2-elf/lib/mno-hw-mul/libc.a(lib_a-strlen.o)
 .debug_abbrev  0x000010e7      0x30a /tools/altera/12.0/nios2eds/bin/gnu/H-i686-pc-linux-gnu/bin/../lib/gcc/nios2-elf/4.1.2/../../../../nios2-elf/lib/mno-hw-mul/libc.a(lib_a-vfprintf.o)
 .debug_abbrev  0x000013f1      0x170 /tools/altera/12.0/nios2eds/bin/gnu/H-i686-pc-linux-gnu/bin/../lib/gcc/nios2-elf/4.1.2/../../../../nios2-elf/lib/mno-hw-mul/libc.a(lib_a-wsetup.o)
 .debug_abbrev  0x00001561      0x232 /tools/altera/12.0/nios2eds/bin/gnu/H-i686-pc-linux-gnu/bin/../lib/gcc/nios2-elf/4.1.2/../../../../nios2-elf/lib/mno-hw-mul/libc.a(lib_a-dtoa.o)
 .debug_abbrev  0x00001793      0x1c6 /tools/altera/12.0/nios2eds/bin/gnu/H-i686-pc-linux-gnu/bin/../lib/gcc/nios2-elf/4.1.2/../../../../nios2-elf/lib/mno-hw-mul/libc.a(lib_a-fflush.o)
 .debug_abbrev  0x00001959      0x24c /tools/altera/12.0/nios2eds/bin/gnu/H-i686-pc-linux-gnu/bin/../lib/gcc/nios2-elf/4.1.2/../../../../nios2-elf/lib/mno-hw-mul/libc.a(lib_a-findfp.o)
 .debug_abbrev  0x00001ba5      0x1d9 /tools/altera/12.0/nios2eds/bin/gnu/H-i686-pc-linux-gnu/bin/../lib/gcc/nios2-elf/4.1.2/../../../../nios2-elf/lib/mno-hw-mul/libc.a(lib_a-freer.o)
 .debug_abbrev  0x00001d7e      0x1a3 /tools/altera/12.0/nios2eds/bin/gnu/H-i686-pc-linux-gnu/bin/../lib/gcc/nios2-elf/4.1.2/../../../../nios2-elf/lib/mno-hw-mul/libc.a(lib_a-fvwrite.o)
 .debug_abbrev  0x00001f21      0x1e3 /tools/altera/12.0/nios2eds/bin/gnu/H-i686-pc-linux-gnu/bin/../lib/gcc/nios2-elf/4.1.2/../../../../nios2-elf/lib/mno-hw-mul/libc.a(lib_a-fwalk.o)
 .debug_abbrev  0x00002104      0x1ed /tools/altera/12.0/nios2eds/bin/gnu/H-i686-pc-linux-gnu/bin/../lib/gcc/nios2-elf/4.1.2/../../../../nios2-elf/lib/mno-hw-mul/libc.a(lib_a-locale.o)
 .debug_abbrev  0x000022f1      0x197 /tools/altera/12.0/nios2eds/bin/gnu/H-i686-pc-linux-gnu/bin/../lib/gcc/nios2-elf/4.1.2/../../../../nios2-elf/lib/mno-hw-mul/libc.a(lib_a-makebuf.o)
 .debug_abbrev  0x00002488      0x216 /tools/altera/12.0/nios2eds/bin/gnu/H-i686-pc-linux-gnu/bin/../lib/gcc/nios2-elf/4.1.2/../../../../nios2-elf/lib/mno-hw-mul/libc.a(lib_a-mallocr.o)
 .debug_abbrev  0x0000269e       0xb5 /tools/altera/12.0/nios2eds/bin/gnu/H-i686-pc-linux-gnu/bin/../lib/gcc/nios2-elf/4.1.2/../../../../nios2-elf/lib/mno-hw-mul/libc.a(lib_a-memchr.o)
 .debug_abbrev  0x00002753       0xb5 /tools/altera/12.0/nios2eds/bin/gnu/H-i686-pc-linux-gnu/bin/../lib/gcc/nios2-elf/4.1.2/../../../../nios2-elf/lib/mno-hw-mul/libc.a(lib_a-memcpy.o)
 .debug_abbrev  0x00002808       0xb5 /tools/altera/12.0/nios2eds/bin/gnu/H-i686-pc-linux-gnu/bin/../lib/gcc/nios2-elf/4.1.2/../../../../nios2-elf/lib/mno-hw-mul/libc.a(lib_a-memmove.o)
 .debug_abbrev  0x000028bd       0xb8 /tools/altera/12.0/nios2eds/bin/gnu/H-i686-pc-linux-gnu/bin/../lib/gcc/nios2-elf/4.1.2/../../../../nios2-elf/lib/mno-hw-mul/libc.a(lib_a-memset.o)
 .debug_abbrev  0x00002975      0x297 /tools/altera/12.0/nios2eds/bin/gnu/H-i686-pc-linux-gnu/bin/../lib/gcc/nios2-elf/4.1.2/../../../../nios2-elf/lib/mno-hw-mul/libc.a(lib_a-mprec.o)
 .debug_abbrev  0x00002c0c      0x1c3 /tools/altera/12.0/nios2eds/bin/gnu/H-i686-pc-linux-gnu/bin/../lib/gcc/nios2-elf/4.1.2/../../../../nios2-elf/lib/mno-hw-mul/libc.a(lib_a-reallocr.o)
 .debug_abbrev  0x00002dcf       0x79 /tools/altera/12.0/nios2eds/bin/gnu/H-i686-pc-linux-gnu/bin/../lib/gcc/nios2-elf/4.1.2/../../../../nios2-elf/lib/mno-hw-mul/libc.a(lib_a-s_isinfd.o)
 .debug_abbrev  0x00002e48       0x79 /tools/altera/12.0/nios2eds/bin/gnu/H-i686-pc-linux-gnu/bin/../lib/gcc/nios2-elf/4.1.2/../../../../nios2-elf/lib/mno-hw-mul/libc.a(lib_a-s_isnand.o)
 .debug_abbrev  0x00002ec1      0x18c /tools/altera/12.0/nios2eds/bin/gnu/H-i686-pc-linux-gnu/bin/../lib/gcc/nios2-elf/4.1.2/../../../../nios2-elf/lib/mno-hw-mul/libc.a(lib_a-sbrkr.o)
 .debug_abbrev  0x0000304d      0x1c9 /tools/altera/12.0/nios2eds/bin/gnu/H-i686-pc-linux-gnu/bin/../lib/gcc/nios2-elf/4.1.2/../../../../nios2-elf/lib/mno-hw-mul/libc.a(lib_a-stdio.o)
 .debug_abbrev  0x00003216       0x80 /tools/altera/12.0/nios2eds/bin/gnu/H-i686-pc-linux-gnu/bin/../lib/gcc/nios2-elf/4.1.2/../../../../nios2-elf/lib/mno-hw-mul/libc.a(lib_a-strcmp.o)
 .debug_abbrev  0x00003296      0x184 /tools/altera/12.0/nios2eds/bin/gnu/H-i686-pc-linux-gnu/bin/../lib/gcc/nios2-elf/4.1.2/../../../../nios2-elf/lib/mno-hw-mul/libc.a(lib_a-writer.o)
 .debug_abbrev  0x0000341a      0x1b8 /tools/altera/12.0/nios2eds/bin/gnu/H-i686-pc-linux-gnu/bin/../lib/gcc/nios2-elf/4.1.2/../../../../nios2-elf/lib/mno-hw-mul/libc.a(lib_a-callocr.o)
 .debug_abbrev  0x000035d2      0x17f /tools/altera/12.0/nios2eds/bin/gnu/H-i686-pc-linux-gnu/bin/../lib/gcc/nios2-elf/4.1.2/../../../../nios2-elf/lib/mno-hw-mul/libc.a(lib_a-closer.o)
 .debug_abbrev  0x00003751      0x1a7 /tools/altera/12.0/nios2eds/bin/gnu/H-i686-pc-linux-gnu/bin/../lib/gcc/nios2-elf/4.1.2/../../../../nios2-elf/lib/mno-hw-mul/libc.a(lib_a-fclose.o)
 .debug_abbrev  0x000038f8      0x18e /tools/altera/12.0/nios2eds/bin/gnu/H-i686-pc-linux-gnu/bin/../lib/gcc/nios2-elf/4.1.2/../../../../nios2-elf/lib/mno-hw-mul/libc.a(lib_a-fstatr.o)
 .debug_abbrev  0x00003a86       0x3b /tools/altera/12.0/nios2eds/bin/gnu/H-i686-pc-linux-gnu/bin/../lib/gcc/nios2-elf/4.1.2/../../../../nios2-elf/lib/mno-hw-mul/libc.a(lib_a-int_errno.o)
 .debug_abbrev  0x00003ac1      0x17f /tools/altera/12.0/nios2eds/bin/gnu/H-i686-pc-linux-gnu/bin/../lib/gcc/nios2-elf/4.1.2/../../../../nios2-elf/lib/mno-hw-mul/libc.a(lib_a-isattyr.o)
 .debug_abbrev  0x00003c40      0x18e /tools/altera/12.0/nios2eds/bin/gnu/H-i686-pc-linux-gnu/bin/../lib/gcc/nios2-elf/4.1.2/../../../../nios2-elf/lib/mno-hw-mul/libc.a(lib_a-lseekr.o)
 .debug_abbrev  0x00003dce      0x17f /tools/altera/12.0/nios2eds/bin/gnu/H-i686-pc-linux-gnu/bin/../lib/gcc/nios2-elf/4.1.2/../../../../nios2-elf/lib/mno-hw-mul/libc.a(lib_a-readr.o)
 .debug_abbrev  0x00003f4d       0xfb /tools/altera/12.0/nios2eds/bin/gnu/H-i686-pc-linux-gnu/bin/../lib/gcc/nios2-elf/4.1.2/mno-hw-mul/libgcc.a(_muldi3.o)
 .debug_abbrev  0x00004048      0x16b /tools/altera/12.0/nios2eds/bin/gnu/H-i686-pc-linux-gnu/bin/../lib/gcc/nios2-elf/4.1.2/mno-hw-mul/libgcc.a(_udivdi3.o)
 .debug_abbrev  0x000041b3      0x18e /tools/altera/12.0/nios2eds/bin/gnu/H-i686-pc-linux-gnu/bin/../lib/gcc/nios2-elf/4.1.2/mno-hw-mul/libgcc.a(_umoddi3.o)
 .debug_abbrev  0x00004341      0x1d2 /tools/altera/12.0/nios2eds/bin/gnu/H-i686-pc-linux-gnu/bin/../lib/gcc/nios2-elf/4.1.2/mno-hw-mul/libgcc.a(_addsub_df.o)
 .debug_abbrev  0x00004513      0x204 /tools/altera/12.0/nios2eds/bin/gnu/H-i686-pc-linux-gnu/bin/../lib/gcc/nios2-elf/4.1.2/mno-hw-mul/libgcc.a(_mul_df.o)
 .debug_abbrev  0x00004717      0x1e3 /tools/altera/12.0/nios2eds/bin/gnu/H-i686-pc-linux-gnu/bin/../lib/gcc/nios2-elf/4.1.2/mno-hw-mul/libgcc.a(_div_df.o)
 .debug_abbrev  0x000048fa      0x151 /tools/altera/12.0/nios2eds/bin/gnu/H-i686-pc-linux-gnu/bin/../lib/gcc/nios2-elf/4.1.2/mno-hw-mul/libgcc.a(_eq_df.o)
 .debug_abbrev  0x00004a4b      0x151 /tools/altera/12.0/nios2eds/bin/gnu/H-i686-pc-linux-gnu/bin/../lib/gcc/nios2-elf/4.1.2/mno-hw-mul/libgcc.a(_ne_df.o)
 .debug_abbrev  0x00004b9c      0x151 /tools/altera/12.0/nios2eds/bin/gnu/H-i686-pc-linux-gnu/bin/../lib/gcc/nios2-elf/4.1.2/mno-hw-mul/libgcc.a(_gt_df.o)
 .debug_abbrev  0x00004ced      0x151 /tools/altera/12.0/nios2eds/bin/gnu/H-i686-pc-linux-gnu/bin/../lib/gcc/nios2-elf/4.1.2/mno-hw-mul/libgcc.a(_ge_df.o)
 .debug_abbrev  0x00004e3e      0x151 /tools/altera/12.0/nios2eds/bin/gnu/H-i686-pc-linux-gnu/bin/../lib/gcc/nios2-elf/4.1.2/mno-hw-mul/libgcc.a(_lt_df.o)
 .debug_abbrev  0x00004f8f      0x13f /tools/altera/12.0/nios2eds/bin/gnu/H-i686-pc-linux-gnu/bin/../lib/gcc/nios2-elf/4.1.2/mno-hw-mul/libgcc.a(_si_to_df.o)
 .debug_abbrev  0x000050ce      0x176 /tools/altera/12.0/nios2eds/bin/gnu/H-i686-pc-linux-gnu/bin/../lib/gcc/nios2-elf/4.1.2/mno-hw-mul/libgcc.a(_df_to_si.o)
 .debug_abbrev  0x00005244       0xba /tools/altera/12.0/nios2eds/bin/gnu/H-i686-pc-linux-gnu/bin/../lib/gcc/nios2-elf/4.1.2/mno-hw-mul/libgcc.a(_thenan_df.o)
 .debug_abbrev  0x000052fe      0x155 /tools/altera/12.0/nios2eds/bin/gnu/H-i686-pc-linux-gnu/bin/../lib/gcc/nios2-elf/4.1.2/mno-hw-mul/libgcc.a(_usi_to_df.o)
 .debug_abbrev  0x00005453       0x61 /tools/altera/12.0/nios2eds/bin/gnu/H-i686-pc-linux-gnu/bin/../lib/gcc/nios2-elf/4.1.2/mno-hw-mul/libgcc.a(_clz.o)
 .debug_abbrev  0x000054b4       0xb9 /tools/altera/12.0/nios2eds/bin/gnu/H-i686-pc-linux-gnu/bin/../lib/gcc/nios2-elf/4.1.2/mno-hw-mul/libgcc.a(_clzsi2.o)
 .debug_abbrev  0x0000556d      0x1b1 /tools/altera/12.0/nios2eds/bin/gnu/H-i686-pc-linux-gnu/bin/../lib/gcc/nios2-elf/4.1.2/mno-hw-mul/libgcc.a(_pack_df.o)
 .debug_abbrev  0x0000571e      0x149 /tools/altera/12.0/nios2eds/bin/gnu/H-i686-pc-linux-gnu/bin/../lib/gcc/nios2-elf/4.1.2/mno-hw-mul/libgcc.a(_unpack_df.o)
 .debug_abbrev  0x00005867      0x132 /tools/altera/12.0/nios2eds/bin/gnu/H-i686-pc-linux-gnu/bin/../lib/gcc/nios2-elf/4.1.2/mno-hw-mul/libgcc.a(_fpcmp_parts_df.o)
 .debug_abbrev  0x00005999      0x102 ../experiment2_bsp//libucosii_bsp.a(alt_close.o)
 .debug_abbrev  0x00005a9b      0x10a ../experiment2_bsp//libucosii_bsp.a(alt_dev.o)
 .debug_abbrev  0x00005ba5       0x5e ../experiment2_bsp//libucosii_bsp.a(alt_errno.o)
 .debug_abbrev  0x00005c03      0x102 ../experiment2_bsp//libucosii_bsp.a(alt_fstat.o)
 .debug_abbrev  0x00005d05      0x180 ../experiment2_bsp//libucosii_bsp.a(alt_irq_register.o)
 .debug_abbrev  0x00005e85       0x44 ../experiment2_bsp//libucosii_bsp.a(alt_irq_vars.o)
 .debug_abbrev  0x00005ec9      0x102 ../experiment2_bsp//libucosii_bsp.a(alt_isatty.o)
 .debug_abbrev  0x00005fcb       0x88 ../experiment2_bsp//libucosii_bsp.a(alt_load.o)
 .debug_abbrev  0x00006053      0x102 ../experiment2_bsp//libucosii_bsp.a(alt_lseek.o)
 .debug_abbrev  0x00006155      0x120 ../experiment2_bsp//libucosii_bsp.a(alt_main.o)
 .debug_abbrev  0x00006275       0x91 ../experiment2_bsp//libucosii_bsp.a(alt_printf.o)
 .debug_abbrev  0x00006306      0x17f ../experiment2_bsp//libucosii_bsp.a(alt_putchar.o)
 .debug_abbrev  0x00006485      0x102 ../experiment2_bsp//libucosii_bsp.a(alt_read.o)
 .debug_abbrev  0x00006587       0xd3 ../experiment2_bsp//libucosii_bsp.a(alt_release_fd.o)
 .debug_abbrev  0x0000665a      0x115 ../experiment2_bsp//libucosii_bsp.a(alt_sbrk.o)
 .debug_abbrev  0x0000676f      0x107 ../experiment2_bsp//libucosii_bsp.a(alt_write.o)
 .debug_abbrev  0x00006876      0x1b3 ../experiment2_bsp//libucosii_bsp.a(alt_env_lock.o)
 .debug_abbrev  0x00006a29      0x234 ../experiment2_bsp//libucosii_bsp.a(alt_malloc_lock.o)
 .debug_abbrev  0x00006c5d      0x2aa ../experiment2_bsp//libucosii_bsp.a(os_core.o)
 .debug_abbrev  0x00006f07      0x114 ../experiment2_bsp//libucosii_bsp.a(os_dbg.o)
 .debug_abbrev  0x0000701b      0x21b ../experiment2_bsp//libucosii_bsp.a(os_flag.o)
 .debug_abbrev  0x00007236      0x235 ../experiment2_bsp//libucosii_bsp.a(os_mem.o)
 .debug_abbrev  0x0000746b      0x20d ../experiment2_bsp//libucosii_bsp.a(os_q.o)
 .debug_abbrev  0x00007678      0x20d ../experiment2_bsp//libucosii_bsp.a(os_sem.o)
 .debug_abbrev  0x00007885      0x20e ../experiment2_bsp//libucosii_bsp.a(os_task.o)
 .debug_abbrev  0x00007a93      0x1de ../experiment2_bsp//libucosii_bsp.a(os_time.o)
 .debug_abbrev  0x00007c71      0x1a3 ../experiment2_bsp//libucosii_bsp.a(alt_sys_init.o)
 .debug_abbrev  0x00007e14      0x13c ../experiment2_bsp//libucosii_bsp.a(altera_avalon_jtag_uart_fd.o)
 .debug_abbrev  0x00007f50      0x21e ../experiment2_bsp//libucosii_bsp.a(altera_avalon_jtag_uart_init.o)
 .debug_abbrev  0x0000816e      0x135 ../experiment2_bsp//libucosii_bsp.a(altera_avalon_jtag_uart_ioctl.o)
 .debug_abbrev  0x000082a3      0x1ee ../experiment2_bsp//libucosii_bsp.a(altera_avalon_jtag_uart_read.o)
 .debug_abbrev  0x00008491      0x1ea ../experiment2_bsp//libucosii_bsp.a(altera_avalon_jtag_uart_write.o)
 .debug_abbrev  0x0000867b      0x137 ../experiment2_bsp//libucosii_bsp.a(altera_avalon_timer_sc.o)
 .debug_abbrev  0x000087b2      0x127 ../experiment2_bsp//libucosii_bsp.a(altera_up_avalon_character_lcd.o)
 .debug_abbrev  0x000088d9      0x172 ../experiment2_bsp//libucosii_bsp.a(alt_alarm_start.o)
 .debug_abbrev  0x00008a4b       0x3f ../experiment2_bsp//libucosii_bsp.a(alt_dcache_flush_all.o)
 .debug_abbrev  0x00008a8a       0xf6 ../experiment2_bsp//libucosii_bsp.a(alt_dev_llist_insert.o)
 .debug_abbrev  0x00008b80       0x76 ../experiment2_bsp//libucosii_bsp.a(alt_do_ctors.o)
 .debug_abbrev  0x00008bf6       0x76 ../experiment2_bsp//libucosii_bsp.a(alt_do_dtors.o)
 .debug_abbrev  0x00008c6c       0xd6 ../experiment2_bsp//libucosii_bsp.a(alt_find_dev.o)
 .debug_abbrev  0x00008d42       0x3f ../experiment2_bsp//libucosii_bsp.a(alt_icache_flush_all.o)
 .debug_abbrev  0x00008d81      0x134 ../experiment2_bsp//libucosii_bsp.a(alt_iic.o)
 .debug_abbrev  0x00008eb5      0x14e ../experiment2_bsp//libucosii_bsp.a(alt_iic_isr_register.o)
 .debug_abbrev  0x00009003       0xf7 ../experiment2_bsp//libucosii_bsp.a(alt_io_redirect.o)
 .debug_abbrev  0x000090fa       0x12 ../experiment2_bsp//libucosii_bsp.a(alt_irq_entry.o)
 .debug_abbrev  0x0000910c      0x124 ../experiment2_bsp//libucosii_bsp.a(alt_irq_handler.o)
 .debug_abbrev  0x00009230      0x119 ../experiment2_bsp//libucosii_bsp.a(alt_open.o)
 .debug_abbrev  0x00009349      0x150 ../experiment2_bsp//libucosii_bsp.a(alt_tick.o)
 .debug_abbrev  0x00009499       0x3f ../experiment2_bsp//libucosii_bsp.a(altera_nios2_qsys_irq.o)
 .debug_abbrev  0x000094d8       0x14 ../experiment2_bsp//libucosii_bsp.a(os_cpu_a.o)
 .debug_abbrev  0x000094ec      0x1d0 ../experiment2_bsp//libucosii_bsp.a(os_cpu_c.o)
 .debug_abbrev  0x000096bc       0x12 ../experiment2_bsp//libucosii_bsp.a(alt_exception_entry.o)
 .debug_abbrev  0x000096ce       0xd6 ../experiment2_bsp//libucosii_bsp.a(alt_find_file.o)
 .debug_abbrev  0x000097a4      0x173 ../experiment2_bsp//libucosii_bsp.a(alt_get_fd.o)
 .debug_abbrev  0x00009917       0xb7 /tools/altera/12.0/nios2eds/bin/gnu/H-i686-pc-linux-gnu/bin/../lib/gcc/nios2-elf/4.1.2/../../../../nios2-elf/lib/mno-hw-mul/libc.a(lib_a-atexit.o)
 .debug_abbrev  0x000099ce      0x16e /tools/altera/12.0/nios2eds/bin/gnu/H-i686-pc-linux-gnu/bin/../lib/gcc/nios2-elf/4.1.2/../../../../nios2-elf/lib/mno-hw-mul/libc.a(lib_a-exit.o)
 .debug_abbrev  0x00009b3c       0x7c /tools/altera/12.0/nios2eds/bin/gnu/H-i686-pc-linux-gnu/bin/../lib/gcc/nios2-elf/4.1.2/../../../../nios2-elf/lib/mno-hw-mul/libc.a(lib_a-memcmp.o)
 .debug_abbrev  0x00009bb8      0x17f /tools/altera/12.0/nios2eds/bin/gnu/H-i686-pc-linux-gnu/bin/../lib/gcc/nios2-elf/4.1.2/../../../../nios2-elf/lib/mno-hw-mul/libc.a(lib_a-putc.o)
 .debug_abbrev  0x00009d37      0x198 /tools/altera/12.0/nios2eds/bin/gnu/H-i686-pc-linux-gnu/bin/../lib/gcc/nios2-elf/4.1.2/../../../../nios2-elf/lib/mno-hw-mul/libc.a(lib_a-wbuf.o)
 .debug_abbrev  0x00009ecf      0x1ae /tools/altera/12.0/nios2eds/bin/gnu/H-i686-pc-linux-gnu/bin/../lib/gcc/nios2-elf/4.1.2/../../../../nios2-elf/lib/mno-hw-mul/libc.a(lib_a-__atexit.o)
 .debug_abbrev  0x0000a07d      0x1de /tools/altera/12.0/nios2eds/bin/gnu/H-i686-pc-linux-gnu/bin/../lib/gcc/nios2-elf/4.1.2/../../../../nios2-elf/lib/mno-hw-mul/libc.a(lib_a-__call_atexit.o)
 .debug_abbrev  0x0000a25b       0xaa ../experiment2_bsp//libucosii_bsp.a(alt_exit.o)

.debug_line     0x00000000    0x1dc1c
 *(.debug_line)
 .debug_line    0x00000000       0x66 ../experiment2_bsp//obj/HAL/src/crt0.o
 .debug_line    0x00000066      0x414 obj/default/PB_button.o
 .debug_line    0x0000047a      0x403 obj/default/alt_ucosii_simple_error_check.o
 .debug_line    0x0000087d      0x46e obj/default/experiment2.o
 .debug_line    0x00000ceb      0x942 obj/default/tasks.o
 .debug_line    0x0000162d      0x2c3 /tools/altera/12.0/nios2eds/bin/gnu/H-i686-pc-linux-gnu/bin/../lib/gcc/nios2-elf/4.1.2/mno-hw-mul/libgcc.a(lib2-divmod.o)
 .debug_line    0x000018f0      0x18e /tools/altera/12.0/nios2eds/bin/gnu/H-i686-pc-linux-gnu/bin/../lib/gcc/nios2-elf/4.1.2/mno-hw-mul/libgcc.a(lib2-mul.o)
 .debug_line    0x00001a7e      0x281 /tools/altera/12.0/nios2eds/bin/gnu/H-i686-pc-linux-gnu/bin/../lib/gcc/nios2-elf/4.1.2/../../../../nios2-elf/lib/mno-hw-mul/libc.a(lib_a-fprintf.o)
 .debug_line    0x00001cff      0x2de /tools/altera/12.0/nios2eds/bin/gnu/H-i686-pc-linux-gnu/bin/../lib/gcc/nios2-elf/4.1.2/../../../../nios2-elf/lib/mno-hw-mul/libc.a(lib_a-fwrite.o)
 .debug_line    0x00001fdd      0x227 /tools/altera/12.0/nios2eds/bin/gnu/H-i686-pc-linux-gnu/bin/../lib/gcc/nios2-elf/4.1.2/../../../../nios2-elf/lib/mno-hw-mul/libc.a(lib_a-impure.o)
 .debug_line    0x00002204      0x298 /tools/altera/12.0/nios2eds/bin/gnu/H-i686-pc-linux-gnu/bin/../lib/gcc/nios2-elf/4.1.2/../../../../nios2-elf/lib/mno-hw-mul/libc.a(lib_a-printf.o)
 .debug_line    0x0000249c      0x2f4 /tools/altera/12.0/nios2eds/bin/gnu/H-i686-pc-linux-gnu/bin/../lib/gcc/nios2-elf/4.1.2/../../../../nios2-elf/lib/mno-hw-mul/libc.a(lib_a-puts.o)
 .debug_line    0x00002790      0x23a /tools/altera/12.0/nios2eds/bin/gnu/H-i686-pc-linux-gnu/bin/../lib/gcc/nios2-elf/4.1.2/../../../../nios2-elf/lib/mno-hw-mul/libc.a(lib_a-rand.o)
 .debug_line    0x000029ca      0x267 /tools/altera/12.0/nios2eds/bin/gnu/H-i686-pc-linux-gnu/bin/../lib/gcc/nios2-elf/4.1.2/../../../../nios2-elf/lib/mno-hw-mul/libc.a(lib_a-strlen.o)
 .debug_line    0x00002c31     0x1109 /tools/altera/12.0/nios2eds/bin/gnu/H-i686-pc-linux-gnu/bin/../lib/gcc/nios2-elf/4.1.2/../../../../nios2-elf/lib/mno-hw-mul/libc.a(lib_a-vfprintf.o)
 .debug_line    0x00003d3a      0x2ed /tools/altera/12.0/nios2eds/bin/gnu/H-i686-pc-linux-gnu/bin/../lib/gcc/nios2-elf/4.1.2/../../../../nios2-elf/lib/mno-hw-mul/libc.a(lib_a-wsetup.o)
 .debug_line    0x00004027     0x1303 /tools/altera/12.0/nios2eds/bin/gnu/H-i686-pc-linux-gnu/bin/../lib/gcc/nios2-elf/4.1.2/../../../../nios2-elf/lib/mno-hw-mul/libc.a(lib_a-dtoa.o)
 .debug_line    0x0000532a      0x40a /tools/altera/12.0/nios2eds/bin/gnu/H-i686-pc-linux-gnu/bin/../lib/gcc/nios2-elf/4.1.2/../../../../nios2-elf/lib/mno-hw-mul/libc.a(lib_a-fflush.o)
 .debug_line    0x00005734      0x606 /tools/altera/12.0/nios2eds/bin/gnu/H-i686-pc-linux-gnu/bin/../lib/gcc/nios2-elf/4.1.2/../../../../nios2-elf/lib/mno-hw-mul/libc.a(lib_a-findfp.o)
 .debug_line    0x00005d3a      0x5e8 /tools/altera/12.0/nios2eds/bin/gnu/H-i686-pc-linux-gnu/bin/../lib/gcc/nios2-elf/4.1.2/../../../../nios2-elf/lib/mno-hw-mul/libc.a(lib_a-freer.o)
 .debug_line    0x00006322      0x63e /tools/altera/12.0/nios2eds/bin/gnu/H-i686-pc-linux-gnu/bin/../lib/gcc/nios2-elf/4.1.2/../../../../nios2-elf/lib/mno-hw-mul/libc.a(lib_a-fvwrite.o)
 .debug_line    0x00006960      0x347 /tools/altera/12.0/nios2eds/bin/gnu/H-i686-pc-linux-gnu/bin/../lib/gcc/nios2-elf/4.1.2/../../../../nios2-elf/lib/mno-hw-mul/libc.a(lib_a-fwalk.o)
 .debug_line    0x00006ca7      0x2c5 /tools/altera/12.0/nios2eds/bin/gnu/H-i686-pc-linux-gnu/bin/../lib/gcc/nios2-elf/4.1.2/../../../../nios2-elf/lib/mno-hw-mul/libc.a(lib_a-locale.o)
 .debug_line    0x00006f6c      0x3c0 /tools/altera/12.0/nios2eds/bin/gnu/H-i686-pc-linux-gnu/bin/../lib/gcc/nios2-elf/4.1.2/../../../../nios2-elf/lib/mno-hw-mul/libc.a(lib_a-makebuf.o)
 .debug_line    0x0000732c      0x807 /tools/altera/12.0/nios2eds/bin/gnu/H-i686-pc-linux-gnu/bin/../lib/gcc/nios2-elf/4.1.2/../../../../nios2-elf/lib/mno-hw-mul/libc.a(lib_a-mallocr.o)
 .debug_line    0x00007b33      0x2fd /tools/altera/12.0/nios2eds/bin/gnu/H-i686-pc-linux-gnu/bin/../lib/gcc/nios2-elf/4.1.2/../../../../nios2-elf/lib/mno-hw-mul/libc.a(lib_a-memchr.o)
 .debug_line    0x00007e30      0x1ac /tools/altera/12.0/nios2eds/bin/gnu/H-i686-pc-linux-gnu/bin/../lib/gcc/nios2-elf/4.1.2/../../../../nios2-elf/lib/mno-hw-mul/libc.a(lib_a-memcpy.o)
 .debug_line    0x00007fdc      0x304 /tools/altera/12.0/nios2eds/bin/gnu/H-i686-pc-linux-gnu/bin/../lib/gcc/nios2-elf/4.1.2/../../../../nios2-elf/lib/mno-hw-mul/libc.a(lib_a-memmove.o)
 .debug_line    0x000082e0      0x2fb /tools/altera/12.0/nios2eds/bin/gnu/H-i686-pc-linux-gnu/bin/../lib/gcc/nios2-elf/4.1.2/../../../../nios2-elf/lib/mno-hw-mul/libc.a(lib_a-memset.o)
 .debug_line    0x000085db     0x1258 /tools/altera/12.0/nios2eds/bin/gnu/H-i686-pc-linux-gnu/bin/../lib/gcc/nios2-elf/4.1.2/../../../../nios2-elf/lib/mno-hw-mul/libc.a(lib_a-mprec.o)
 .debug_line    0x00009833      0x587 /tools/altera/12.0/nios2eds/bin/gnu/H-i686-pc-linux-gnu/bin/../lib/gcc/nios2-elf/4.1.2/../../../../nios2-elf/lib/mno-hw-mul/libc.a(lib_a-reallocr.o)
 .debug_line    0x00009dba      0x21f /tools/altera/12.0/nios2eds/bin/gnu/H-i686-pc-linux-gnu/bin/../lib/gcc/nios2-elf/4.1.2/../../../../nios2-elf/lib/mno-hw-mul/libc.a(lib_a-s_isinfd.o)
 .debug_line    0x00009fd9      0x217 /tools/altera/12.0/nios2eds/bin/gnu/H-i686-pc-linux-gnu/bin/../lib/gcc/nios2-elf/4.1.2/../../../../nios2-elf/lib/mno-hw-mul/libc.a(lib_a-s_isnand.o)
 .debug_line    0x0000a1f0      0x293 /tools/altera/12.0/nios2eds/bin/gnu/H-i686-pc-linux-gnu/bin/../lib/gcc/nios2-elf/4.1.2/../../../../nios2-elf/lib/mno-hw-mul/libc.a(lib_a-sbrkr.o)
 .debug_line    0x0000a483      0x389 /tools/altera/12.0/nios2eds/bin/gnu/H-i686-pc-linux-gnu/bin/../lib/gcc/nios2-elf/4.1.2/../../../../nios2-elf/lib/mno-hw-mul/libc.a(lib_a-stdio.o)
 .debug_line    0x0000a80c      0x2cf /tools/altera/12.0/nios2eds/bin/gnu/H-i686-pc-linux-gnu/bin/../lib/gcc/nios2-elf/4.1.2/../../../../nios2-elf/lib/mno-hw-mul/libc.a(lib_a-strcmp.o)
 .debug_line    0x0000aadb      0x294 /tools/altera/12.0/nios2eds/bin/gnu/H-i686-pc-linux-gnu/bin/../lib/gcc/nios2-elf/4.1.2/../../../../nios2-elf/lib/mno-hw-mul/libc.a(lib_a-writer.o)
 .debug_line    0x0000ad6f      0x259 /tools/altera/12.0/nios2eds/bin/gnu/H-i686-pc-linux-gnu/bin/../lib/gcc/nios2-elf/4.1.2/../../../../nios2-elf/lib/mno-hw-mul/libc.a(lib_a-callocr.o)
 .debug_line    0x0000afc8      0x294 /tools/altera/12.0/nios2eds/bin/gnu/H-i686-pc-linux-gnu/bin/../lib/gcc/nios2-elf/4.1.2/../../../../nios2-elf/lib/mno-hw-mul/libc.a(lib_a-closer.o)
 .debug_line    0x0000b25c      0x2e5 /tools/altera/12.0/nios2eds/bin/gnu/H-i686-pc-linux-gnu/bin/../lib/gcc/nios2-elf/4.1.2/../../../../nios2-elf/lib/mno-hw-mul/libc.a(lib_a-fclose.o)
 .debug_line    0x0000b541      0x261 /tools/altera/12.0/nios2eds/bin/gnu/H-i686-pc-linux-gnu/bin/../lib/gcc/nios2-elf/4.1.2/../../../../nios2-elf/lib/mno-hw-mul/libc.a(lib_a-fstatr.o)
 .debug_line    0x0000b7a2      0x1dc /tools/altera/12.0/nios2eds/bin/gnu/H-i686-pc-linux-gnu/bin/../lib/gcc/nios2-elf/4.1.2/../../../../nios2-elf/lib/mno-hw-mul/libc.a(lib_a-int_errno.o)
 .debug_line    0x0000b97e      0x295 /tools/altera/12.0/nios2eds/bin/gnu/H-i686-pc-linux-gnu/bin/../lib/gcc/nios2-elf/4.1.2/../../../../nios2-elf/lib/mno-hw-mul/libc.a(lib_a-isattyr.o)
 .debug_line    0x0000bc13      0x294 /tools/altera/12.0/nios2eds/bin/gnu/H-i686-pc-linux-gnu/bin/../lib/gcc/nios2-elf/4.1.2/../../../../nios2-elf/lib/mno-hw-mul/libc.a(lib_a-lseekr.o)
 .debug_line    0x0000bea7      0x293 /tools/altera/12.0/nios2eds/bin/gnu/H-i686-pc-linux-gnu/bin/../lib/gcc/nios2-elf/4.1.2/../../../../nios2-elf/lib/mno-hw-mul/libc.a(lib_a-readr.o)
 .debug_line    0x0000c13a      0x1c3 /tools/altera/12.0/nios2eds/bin/gnu/H-i686-pc-linux-gnu/bin/../lib/gcc/nios2-elf/4.1.2/mno-hw-mul/libgcc.a(_muldi3.o)
 .debug_line    0x0000c2fd      0x366 /tools/altera/12.0/nios2eds/bin/gnu/H-i686-pc-linux-gnu/bin/../lib/gcc/nios2-elf/4.1.2/mno-hw-mul/libgcc.a(_udivdi3.o)
 .debug_line    0x0000c663      0x479 /tools/altera/12.0/nios2eds/bin/gnu/H-i686-pc-linux-gnu/bin/../lib/gcc/nios2-elf/4.1.2/mno-hw-mul/libgcc.a(_umoddi3.o)
 .debug_line    0x0000cadc      0x430 /tools/altera/12.0/nios2eds/bin/gnu/H-i686-pc-linux-gnu/bin/../lib/gcc/nios2-elf/4.1.2/mno-hw-mul/libgcc.a(_addsub_df.o)
 .debug_line    0x0000cf0c      0x3e5 /tools/altera/12.0/nios2eds/bin/gnu/H-i686-pc-linux-gnu/bin/../lib/gcc/nios2-elf/4.1.2/mno-hw-mul/libgcc.a(_mul_df.o)
 .debug_line    0x0000d2f1      0x301 /tools/altera/12.0/nios2eds/bin/gnu/H-i686-pc-linux-gnu/bin/../lib/gcc/nios2-elf/4.1.2/mno-hw-mul/libgcc.a(_div_df.o)
 .debug_line    0x0000d5f2      0x129 /tools/altera/12.0/nios2eds/bin/gnu/H-i686-pc-linux-gnu/bin/../lib/gcc/nios2-elf/4.1.2/mno-hw-mul/libgcc.a(_eq_df.o)
 .debug_line    0x0000d71b      0x129 /tools/altera/12.0/nios2eds/bin/gnu/H-i686-pc-linux-gnu/bin/../lib/gcc/nios2-elf/4.1.2/mno-hw-mul/libgcc.a(_ne_df.o)
 .debug_line    0x0000d844      0x129 /tools/altera/12.0/nios2eds/bin/gnu/H-i686-pc-linux-gnu/bin/../lib/gcc/nios2-elf/4.1.2/mno-hw-mul/libgcc.a(_gt_df.o)
 .debug_line    0x0000d96d      0x129 /tools/altera/12.0/nios2eds/bin/gnu/H-i686-pc-linux-gnu/bin/../lib/gcc/nios2-elf/4.1.2/mno-hw-mul/libgcc.a(_ge_df.o)
 .debug_line    0x0000da96      0x129 /tools/altera/12.0/nios2eds/bin/gnu/H-i686-pc-linux-gnu/bin/../lib/gcc/nios2-elf/4.1.2/mno-hw-mul/libgcc.a(_lt_df.o)
 .debug_line    0x0000dbbf      0x175 /tools/altera/12.0/nios2eds/bin/gnu/H-i686-pc-linux-gnu/bin/../lib/gcc/nios2-elf/4.1.2/mno-hw-mul/libgcc.a(_si_to_df.o)
 .debug_line    0x0000dd34      0x149 /tools/altera/12.0/nios2eds/bin/gnu/H-i686-pc-linux-gnu/bin/../lib/gcc/nios2-elf/4.1.2/mno-hw-mul/libgcc.a(_df_to_si.o)
 .debug_line    0x0000de7d       0x94 /tools/altera/12.0/nios2eds/bin/gnu/H-i686-pc-linux-gnu/bin/../lib/gcc/nios2-elf/4.1.2/mno-hw-mul/libgcc.a(_thenan_df.o)
 .debug_line    0x0000df11      0x189 /tools/altera/12.0/nios2eds/bin/gnu/H-i686-pc-linux-gnu/bin/../lib/gcc/nios2-elf/4.1.2/mno-hw-mul/libgcc.a(_usi_to_df.o)
 .debug_line    0x0000e09a      0x11e /tools/altera/12.0/nios2eds/bin/gnu/H-i686-pc-linux-gnu/bin/../lib/gcc/nios2-elf/4.1.2/mno-hw-mul/libgcc.a(_clz.o)
 .debug_line    0x0000e1b8      0x179 /tools/altera/12.0/nios2eds/bin/gnu/H-i686-pc-linux-gnu/bin/../lib/gcc/nios2-elf/4.1.2/mno-hw-mul/libgcc.a(_clzsi2.o)
 .debug_line    0x0000e331      0x222 /tools/altera/12.0/nios2eds/bin/gnu/H-i686-pc-linux-gnu/bin/../lib/gcc/nios2-elf/4.1.2/mno-hw-mul/libgcc.a(_pack_df.o)
 .debug_line    0x0000e553      0x1e4 /tools/altera/12.0/nios2eds/bin/gnu/H-i686-pc-linux-gnu/bin/../lib/gcc/nios2-elf/4.1.2/mno-hw-mul/libgcc.a(_unpack_df.o)
 .debug_line    0x0000e737      0x187 /tools/altera/12.0/nios2eds/bin/gnu/H-i686-pc-linux-gnu/bin/../lib/gcc/nios2-elf/4.1.2/mno-hw-mul/libgcc.a(_fpcmp_parts_df.o)
 .debug_line    0x0000e8be      0x305 ../experiment2_bsp//libucosii_bsp.a(alt_close.o)
 .debug_line    0x0000ebc3      0x2c6 ../experiment2_bsp//libucosii_bsp.a(alt_dev.o)
 .debug_line    0x0000ee89      0x1b6 ../experiment2_bsp//libucosii_bsp.a(alt_errno.o)
 .debug_line    0x0000f03f      0x30d ../experiment2_bsp//libucosii_bsp.a(alt_fstat.o)
 .debug_line    0x0000f34c      0x379 ../experiment2_bsp//libucosii_bsp.a(alt_irq_register.o)
 .debug_line    0x0000f6c5       0x72 ../experiment2_bsp//libucosii_bsp.a(alt_irq_vars.o)
 .debug_line    0x0000f737      0x30e ../experiment2_bsp//libucosii_bsp.a(alt_isatty.o)
 .debug_line    0x0000fa45      0x223 ../experiment2_bsp//libucosii_bsp.a(alt_load.o)
 .debug_line    0x0000fc68      0x30d ../experiment2_bsp//libucosii_bsp.a(alt_lseek.o)
 .debug_line    0x0000ff75      0x355 ../experiment2_bsp//libucosii_bsp.a(alt_main.o)
 .debug_line    0x000102ca      0x1e0 ../experiment2_bsp//libucosii_bsp.a(alt_printf.o)
 .debug_line    0x000104aa      0x1d6 ../experiment2_bsp//libucosii_bsp.a(alt_putchar.o)
 .debug_line    0x00010680      0x334 ../experiment2_bsp//libucosii_bsp.a(alt_read.o)
 .debug_line    0x000109b4      0x285 ../experiment2_bsp//libucosii_bsp.a(alt_release_fd.o)
 .debug_line    0x00010c39      0x26d ../experiment2_bsp//libucosii_bsp.a(alt_sbrk.o)
 .debug_line    0x00010ea6      0x335 ../experiment2_bsp//libucosii_bsp.a(alt_write.o)
 .debug_line    0x000111db      0x2cb ../experiment2_bsp//libucosii_bsp.a(alt_env_lock.o)
 .debug_line    0x000114a6      0x387 ../experiment2_bsp//libucosii_bsp.a(alt_malloc_lock.o)
 .debug_line    0x0001182d     0x166f ../experiment2_bsp//libucosii_bsp.a(os_core.o)
 .debug_line    0x00012e9c      0x394 ../experiment2_bsp//libucosii_bsp.a(os_dbg.o)
 .debug_line    0x00013230     0x11f3 ../experiment2_bsp//libucosii_bsp.a(os_flag.o)
 .debug_line    0x00014423      0x796 ../experiment2_bsp//libucosii_bsp.a(os_mem.o)
 .debug_line    0x00014bb9      0xe77 ../experiment2_bsp//libucosii_bsp.a(os_q.o)
 .debug_line    0x00015a30      0xa2f ../experiment2_bsp//libucosii_bsp.a(os_sem.o)
 .debug_line    0x0001645f     0x1138 ../experiment2_bsp//libucosii_bsp.a(os_task.o)
 .debug_line    0x00017597      0x53b ../experiment2_bsp//libucosii_bsp.a(os_time.o)
 .debug_line    0x00017ad2      0x339 ../experiment2_bsp//libucosii_bsp.a(alt_sys_init.o)
 .debug_line    0x00017e0b      0x325 ../experiment2_bsp//libucosii_bsp.a(altera_avalon_jtag_uart_fd.o)
 .debug_line    0x00018130      0x5a4 ../experiment2_bsp//libucosii_bsp.a(altera_avalon_jtag_uart_init.o)
 .debug_line    0x000186d4      0x362 ../experiment2_bsp//libucosii_bsp.a(altera_avalon_jtag_uart_ioctl.o)
 .debug_line    0x00018a36      0x4a0 ../experiment2_bsp//libucosii_bsp.a(altera_avalon_jtag_uart_read.o)
 .debug_line    0x00018ed6      0x4ae ../experiment2_bsp//libucosii_bsp.a(altera_avalon_jtag_uart_write.o)
 .debug_line    0x00019384      0x2bf ../experiment2_bsp//libucosii_bsp.a(altera_avalon_timer_sc.o)
 .debug_line    0x00019643      0x4d1 ../experiment2_bsp//libucosii_bsp.a(altera_up_avalon_character_lcd.o)
 .debug_line    0x00019b14      0x2e8 ../experiment2_bsp//libucosii_bsp.a(alt_alarm_start.o)
 .debug_line    0x00019dfc      0x1c1 ../experiment2_bsp//libucosii_bsp.a(alt_dcache_flush_all.o)
 .debug_line    0x00019fbd      0x266 ../experiment2_bsp//libucosii_bsp.a(alt_dev_llist_insert.o)
 .debug_line    0x0001a223       0x83 ../experiment2_bsp//libucosii_bsp.a(alt_do_ctors.o)
 .debug_line    0x0001a2a6       0x83 ../experiment2_bsp//libucosii_bsp.a(alt_do_dtors.o)
 .debug_line    0x0001a329      0x2e6 ../experiment2_bsp//libucosii_bsp.a(alt_find_dev.o)
 .debug_line    0x0001a60f      0x1c1 ../experiment2_bsp//libucosii_bsp.a(alt_icache_flush_all.o)
 .debug_line    0x0001a7d0      0x2d4 ../experiment2_bsp//libucosii_bsp.a(alt_iic.o)
 .debug_line    0x0001aaa4      0x255 ../experiment2_bsp//libucosii_bsp.a(alt_iic_isr_register.o)
 .debug_line    0x0001acf9      0x32f ../experiment2_bsp//libucosii_bsp.a(alt_io_redirect.o)
 .debug_line    0x0001b028       0x6b ../experiment2_bsp//libucosii_bsp.a(alt_irq_entry.o)
 .debug_line    0x0001b093      0x2d0 ../experiment2_bsp//libucosii_bsp.a(alt_irq_handler.o)
 .debug_line    0x0001b363      0x36b ../experiment2_bsp//libucosii_bsp.a(alt_open.o)
 .debug_line    0x0001b6ce      0x322 ../experiment2_bsp//libucosii_bsp.a(alt_tick.o)
 .debug_line    0x0001b9f0      0x1da ../experiment2_bsp//libucosii_bsp.a(altera_nios2_qsys_irq.o)
 .debug_line    0x0001bbca       0x86 ../experiment2_bsp//libucosii_bsp.a(os_cpu_a.o)
 .debug_line    0x0001bc50      0x334 ../experiment2_bsp//libucosii_bsp.a(os_cpu_c.o)
 .debug_line    0x0001bf84       0xab ../experiment2_bsp//libucosii_bsp.a(alt_exception_entry.o)
 .debug_line    0x0001c02f      0x2f7 ../experiment2_bsp//libucosii_bsp.a(alt_find_file.o)
 .debug_line    0x0001c326      0x327 ../experiment2_bsp//libucosii_bsp.a(alt_get_fd.o)
 .debug_line    0x0001c64d      0x1fd /tools/altera/12.0/nios2eds/bin/gnu/H-i686-pc-linux-gnu/bin/../lib/gcc/nios2-elf/4.1.2/../../../../nios2-elf/lib/mno-hw-mul/libc.a(lib_a-atexit.o)
 .debug_line    0x0001c84a      0x235 /tools/altera/12.0/nios2eds/bin/gnu/H-i686-pc-linux-gnu/bin/../lib/gcc/nios2-elf/4.1.2/../../../../nios2-elf/lib/mno-hw-mul/libc.a(lib_a-exit.o)
 .debug_line    0x0001ca7f      0x299 /tools/altera/12.0/nios2eds/bin/gnu/H-i686-pc-linux-gnu/bin/../lib/gcc/nios2-elf/4.1.2/../../../../nios2-elf/lib/mno-hw-mul/libc.a(lib_a-memcmp.o)
 .debug_line    0x0001cd18      0x2c1 /tools/altera/12.0/nios2eds/bin/gnu/H-i686-pc-linux-gnu/bin/../lib/gcc/nios2-elf/4.1.2/../../../../nios2-elf/lib/mno-hw-mul/libc.a(lib_a-putc.o)
 .debug_line    0x0001cfd9      0x34d /tools/altera/12.0/nios2eds/bin/gnu/H-i686-pc-linux-gnu/bin/../lib/gcc/nios2-elf/4.1.2/../../../../nios2-elf/lib/mno-hw-mul/libc.a(lib_a-wbuf.o)
 .debug_line    0x0001d326      0x310 /tools/altera/12.0/nios2eds/bin/gnu/H-i686-pc-linux-gnu/bin/../lib/gcc/nios2-elf/4.1.2/../../../../nios2-elf/lib/mno-hw-mul/libc.a(lib_a-__atexit.o)
 .debug_line    0x0001d636      0x364 /tools/altera/12.0/nios2eds/bin/gnu/H-i686-pc-linux-gnu/bin/../lib/gcc/nios2-elf/4.1.2/../../../../nios2-elf/lib/mno-hw-mul/libc.a(lib_a-__call_atexit.o)
 .debug_line    0x0001d99a      0x282 ../experiment2_bsp//libucosii_bsp.a(alt_exit.o)

.debug_frame    0x00000000     0x29f4
 *(.debug_frame)
 .debug_frame   0x00000000       0xb8 obj/default/PB_button.o
 .debug_frame   0x000000b8       0x48 obj/default/alt_ucosii_simple_error_check.o
 .debug_frame   0x00000100       0x84 obj/default/experiment2.o
 .debug_frame   0x00000184      0x10c obj/default/tasks.o
 .debug_frame   0x00000290       0x70 /tools/altera/12.0/nios2eds/bin/gnu/H-i686-pc-linux-gnu/bin/../lib/gcc/nios2-elf/4.1.2/mno-hw-mul/libgcc.a(lib2-divmod.o)
 .debug_frame   0x00000300       0x20 /tools/altera/12.0/nios2eds/bin/gnu/H-i686-pc-linux-gnu/bin/../lib/gcc/nios2-elf/4.1.2/mno-hw-mul/libgcc.a(lib2-mul.o)
 .debug_frame   0x00000320       0x40 /tools/altera/12.0/nios2eds/bin/gnu/H-i686-pc-linux-gnu/bin/../lib/gcc/nios2-elf/4.1.2/../../../../nios2-elf/lib/mno-hw-mul/libc.a(lib_a-fprintf.o)
 .debug_frame   0x00000360       0x48 /tools/altera/12.0/nios2eds/bin/gnu/H-i686-pc-linux-gnu/bin/../lib/gcc/nios2-elf/4.1.2/../../../../nios2-elf/lib/mno-hw-mul/libc.a(lib_a-fwrite.o)
 .debug_frame   0x000003a8       0x40 /tools/altera/12.0/nios2eds/bin/gnu/H-i686-pc-linux-gnu/bin/../lib/gcc/nios2-elf/4.1.2/../../../../nios2-elf/lib/mno-hw-mul/libc.a(lib_a-printf.o)
 .debug_frame   0x000003e8       0x3c /tools/altera/12.0/nios2eds/bin/gnu/H-i686-pc-linux-gnu/bin/../lib/gcc/nios2-elf/4.1.2/../../../../nios2-elf/lib/mno-hw-mul/libc.a(lib_a-puts.o)
 .debug_frame   0x00000424       0x3c /tools/altera/12.0/nios2eds/bin/gnu/H-i686-pc-linux-gnu/bin/../lib/gcc/nios2-elf/4.1.2/../../../../nios2-elf/lib/mno-hw-mul/libc.a(lib_a-rand.o)
 .debug_frame   0x00000460       0x20 /tools/altera/12.0/nios2eds/bin/gnu/H-i686-pc-linux-gnu/bin/../lib/gcc/nios2-elf/4.1.2/../../../../nios2-elf/lib/mno-hw-mul/libc.a(lib_a-strlen.o)
 .debug_frame   0x00000480       0x64 /tools/altera/12.0/nios2eds/bin/gnu/H-i686-pc-linux-gnu/bin/../lib/gcc/nios2-elf/4.1.2/../../../../nios2-elf/lib/mno-hw-mul/libc.a(lib_a-vfprintf.o)
 .debug_frame   0x000004e4       0x2c /tools/altera/12.0/nios2eds/bin/gnu/H-i686-pc-linux-gnu/bin/../lib/gcc/nios2-elf/4.1.2/../../../../nios2-elf/lib/mno-hw-mul/libc.a(lib_a-wsetup.o)
 .debug_frame   0x00000510       0x64 /tools/altera/12.0/nios2eds/bin/gnu/H-i686-pc-linux-gnu/bin/../lib/gcc/nios2-elf/4.1.2/../../../../nios2-elf/lib/mno-hw-mul/libc.a(lib_a-dtoa.o)
 .debug_frame   0x00000574       0x40 /tools/altera/12.0/nios2eds/bin/gnu/H-i686-pc-linux-gnu/bin/../lib/gcc/nios2-elf/4.1.2/../../../../nios2-elf/lib/mno-hw-mul/libc.a(lib_a-fflush.o)
 .debug_frame   0x000005b4      0x118 /tools/altera/12.0/nios2eds/bin/gnu/H-i686-pc-linux-gnu/bin/../lib/gcc/nios2-elf/4.1.2/../../../../nios2-elf/lib/mno-hw-mul/libc.a(lib_a-findfp.o)
 .debug_frame   0x000006cc       0x4c /tools/altera/12.0/nios2eds/bin/gnu/H-i686-pc-linux-gnu/bin/../lib/gcc/nios2-elf/4.1.2/../../../../nios2-elf/lib/mno-hw-mul/libc.a(lib_a-freer.o)
 .debug_frame   0x00000718       0x38 /tools/altera/12.0/nios2eds/bin/gnu/H-i686-pc-linux-gnu/bin/../lib/gcc/nios2-elf/4.1.2/../../../../nios2-elf/lib/mno-hw-mul/libc.a(lib_a-fvwrite.o)
 .debug_frame   0x00000750       0x60 /tools/altera/12.0/nios2eds/bin/gnu/H-i686-pc-linux-gnu/bin/../lib/gcc/nios2-elf/4.1.2/../../../../nios2-elf/lib/mno-hw-mul/libc.a(lib_a-fwalk.o)
 .debug_frame   0x000007b0       0x70 /tools/altera/12.0/nios2eds/bin/gnu/H-i686-pc-linux-gnu/bin/../lib/gcc/nios2-elf/4.1.2/../../../../nios2-elf/lib/mno-hw-mul/libc.a(lib_a-locale.o)
 .debug_frame   0x00000820       0x2c /tools/altera/12.0/nios2eds/bin/gnu/H-i686-pc-linux-gnu/bin/../lib/gcc/nios2-elf/4.1.2/../../../../nios2-elf/lib/mno-hw-mul/libc.a(lib_a-makebuf.o)
 .debug_frame   0x0000084c       0x38 /tools/altera/12.0/nios2eds/bin/gnu/H-i686-pc-linux-gnu/bin/../lib/gcc/nios2-elf/4.1.2/../../../../nios2-elf/lib/mno-hw-mul/libc.a(lib_a-mallocr.o)
 .debug_frame   0x00000884       0x20 /tools/altera/12.0/nios2eds/bin/gnu/H-i686-pc-linux-gnu/bin/../lib/gcc/nios2-elf/4.1.2/../../../../nios2-elf/lib/mno-hw-mul/libc.a(lib_a-memchr.o)
 .debug_frame   0x000008a4       0x20 /tools/altera/12.0/nios2eds/bin/gnu/H-i686-pc-linux-gnu/bin/../lib/gcc/nios2-elf/4.1.2/../../../../nios2-elf/lib/mno-hw-mul/libc.a(lib_a-memcpy.o)
 .debug_frame   0x000008c4       0x20 /tools/altera/12.0/nios2eds/bin/gnu/H-i686-pc-linux-gnu/bin/../lib/gcc/nios2-elf/4.1.2/../../../../nios2-elf/lib/mno-hw-mul/libc.a(lib_a-memmove.o)
 .debug_frame   0x000008e4       0x20 /tools/altera/12.0/nios2eds/bin/gnu/H-i686-pc-linux-gnu/bin/../lib/gcc/nios2-elf/4.1.2/../../../../nios2-elf/lib/mno-hw-mul/libc.a(lib_a-memset.o)
 .debug_frame   0x00000904      0x228 /tools/altera/12.0/nios2eds/bin/gnu/H-i686-pc-linux-gnu/bin/../lib/gcc/nios2-elf/4.1.2/../../../../nios2-elf/lib/mno-hw-mul/libc.a(lib_a-mprec.o)
 .debug_frame   0x00000b2c       0x38 /tools/altera/12.0/nios2eds/bin/gnu/H-i686-pc-linux-gnu/bin/../lib/gcc/nios2-elf/4.1.2/../../../../nios2-elf/lib/mno-hw-mul/libc.a(lib_a-reallocr.o)
 .debug_frame   0x00000b64       0x20 /tools/altera/12.0/nios2eds/bin/gnu/H-i686-pc-linux-gnu/bin/../lib/gcc/nios2-elf/4.1.2/../../../../nios2-elf/lib/mno-hw-mul/libc.a(lib_a-s_isinfd.o)
 .debug_frame   0x00000b84       0x20 /tools/altera/12.0/nios2eds/bin/gnu/H-i686-pc-linux-gnu/bin/../lib/gcc/nios2-elf/4.1.2/../../../../nios2-elf/lib/mno-hw-mul/libc.a(lib_a-s_isnand.o)
 .debug_frame   0x00000ba4       0x2c /tools/altera/12.0/nios2eds/bin/gnu/H-i686-pc-linux-gnu/bin/../lib/gcc/nios2-elf/4.1.2/../../../../nios2-elf/lib/mno-hw-mul/libc.a(lib_a-sbrkr.o)
 .debug_frame   0x00000bd0       0x78 /tools/altera/12.0/nios2eds/bin/gnu/H-i686-pc-linux-gnu/bin/../lib/gcc/nios2-elf/4.1.2/../../../../nios2-elf/lib/mno-hw-mul/libc.a(lib_a-stdio.o)
 .debug_frame   0x00000c48       0x20 /tools/altera/12.0/nios2eds/bin/gnu/H-i686-pc-linux-gnu/bin/../lib/gcc/nios2-elf/4.1.2/../../../../nios2-elf/lib/mno-hw-mul/libc.a(lib_a-strcmp.o)
 .debug_frame   0x00000c68       0x2c /tools/altera/12.0/nios2eds/bin/gnu/H-i686-pc-linux-gnu/bin/../lib/gcc/nios2-elf/4.1.2/../../../../nios2-elf/lib/mno-hw-mul/libc.a(lib_a-writer.o)
 .debug_frame   0x00000c94       0x2c /tools/altera/12.0/nios2eds/bin/gnu/H-i686-pc-linux-gnu/bin/../lib/gcc/nios2-elf/4.1.2/../../../../nios2-elf/lib/mno-hw-mul/libc.a(lib_a-callocr.o)
 .debug_frame   0x00000cc0       0x2c /tools/altera/12.0/nios2eds/bin/gnu/H-i686-pc-linux-gnu/bin/../lib/gcc/nios2-elf/4.1.2/../../../../nios2-elf/lib/mno-hw-mul/libc.a(lib_a-closer.o)
 .debug_frame   0x00000cec       0x3c /tools/altera/12.0/nios2eds/bin/gnu/H-i686-pc-linux-gnu/bin/../lib/gcc/nios2-elf/4.1.2/../../../../nios2-elf/lib/mno-hw-mul/libc.a(lib_a-fclose.o)
 .debug_frame   0x00000d28       0x2c /tools/altera/12.0/nios2eds/bin/gnu/H-i686-pc-linux-gnu/bin/../lib/gcc/nios2-elf/4.1.2/../../../../nios2-elf/lib/mno-hw-mul/libc.a(lib_a-fstatr.o)
 .debug_frame   0x00000d54       0x2c /tools/altera/12.0/nios2eds/bin/gnu/H-i686-pc-linux-gnu/bin/../lib/gcc/nios2-elf/4.1.2/../../../../nios2-elf/lib/mno-hw-mul/libc.a(lib_a-isattyr.o)
 .debug_frame   0x00000d80       0x2c /tools/altera/12.0/nios2eds/bin/gnu/H-i686-pc-linux-gnu/bin/../lib/gcc/nios2-elf/4.1.2/../../../../nios2-elf/lib/mno-hw-mul/libc.a(lib_a-lseekr.o)
 .debug_frame   0x00000dac       0x2c /tools/altera/12.0/nios2eds/bin/gnu/H-i686-pc-linux-gnu/bin/../lib/gcc/nios2-elf/4.1.2/../../../../nios2-elf/lib/mno-hw-mul/libc.a(lib_a-readr.o)
 .debug_frame   0x00000dd8       0x40 /tools/altera/12.0/nios2eds/bin/gnu/H-i686-pc-linux-gnu/bin/../lib/gcc/nios2-elf/4.1.2/mno-hw-mul/libgcc.a(_muldi3.o)
 .debug_frame   0x00000e18       0x38 /tools/altera/12.0/nios2eds/bin/gnu/H-i686-pc-linux-gnu/bin/../lib/gcc/nios2-elf/4.1.2/mno-hw-mul/libgcc.a(_udivdi3.o)
 .debug_frame   0x00000e50       0x38 /tools/altera/12.0/nios2eds/bin/gnu/H-i686-pc-linux-gnu/bin/../lib/gcc/nios2-elf/4.1.2/mno-hw-mul/libgcc.a(_umoddi3.o)
 .debug_frame   0x00000e88       0x70 /tools/altera/12.0/nios2eds/bin/gnu/H-i686-pc-linux-gnu/bin/../lib/gcc/nios2-elf/4.1.2/mno-hw-mul/libgcc.a(_addsub_df.o)
 .debug_frame   0x00000ef8       0x3c /tools/altera/12.0/nios2eds/bin/gnu/H-i686-pc-linux-gnu/bin/../lib/gcc/nios2-elf/4.1.2/mno-hw-mul/libgcc.a(_mul_df.o)
 .debug_frame   0x00000f34       0x30 /tools/altera/12.0/nios2eds/bin/gnu/H-i686-pc-linux-gnu/bin/../lib/gcc/nios2-elf/4.1.2/mno-hw-mul/libgcc.a(_div_df.o)
 .debug_frame   0x00000f64       0x2c /tools/altera/12.0/nios2eds/bin/gnu/H-i686-pc-linux-gnu/bin/../lib/gcc/nios2-elf/4.1.2/mno-hw-mul/libgcc.a(_eq_df.o)
 .debug_frame   0x00000f90       0x2c /tools/altera/12.0/nios2eds/bin/gnu/H-i686-pc-linux-gnu/bin/../lib/gcc/nios2-elf/4.1.2/mno-hw-mul/libgcc.a(_ne_df.o)
 .debug_frame   0x00000fbc       0x2c /tools/altera/12.0/nios2eds/bin/gnu/H-i686-pc-linux-gnu/bin/../lib/gcc/nios2-elf/4.1.2/mno-hw-mul/libgcc.a(_gt_df.o)
 .debug_frame   0x00000fe8       0x2c /tools/altera/12.0/nios2eds/bin/gnu/H-i686-pc-linux-gnu/bin/../lib/gcc/nios2-elf/4.1.2/mno-hw-mul/libgcc.a(_ge_df.o)
 .debug_frame   0x00001014       0x2c /tools/altera/12.0/nios2eds/bin/gnu/H-i686-pc-linux-gnu/bin/../lib/gcc/nios2-elf/4.1.2/mno-hw-mul/libgcc.a(_lt_df.o)
 .debug_frame   0x00001040       0x30 /tools/altera/12.0/nios2eds/bin/gnu/H-i686-pc-linux-gnu/bin/../lib/gcc/nios2-elf/4.1.2/mno-hw-mul/libgcc.a(_si_to_df.o)
 .debug_frame   0x00001070       0x28 /tools/altera/12.0/nios2eds/bin/gnu/H-i686-pc-linux-gnu/bin/../lib/gcc/nios2-elf/4.1.2/mno-hw-mul/libgcc.a(_df_to_si.o)
 .debug_frame   0x00001098       0x38 /tools/altera/12.0/nios2eds/bin/gnu/H-i686-pc-linux-gnu/bin/../lib/gcc/nios2-elf/4.1.2/mno-hw-mul/libgcc.a(_usi_to_df.o)
 .debug_frame   0x000010d0       0x20 /tools/altera/12.0/nios2eds/bin/gnu/H-i686-pc-linux-gnu/bin/../lib/gcc/nios2-elf/4.1.2/mno-hw-mul/libgcc.a(_clzsi2.o)
 .debug_frame   0x000010f0       0x2c /tools/altera/12.0/nios2eds/bin/gnu/H-i686-pc-linux-gnu/bin/../lib/gcc/nios2-elf/4.1.2/mno-hw-mul/libgcc.a(_pack_df.o)
 .debug_frame   0x0000111c       0x20 /tools/altera/12.0/nios2eds/bin/gnu/H-i686-pc-linux-gnu/bin/../lib/gcc/nios2-elf/4.1.2/mno-hw-mul/libgcc.a(_unpack_df.o)
 .debug_frame   0x0000113c       0x20 /tools/altera/12.0/nios2eds/bin/gnu/H-i686-pc-linux-gnu/bin/../lib/gcc/nios2-elf/4.1.2/mno-hw-mul/libgcc.a(_fpcmp_parts_df.o)
 .debug_frame   0x0000115c       0x48 ../experiment2_bsp//libucosii_bsp.a(alt_close.o)
 .debug_frame   0x000011a4       0x2c ../experiment2_bsp//libucosii_bsp.a(alt_dev.o)
 .debug_frame   0x000011d0       0x48 ../experiment2_bsp//libucosii_bsp.a(alt_fstat.o)
 .debug_frame   0x00001218       0x2c ../experiment2_bsp//libucosii_bsp.a(alt_irq_register.o)
 .debug_frame   0x00001244       0x48 ../experiment2_bsp//libucosii_bsp.a(alt_isatty.o)
 .debug_frame   0x0000128c       0x48 ../experiment2_bsp//libucosii_bsp.a(alt_load.o)
 .debug_frame   0x000012d4       0x48 ../experiment2_bsp//libucosii_bsp.a(alt_lseek.o)
 .debug_frame   0x0000131c       0x2c ../experiment2_bsp//libucosii_bsp.a(alt_main.o)
 .debug_frame   0x00001348       0x2c ../experiment2_bsp//libucosii_bsp.a(alt_printf.o)
 .debug_frame   0x00001374       0x2c ../experiment2_bsp//libucosii_bsp.a(alt_putchar.o)
 .debug_frame   0x000013a0       0x48 ../experiment2_bsp//libucosii_bsp.a(alt_read.o)
 .debug_frame   0x000013e8       0x30 ../experiment2_bsp//libucosii_bsp.a(alt_release_fd.o)
 .debug_frame   0x00001418       0x2c ../experiment2_bsp//libucosii_bsp.a(alt_sbrk.o)
 .debug_frame   0x00001444       0x48 ../experiment2_bsp//libucosii_bsp.a(alt_write.o)
 .debug_frame   0x0000148c       0x4c ../experiment2_bsp//libucosii_bsp.a(alt_env_lock.o)
 .debug_frame   0x000014d8       0x4c ../experiment2_bsp//libucosii_bsp.a(alt_malloc_lock.o)
 .debug_frame   0x00001524      0x3e4 ../experiment2_bsp//libucosii_bsp.a(os_core.o)
 .debug_frame   0x00001908       0x2c ../experiment2_bsp//libucosii_bsp.a(os_dbg.o)
 .debug_frame   0x00001934      0x180 ../experiment2_bsp//libucosii_bsp.a(os_flag.o)
 .debug_frame   0x00001ab4       0xd4 ../experiment2_bsp//libucosii_bsp.a(os_mem.o)
 .debug_frame   0x00001b88      0x144 ../experiment2_bsp//libucosii_bsp.a(os_q.o)
 .debug_frame   0x00001ccc       0xf0 ../experiment2_bsp//libucosii_bsp.a(os_sem.o)
 .debug_frame   0x00001dbc      0x160 ../experiment2_bsp//libucosii_bsp.a(os_task.o)
 .debug_frame   0x00001f1c       0xa0 ../experiment2_bsp//libucosii_bsp.a(os_time.o)
 .debug_frame   0x00001fbc       0x64 ../experiment2_bsp//libucosii_bsp.a(alt_sys_init.o)
 .debug_frame   0x00002020       0x80 ../experiment2_bsp//libucosii_bsp.a(altera_avalon_jtag_uart_fd.o)
 .debug_frame   0x000020a0       0x80 ../experiment2_bsp//libucosii_bsp.a(altera_avalon_jtag_uart_init.o)
 .debug_frame   0x00002120       0x2c ../experiment2_bsp//libucosii_bsp.a(altera_avalon_jtag_uart_ioctl.o)
 .debug_frame   0x0000214c       0x2c ../experiment2_bsp//libucosii_bsp.a(altera_avalon_jtag_uart_read.o)
 .debug_frame   0x00002178       0x2c ../experiment2_bsp//libucosii_bsp.a(altera_avalon_jtag_uart_write.o)
 .debug_frame   0x000021a4       0x48 ../experiment2_bsp//libucosii_bsp.a(altera_avalon_timer_sc.o)
 .debug_frame   0x000021ec      0x17c ../experiment2_bsp//libucosii_bsp.a(altera_up_avalon_character_lcd.o)
 .debug_frame   0x00002368       0x2c ../experiment2_bsp//libucosii_bsp.a(alt_alarm_start.o)
 .debug_frame   0x00002394       0x2c ../experiment2_bsp//libucosii_bsp.a(alt_dcache_flush_all.o)
 .debug_frame   0x000023c0       0x48 ../experiment2_bsp//libucosii_bsp.a(alt_dev_llist_insert.o)
 .debug_frame   0x00002408       0x2c ../experiment2_bsp//libucosii_bsp.a(alt_do_ctors.o)
 .debug_frame   0x00002434       0x2c ../experiment2_bsp//libucosii_bsp.a(alt_do_dtors.o)
 .debug_frame   0x00002460       0x2c ../experiment2_bsp//libucosii_bsp.a(alt_find_dev.o)
 .debug_frame   0x0000248c       0x2c ../experiment2_bsp//libucosii_bsp.a(alt_icache_flush_all.o)
 .debug_frame   0x000024b8       0x80 ../experiment2_bsp//libucosii_bsp.a(alt_iic.o)
 .debug_frame   0x00002538       0x2c ../experiment2_bsp//libucosii_bsp.a(alt_iic_isr_register.o)
 .debug_frame   0x00002564       0x4c ../experiment2_bsp//libucosii_bsp.a(alt_io_redirect.o)
 .debug_frame   0x000025b0       0x2c ../experiment2_bsp//libucosii_bsp.a(alt_irq_handler.o)
 .debug_frame   0x000025dc       0x68 ../experiment2_bsp//libucosii_bsp.a(alt_open.o)
 .debug_frame   0x00002644       0x48 ../experiment2_bsp//libucosii_bsp.a(alt_tick.o)
 .debug_frame   0x0000268c       0x2c ../experiment2_bsp//libucosii_bsp.a(altera_nios2_qsys_irq.o)
 .debug_frame   0x000026b8      0x128 ../experiment2_bsp//libucosii_bsp.a(os_cpu_c.o)
 .debug_frame   0x000027e0       0x2c ../experiment2_bsp//libucosii_bsp.a(alt_find_file.o)
 .debug_frame   0x0000280c       0x30 ../experiment2_bsp//libucosii_bsp.a(alt_get_fd.o)
 .debug_frame   0x0000283c       0x20 /tools/altera/12.0/nios2eds/bin/gnu/H-i686-pc-linux-gnu/bin/../lib/gcc/nios2-elf/4.1.2/../../../../nios2-elf/lib/mno-hw-mul/libc.a(lib_a-atexit.o)
 .debug_frame   0x0000285c       0x28 /tools/altera/12.0/nios2eds/bin/gnu/H-i686-pc-linux-gnu/bin/../lib/gcc/nios2-elf/4.1.2/../../../../nios2-elf/lib/mno-hw-mul/libc.a(lib_a-exit.o)
 .debug_frame   0x00002884       0x20 /tools/altera/12.0/nios2eds/bin/gnu/H-i686-pc-linux-gnu/bin/../lib/gcc/nios2-elf/4.1.2/../../../../nios2-elf/lib/mno-hw-mul/libc.a(lib_a-memcmp.o)
 .debug_frame   0x000028a4       0x4c /tools/altera/12.0/nios2eds/bin/gnu/H-i686-pc-linux-gnu/bin/../lib/gcc/nios2-elf/4.1.2/../../../../nios2-elf/lib/mno-hw-mul/libc.a(lib_a-putc.o)
 .debug_frame   0x000028f0       0x3c /tools/altera/12.0/nios2eds/bin/gnu/H-i686-pc-linux-gnu/bin/../lib/gcc/nios2-elf/4.1.2/../../../../nios2-elf/lib/mno-hw-mul/libc.a(lib_a-wbuf.o)
 .debug_frame   0x0000292c       0x34 /tools/altera/12.0/nios2eds/bin/gnu/H-i686-pc-linux-gnu/bin/../lib/gcc/nios2-elf/4.1.2/../../../../nios2-elf/lib/mno-hw-mul/libc.a(lib_a-__atexit.o)
 .debug_frame   0x00002960       0x4c /tools/altera/12.0/nios2eds/bin/gnu/H-i686-pc-linux-gnu/bin/../lib/gcc/nios2-elf/4.1.2/../../../../nios2-elf/lib/mno-hw-mul/libc.a(lib_a-__call_atexit.o)
 .debug_frame   0x000029ac       0x48 ../experiment2_bsp//libucosii_bsp.a(alt_exit.o)

.debug_str      0x00000000     0x278c
 *(.debug_str)
 .debug_str     0x00000000       0x1e obj/default/PB_button.o
 .debug_str     0x0000001e       0x2c obj/default/alt_ucosii_simple_error_check.o
 .debug_str     0x0000004a       0x37 obj/default/experiment2.o
 .debug_str     0x00000081       0x96 obj/default/tasks.o
 .debug_str     0x00000117      0x169 /tools/altera/12.0/nios2eds/bin/gnu/H-i686-pc-linux-gnu/bin/../lib/gcc/nios2-elf/4.1.2/mno-hw-mul/libgcc.a(lib2-divmod.o)
                                0x1b6 (size before relaxing)
 .debug_str     0x00000280       0x37 /tools/altera/12.0/nios2eds/bin/gnu/H-i686-pc-linux-gnu/bin/../lib/gcc/nios2-elf/4.1.2/mno-hw-mul/libgcc.a(lib2-mul.o)
                                0x177 (size before relaxing)
 .debug_str     0x000002b7      0x459 /tools/altera/12.0/nios2eds/bin/gnu/H-i686-pc-linux-gnu/bin/../lib/gcc/nios2-elf/4.1.2/../../../../nios2-elf/lib/mno-hw-mul/libc.a(lib_a-fprintf.o)
                                0x52f (size before relaxing)
 .debug_str     0x00000710       0x8a /tools/altera/12.0/nios2eds/bin/gnu/H-i686-pc-linux-gnu/bin/../lib/gcc/nios2-elf/4.1.2/../../../../nios2-elf/lib/mno-hw-mul/libc.a(lib_a-fwrite.o)
                                0x56f (size before relaxing)
 .debug_str     0x0000079a       0xf4 /tools/altera/12.0/nios2eds/bin/gnu/H-i686-pc-linux-gnu/bin/../lib/gcc/nios2-elf/4.1.2/../../../../nios2-elf/lib/mno-hw-mul/libc.a(lib_a-impure.o)
                                0x52a (size before relaxing)
 .debug_str     0x0000088e       0x47 /tools/altera/12.0/nios2eds/bin/gnu/H-i686-pc-linux-gnu/bin/../lib/gcc/nios2-elf/4.1.2/../../../../nios2-elf/lib/mno-hw-mul/libc.a(lib_a-printf.o)
                                0x533 (size before relaxing)
 .debug_str     0x000008d5       0x48 /tools/altera/12.0/nios2eds/bin/gnu/H-i686-pc-linux-gnu/bin/../lib/gcc/nios2-elf/4.1.2/../../../../nios2-elf/lib/mno-hw-mul/libc.a(lib_a-puts.o)
                                0x559 (size before relaxing)
 .debug_str     0x0000091d       0xdb /tools/altera/12.0/nios2eds/bin/gnu/H-i686-pc-linux-gnu/bin/../lib/gcc/nios2-elf/4.1.2/../../../../nios2-elf/lib/mno-hw-mul/libc.a(lib_a-rand.o)
                                0x51b (size before relaxing)
 .debug_str     0x000009f8       0xeb /tools/altera/12.0/nios2eds/bin/gnu/H-i686-pc-linux-gnu/bin/../lib/gcc/nios2-elf/4.1.2/../../../../nios2-elf/lib/mno-hw-mul/libc.a(lib_a-strlen.o)
                                0x18d (size before relaxing)
 .debug_str     0x00000ae3      0x188 /tools/altera/12.0/nios2eds/bin/gnu/H-i686-pc-linux-gnu/bin/../lib/gcc/nios2-elf/4.1.2/../../../../nios2-elf/lib/mno-hw-mul/libc.a(lib_a-vfprintf.o)
                                0x708 (size before relaxing)
 .debug_str     0x00000c6b       0x49 /tools/altera/12.0/nios2eds/bin/gnu/H-i686-pc-linux-gnu/bin/../lib/gcc/nios2-elf/4.1.2/../../../../nios2-elf/lib/mno-hw-mul/libc.a(lib_a-wsetup.o)
                                0x51c (size before relaxing)
 .debug_str     0x00000cb4      0x105 /tools/altera/12.0/nios2eds/bin/gnu/H-i686-pc-linux-gnu/bin/../lib/gcc/nios2-elf/4.1.2/../../../../nios2-elf/lib/mno-hw-mul/libc.a(lib_a-dtoa.o)
                                0x611 (size before relaxing)
 .debug_str     0x00000db9       0x55 /tools/altera/12.0/nios2eds/bin/gnu/H-i686-pc-linux-gnu/bin/../lib/gcc/nios2-elf/4.1.2/../../../../nios2-elf/lib/mno-hw-mul/libc.a(lib_a-fflush.o)
                                0x542 (size before relaxing)
 .debug_str     0x00000e0e      0x105 /tools/altera/12.0/nios2eds/bin/gnu/H-i686-pc-linux-gnu/bin/../lib/gcc/nios2-elf/4.1.2/../../../../nios2-elf/lib/mno-hw-mul/libc.a(lib_a-findfp.o)
                                0x604 (size before relaxing)
 .debug_str     0x00000f13      0x15e /tools/altera/12.0/nios2eds/bin/gnu/H-i686-pc-linux-gnu/bin/../lib/gcc/nios2-elf/4.1.2/../../../../nios2-elf/lib/mno-hw-mul/libc.a(lib_a-freer.o)
                                0x653 (size before relaxing)
 .debug_str     0x00001071       0x69 /tools/altera/12.0/nios2eds/bin/gnu/H-i686-pc-linux-gnu/bin/../lib/gcc/nios2-elf/4.1.2/../../../../nios2-elf/lib/mno-hw-mul/libc.a(lib_a-fvwrite.o)
                                0x573 (size before relaxing)
 .debug_str     0x000010da       0x61 /tools/altera/12.0/nios2eds/bin/gnu/H-i686-pc-linux-gnu/bin/../lib/gcc/nios2-elf/4.1.2/../../../../nios2-elf/lib/mno-hw-mul/libc.a(lib_a-fwalk.o)
                                0x545 (size before relaxing)
 .debug_str     0x0000113b      0x235 /tools/altera/12.0/nios2eds/bin/gnu/H-i686-pc-linux-gnu/bin/../lib/gcc/nios2-elf/4.1.2/../../../../nios2-elf/lib/mno-hw-mul/libc.a(lib_a-locale.o)
                                0x6b9 (size before relaxing)
 .debug_str     0x00001370      0x126 /tools/altera/12.0/nios2eds/bin/gnu/H-i686-pc-linux-gnu/bin/../lib/gcc/nios2-elf/4.1.2/../../../../nios2-elf/lib/mno-hw-mul/libc.a(lib_a-makebuf.o)
                                0x616 (size before relaxing)
 .debug_str     0x00001496       0xef /tools/altera/12.0/nios2eds/bin/gnu/H-i686-pc-linux-gnu/bin/../lib/gcc/nios2-elf/4.1.2/../../../../nios2-elf/lib/mno-hw-mul/libc.a(lib_a-mallocr.o)
                                0x701 (size before relaxing)
 .debug_str     0x00001585       0x5f /tools/altera/12.0/nios2eds/bin/gnu/H-i686-pc-linux-gnu/bin/../lib/gcc/nios2-elf/4.1.2/../../../../nios2-elf/lib/mno-hw-mul/libc.a(lib_a-memchr.o)
                                0x19b (size before relaxing)
 .debug_str     0x000015e4       0x6c /tools/altera/12.0/nios2eds/bin/gnu/H-i686-pc-linux-gnu/bin/../lib/gcc/nios2-elf/4.1.2/../../../../nios2-elf/lib/mno-hw-mul/libc.a(lib_a-memcpy.o)
                                0x138 (size before relaxing)
 .debug_str     0x00001650       0x50 /tools/altera/12.0/nios2eds/bin/gnu/H-i686-pc-linux-gnu/bin/../lib/gcc/nios2-elf/4.1.2/../../../../nios2-elf/lib/mno-hw-mul/libc.a(lib_a-memmove.o)
                                0x1ad (size before relaxing)
 .debug_str     0x000016a0       0x45 /tools/altera/12.0/nios2eds/bin/gnu/H-i686-pc-linux-gnu/bin/../lib/gcc/nios2-elf/4.1.2/../../../../nios2-elf/lib/mno-hw-mul/libc.a(lib_a-memset.o)
                                0x18e (size before relaxing)
 .debug_str     0x000016e5       0xfb /tools/altera/12.0/nios2eds/bin/gnu/H-i686-pc-linux-gnu/bin/../lib/gcc/nios2-elf/4.1.2/../../../../nios2-elf/lib/mno-hw-mul/libc.a(lib_a-mprec.o)
                                0x61e (size before relaxing)
 .debug_str     0x000017e0       0x59 /tools/altera/12.0/nios2eds/bin/gnu/H-i686-pc-linux-gnu/bin/../lib/gcc/nios2-elf/4.1.2/../../../../nios2-elf/lib/mno-hw-mul/libc.a(lib_a-reallocr.o)
                                0x5d3 (size before relaxing)
 .debug_str     0x00001839       0xec /tools/altera/12.0/nios2eds/bin/gnu/H-i686-pc-linux-gnu/bin/../lib/gcc/nios2-elf/4.1.2/../../../../nios2-elf/lib/mno-hw-mul/libc.a(lib_a-s_isinfd.o)
                                0x19a (size before relaxing)
 .debug_str     0x00001925       0x49 /tools/altera/12.0/nios2eds/bin/gnu/H-i686-pc-linux-gnu/bin/../lib/gcc/nios2-elf/4.1.2/../../../../nios2-elf/lib/mno-hw-mul/libc.a(lib_a-s_isnand.o)
                                0x19a (size before relaxing)
 .debug_str     0x0000196e       0x53 /tools/altera/12.0/nios2eds/bin/gnu/H-i686-pc-linux-gnu/bin/../lib/gcc/nios2-elf/4.1.2/../../../../nios2-elf/lib/mno-hw-mul/libc.a(lib_a-sbrkr.o)
                                0x51b (size before relaxing)
 .debug_str     0x000019c1       0x65 /tools/altera/12.0/nios2eds/bin/gnu/H-i686-pc-linux-gnu/bin/../lib/gcc/nios2-elf/4.1.2/../../../../nios2-elf/lib/mno-hw-mul/libc.a(lib_a-stdio.o)
                                0x541 (size before relaxing)
 .debug_str     0x00001a26       0x45 /tools/altera/12.0/nios2eds/bin/gnu/H-i686-pc-linux-gnu/bin/../lib/gcc/nios2-elf/4.1.2/../../../../nios2-elf/lib/mno-hw-mul/libc.a(lib_a-strcmp.o)
                                0x173 (size before relaxing)
 .debug_str     0x00001a6b       0x4f /tools/altera/12.0/nios2eds/bin/gnu/H-i686-pc-linux-gnu/bin/../lib/gcc/nios2-elf/4.1.2/../../../../nios2-elf/lib/mno-hw-mul/libc.a(lib_a-writer.o)
                                0x51e (size before relaxing)
 .debug_str     0x00001aba       0x19 /tools/altera/12.0/nios2eds/bin/gnu/H-i686-pc-linux-gnu/bin/../lib/gcc/nios2-elf/4.1.2/../../../../nios2-elf/lib/mno-hw-mul/libc.a(lib_a-callocr.o)
                                0x552 (size before relaxing)
 .debug_str     0x00001ad3       0x46 /tools/altera/12.0/nios2eds/bin/gnu/H-i686-pc-linux-gnu/bin/../lib/gcc/nios2-elf/4.1.2/../../../../nios2-elf/lib/mno-hw-mul/libc.a(lib_a-closer.o)
                                0x50e (size before relaxing)
 .debug_str     0x00001b19       0x4e /tools/altera/12.0/nios2eds/bin/gnu/H-i686-pc-linux-gnu/bin/../lib/gcc/nios2-elf/4.1.2/../../../../nios2-elf/lib/mno-hw-mul/libc.a(lib_a-fclose.o)
                                0x526 (size before relaxing)
 .debug_str     0x00001b67       0x4c /tools/altera/12.0/nios2eds/bin/gnu/H-i686-pc-linux-gnu/bin/../lib/gcc/nios2-elf/4.1.2/../../../../nios2-elf/lib/mno-hw-mul/libc.a(lib_a-fstatr.o)
                                0x601 (size before relaxing)
 .debug_str     0x00001bb3       0x40 /tools/altera/12.0/nios2eds/bin/gnu/H-i686-pc-linux-gnu/bin/../lib/gcc/nios2-elf/4.1.2/../../../../nios2-elf/lib/mno-hw-mul/libc.a(lib_a-int_errno.o)
                                0x173 (size before relaxing)
 .debug_str     0x00001bf3       0x48 /tools/altera/12.0/nios2eds/bin/gnu/H-i686-pc-linux-gnu/bin/../lib/gcc/nios2-elf/4.1.2/../../../../nios2-elf/lib/mno-hw-mul/libc.a(lib_a-isattyr.o)
                                0x510 (size before relaxing)
 .debug_str     0x00001c3b       0x46 /tools/altera/12.0/nios2eds/bin/gnu/H-i686-pc-linux-gnu/bin/../lib/gcc/nios2-elf/4.1.2/../../../../nios2-elf/lib/mno-hw-mul/libc.a(lib_a-lseekr.o)
                                0x51c (size before relaxing)
 .debug_str     0x00001c81       0x44 /tools/altera/12.0/nios2eds/bin/gnu/H-i686-pc-linux-gnu/bin/../lib/gcc/nios2-elf/4.1.2/../../../../nios2-elf/lib/mno-hw-mul/libc.a(lib_a-readr.o)
                                0x51c (size before relaxing)
 .debug_str     0x00001cc5       0x67 /tools/altera/12.0/nios2eds/bin/gnu/H-i686-pc-linux-gnu/bin/../lib/gcc/nios2-elf/4.1.2/mno-hw-mul/libgcc.a(_muldi3.o)
                                0x1ae (size before relaxing)
 .debug_str     0x00001d2c       0x54 /tools/altera/12.0/nios2eds/bin/gnu/H-i686-pc-linux-gnu/bin/../lib/gcc/nios2-elf/4.1.2/mno-hw-mul/libgcc.a(_udivdi3.o)
                                0x1f9 (size before relaxing)
 .debug_str     0x00001d80        0xa /tools/altera/12.0/nios2eds/bin/gnu/H-i686-pc-linux-gnu/bin/../lib/gcc/nios2-elf/4.1.2/mno-hw-mul/libgcc.a(_umoddi3.o)
                                0x1f9 (size before relaxing)
 .debug_str     0x00001d8a      0x137 /tools/altera/12.0/nios2eds/bin/gnu/H-i686-pc-linux-gnu/bin/../lib/gcc/nios2-elf/4.1.2/mno-hw-mul/libgcc.a(_addsub_df.o)
                                0x271 (size before relaxing)
 .debug_str     0x00001ec1       0x40 /tools/altera/12.0/nios2eds/bin/gnu/H-i686-pc-linux-gnu/bin/../lib/gcc/nios2-elf/4.1.2/mno-hw-mul/libgcc.a(_mul_df.o)
                                0x243 (size before relaxing)
 .debug_str     0x00001f01       0x35 /tools/altera/12.0/nios2eds/bin/gnu/H-i686-pc-linux-gnu/bin/../lib/gcc/nios2-elf/4.1.2/mno-hw-mul/libgcc.a(_div_df.o)
                                0x233 (size before relaxing)
 .debug_str     0x00001f36        0x8 /tools/altera/12.0/nios2eds/bin/gnu/H-i686-pc-linux-gnu/bin/../lib/gcc/nios2-elf/4.1.2/mno-hw-mul/libgcc.a(_eq_df.o)
                                0x200 (size before relaxing)
 .debug_str     0x00001f3e        0x8 /tools/altera/12.0/nios2eds/bin/gnu/H-i686-pc-linux-gnu/bin/../lib/gcc/nios2-elf/4.1.2/mno-hw-mul/libgcc.a(_ne_df.o)
                                0x200 (size before relaxing)
 .debug_str     0x00001f46        0x8 /tools/altera/12.0/nios2eds/bin/gnu/H-i686-pc-linux-gnu/bin/../lib/gcc/nios2-elf/4.1.2/mno-hw-mul/libgcc.a(_gt_df.o)
                                0x200 (size before relaxing)
 .debug_str     0x00001f4e        0x8 /tools/altera/12.0/nios2eds/bin/gnu/H-i686-pc-linux-gnu/bin/../lib/gcc/nios2-elf/4.1.2/mno-hw-mul/libgcc.a(_ge_df.o)
                                0x200 (size before relaxing)
 .debug_str     0x00001f56        0x8 /tools/altera/12.0/nios2eds/bin/gnu/H-i686-pc-linux-gnu/bin/../lib/gcc/nios2-elf/4.1.2/mno-hw-mul/libgcc.a(_lt_df.o)
                                0x200 (size before relaxing)
 .debug_str     0x00001f5e       0x18 /tools/altera/12.0/nios2eds/bin/gnu/H-i686-pc-linux-gnu/bin/../lib/gcc/nios2-elf/4.1.2/mno-hw-mul/libgcc.a(_si_to_df.o)
                                0x1e0 (size before relaxing)
 .debug_str     0x00001f76        0xa /tools/altera/12.0/nios2eds/bin/gnu/H-i686-pc-linux-gnu/bin/../lib/gcc/nios2-elf/4.1.2/mno-hw-mul/libgcc.a(_df_to_si.o)
                                0x209 (size before relaxing)
 .debug_str     0x00000000      0x1a5 /tools/altera/12.0/nios2eds/bin/gnu/H-i686-pc-linux-gnu/bin/../lib/gcc/nios2-elf/4.1.2/mno-hw-mul/libgcc.a(_thenan_df.o)
 .debug_str     0x00001f80       0x14 /tools/altera/12.0/nios2eds/bin/gnu/H-i686-pc-linux-gnu/bin/../lib/gcc/nios2-elf/4.1.2/mno-hw-mul/libgcc.a(_usi_to_df.o)
                                0x1dc (size before relaxing)
 .debug_str     0x00000000      0x163 /tools/altera/12.0/nios2eds/bin/gnu/H-i686-pc-linux-gnu/bin/../lib/gcc/nios2-elf/4.1.2/mno-hw-mul/libgcc.a(_clz.o)
 .debug_str     0x00001f94        0x9 /tools/altera/12.0/nios2eds/bin/gnu/H-i686-pc-linux-gnu/bin/../lib/gcc/nios2-elf/4.1.2/mno-hw-mul/libgcc.a(_clzsi2.o)
                                0x180 (size before relaxing)
 .debug_str     0x00001f9d       0x10 /tools/altera/12.0/nios2eds/bin/gnu/H-i686-pc-linux-gnu/bin/../lib/gcc/nios2-elf/4.1.2/mno-hw-mul/libgcc.a(_pack_df.o)
                                0x208 (size before relaxing)
 .debug_str     0x00001fad        0xb /tools/altera/12.0/nios2eds/bin/gnu/H-i686-pc-linux-gnu/bin/../lib/gcc/nios2-elf/4.1.2/mno-hw-mul/libgcc.a(_unpack_df.o)
                                0x1ea (size before relaxing)
 .debug_str     0x00001fb8       0x10 /tools/altera/12.0/nios2eds/bin/gnu/H-i686-pc-linux-gnu/bin/../lib/gcc/nios2-elf/4.1.2/mno-hw-mul/libgcc.a(_fpcmp_parts_df.o)
                                0x1c8 (size before relaxing)
 .debug_str     0x00001fc8       0x12 ../experiment2_bsp//libucosii_bsp.a(alt_close.o)
 .debug_str     0x00001fda       0x12 ../experiment2_bsp//libucosii_bsp.a(alt_dev.o)
 .debug_str     0x00001fec       0x12 ../experiment2_bsp//libucosii_bsp.a(alt_errno.o)
 .debug_str     0x00001ffe       0x12 ../experiment2_bsp//libucosii_bsp.a(alt_fstat.o)
 .debug_str     0x00002010       0x21 ../experiment2_bsp//libucosii_bsp.a(alt_irq_register.o)
 .debug_str     0x00002031       0x12 ../experiment2_bsp//libucosii_bsp.a(alt_isatty.o)
 .debug_str     0x00002043       0x12 ../experiment2_bsp//libucosii_bsp.a(alt_load.o)
 .debug_str     0x00002055       0x12 ../experiment2_bsp//libucosii_bsp.a(alt_lseek.o)
 .debug_str     0x00002067       0x12 ../experiment2_bsp//libucosii_bsp.a(alt_main.o)
 .debug_str     0x00002079       0x20 ../experiment2_bsp//libucosii_bsp.a(alt_putchar.o)
 .debug_str     0x00002099       0x12 ../experiment2_bsp//libucosii_bsp.a(alt_read.o)
 .debug_str     0x000020ab       0x12 ../experiment2_bsp//libucosii_bsp.a(alt_release_fd.o)
 .debug_str     0x000020bd       0x1a ../experiment2_bsp//libucosii_bsp.a(alt_sbrk.o)
 .debug_str     0x000020d7       0x12 ../experiment2_bsp//libucosii_bsp.a(alt_write.o)
 .debug_str     0x000020e9       0x36 ../experiment2_bsp//libucosii_bsp.a(alt_env_lock.o)
 .debug_str     0x0000211f       0x36 ../experiment2_bsp//libucosii_bsp.a(alt_malloc_lock.o)
 .debug_str     0x00002155       0x46 ../experiment2_bsp//libucosii_bsp.a(os_core.o)
 .debug_str     0x0000219b       0x2b ../experiment2_bsp//libucosii_bsp.a(os_dbg.o)
 .debug_str     0x000021c6       0x4e ../experiment2_bsp//libucosii_bsp.a(os_flag.o)
 .debug_str     0x00002214       0x2c ../experiment2_bsp//libucosii_bsp.a(os_mem.o)
 .debug_str     0x00002240       0x36 ../experiment2_bsp//libucosii_bsp.a(os_q.o)
 .debug_str     0x00002276       0x36 ../experiment2_bsp//libucosii_bsp.a(os_sem.o)
 .debug_str     0x000022ac       0x23 ../experiment2_bsp//libucosii_bsp.a(os_task.o)
 .debug_str     0x000022cf       0x1f ../experiment2_bsp//libucosii_bsp.a(os_time.o)
 .debug_str     0x000022ee       0x2b ../experiment2_bsp//libucosii_bsp.a(alt_sys_init.o)
 .debug_str     0x00002319       0x12 ../experiment2_bsp//libucosii_bsp.a(altera_avalon_jtag_uart_fd.o)
 .debug_str     0x0000232b       0x1a ../experiment2_bsp//libucosii_bsp.a(altera_avalon_jtag_uart_init.o)
 .debug_str     0x00002345       0x12 ../experiment2_bsp//libucosii_bsp.a(altera_avalon_jtag_uart_ioctl.o)
 .debug_str     0x00002357       0x22 ../experiment2_bsp//libucosii_bsp.a(altera_avalon_jtag_uart_read.o)
 .debug_str     0x00002379       0x22 ../experiment2_bsp//libucosii_bsp.a(altera_avalon_jtag_uart_write.o)
 .debug_str     0x0000239b       0x12 ../experiment2_bsp//libucosii_bsp.a(altera_avalon_timer_sc.o)
 .debug_str     0x000023ad       0x55 ../experiment2_bsp//libucosii_bsp.a(altera_up_avalon_character_lcd.o)
 .debug_str     0x00002402       0x23 ../experiment2_bsp//libucosii_bsp.a(alt_alarm_start.o)
 .debug_str     0x00002425       0x12 ../experiment2_bsp//libucosii_bsp.a(alt_dcache_flush_all.o)
 .debug_str     0x00002437       0x12 ../experiment2_bsp//libucosii_bsp.a(alt_dev_llist_insert.o)
 .debug_str     0x00002449       0x12 ../experiment2_bsp//libucosii_bsp.a(alt_find_dev.o)
 .debug_str     0x0000245b       0x12 ../experiment2_bsp//libucosii_bsp.a(alt_icache_flush_all.o)
 .debug_str     0x0000246d       0x18 ../experiment2_bsp//libucosii_bsp.a(alt_iic.o)
 .debug_str     0x00002485       0x1a ../experiment2_bsp//libucosii_bsp.a(alt_iic_isr_register.o)
 .debug_str     0x0000249f       0x12 ../experiment2_bsp//libucosii_bsp.a(alt_io_redirect.o)
 .debug_str     0x000024b1       0x12 ../experiment2_bsp//libucosii_bsp.a(alt_irq_handler.o)
 .debug_str     0x000024c3       0x12 ../experiment2_bsp//libucosii_bsp.a(alt_open.o)
 .debug_str     0x000024d5       0x1a ../experiment2_bsp//libucosii_bsp.a(alt_tick.o)
 .debug_str     0x000024ef       0x12 ../experiment2_bsp//libucosii_bsp.a(altera_nios2_qsys_irq.o)
 .debug_str     0x00002501       0x20 ../experiment2_bsp//libucosii_bsp.a(os_cpu_c.o)
 .debug_str     0x00002521       0x12 ../experiment2_bsp//libucosii_bsp.a(alt_find_file.o)
 .debug_str     0x00002533       0x12 ../experiment2_bsp//libucosii_bsp.a(alt_get_fd.o)
 .debug_str     0x00002545       0x3e /tools/altera/12.0/nios2eds/bin/gnu/H-i686-pc-linux-gnu/bin/../lib/gcc/nios2-elf/4.1.2/../../../../nios2-elf/lib/mno-hw-mul/libc.a(lib_a-atexit.o)
                                0x1cf (size before relaxing)
 .debug_str     0x00002583       0x41 /tools/altera/12.0/nios2eds/bin/gnu/H-i686-pc-linux-gnu/bin/../lib/gcc/nios2-elf/4.1.2/../../../../nios2-elf/lib/mno-hw-mul/libc.a(lib_a-exit.o)
                                0x51c (size before relaxing)
 .debug_str     0x000025c4       0x45 /tools/altera/12.0/nios2eds/bin/gnu/H-i686-pc-linux-gnu/bin/../lib/gcc/nios2-elf/4.1.2/../../../../nios2-elf/lib/mno-hw-mul/libc.a(lib_a-memcmp.o)
                                0x17a (size before relaxing)
 .debug_str     0x00002609       0x48 /tools/altera/12.0/nios2eds/bin/gnu/H-i686-pc-linux-gnu/bin/../lib/gcc/nios2-elf/4.1.2/../../../../nios2-elf/lib/mno-hw-mul/libc.a(lib_a-putc.o)
                                0x522 (size before relaxing)
 .debug_str     0x00002651       0x4d /tools/altera/12.0/nios2eds/bin/gnu/H-i686-pc-linux-gnu/bin/../lib/gcc/nios2-elf/4.1.2/../../../../nios2-elf/lib/mno-hw-mul/libc.a(lib_a-wbuf.o)
                                0x520 (size before relaxing)
 .debug_str     0x0000269e       0x54 /tools/altera/12.0/nios2eds/bin/gnu/H-i686-pc-linux-gnu/bin/../lib/gcc/nios2-elf/4.1.2/../../../../nios2-elf/lib/mno-hw-mul/libc.a(lib_a-__atexit.o)
                                0x534 (size before relaxing)
 .debug_str     0x000026f2       0x7e /tools/altera/12.0/nios2eds/bin/gnu/H-i686-pc-linux-gnu/bin/../lib/gcc/nios2-elf/4.1.2/../../../../nios2-elf/lib/mno-hw-mul/libc.a(lib_a-__call_atexit.o)
                                0x55e (size before relaxing)
 .debug_str     0x00002770       0x1c ../experiment2_bsp//libucosii_bsp.a(alt_exit.o)

.debug_loc      0x00000000     0xdb09
 *(.debug_loc)
 .debug_loc     0x00000000      0x102 obj/default/PB_button.o
 .debug_loc     0x00000102       0x56 obj/default/alt_ucosii_simple_error_check.o
 .debug_loc     0x00000158       0xac obj/default/experiment2.o
 .debug_loc     0x00000204      0x15a obj/default/tasks.o
 .debug_loc     0x0000035e      0x1d2 /tools/altera/12.0/nios2eds/bin/gnu/H-i686-pc-linux-gnu/bin/../lib/gcc/nios2-elf/4.1.2/mno-hw-mul/libgcc.a(lib2-divmod.o)
 .debug_loc     0x00000530       0x4f /tools/altera/12.0/nios2eds/bin/gnu/H-i686-pc-linux-gnu/bin/../lib/gcc/nios2-elf/4.1.2/mno-hw-mul/libgcc.a(lib2-mul.o)
 .debug_loc     0x0000057f       0xf1 /tools/altera/12.0/nios2eds/bin/gnu/H-i686-pc-linux-gnu/bin/../lib/gcc/nios2-elf/4.1.2/../../../../nios2-elf/lib/mno-hw-mul/libc.a(lib_a-fprintf.o)
 .debug_loc     0x00000670      0x183 /tools/altera/12.0/nios2eds/bin/gnu/H-i686-pc-linux-gnu/bin/../lib/gcc/nios2-elf/4.1.2/../../../../nios2-elf/lib/mno-hw-mul/libc.a(lib_a-fwrite.o)
 .debug_loc     0x000007f3       0xcb /tools/altera/12.0/nios2eds/bin/gnu/H-i686-pc-linux-gnu/bin/../lib/gcc/nios2-elf/4.1.2/../../../../nios2-elf/lib/mno-hw-mul/libc.a(lib_a-printf.o)
 .debug_loc     0x000008be       0xa2 /tools/altera/12.0/nios2eds/bin/gnu/H-i686-pc-linux-gnu/bin/../lib/gcc/nios2-elf/4.1.2/../../../../nios2-elf/lib/mno-hw-mul/libc.a(lib_a-puts.o)
 .debug_loc     0x00000960       0x42 /tools/altera/12.0/nios2eds/bin/gnu/H-i686-pc-linux-gnu/bin/../lib/gcc/nios2-elf/4.1.2/../../../../nios2-elf/lib/mno-hw-mul/libc.a(lib_a-rand.o)
 .debug_loc     0x000009a2       0x3c /tools/altera/12.0/nios2eds/bin/gnu/H-i686-pc-linux-gnu/bin/../lib/gcc/nios2-elf/4.1.2/../../../../nios2-elf/lib/mno-hw-mul/libc.a(lib_a-strlen.o)
 .debug_loc     0x000009de     0x1dc0 /tools/altera/12.0/nios2eds/bin/gnu/H-i686-pc-linux-gnu/bin/../lib/gcc/nios2-elf/4.1.2/../../../../nios2-elf/lib/mno-hw-mul/libc.a(lib_a-vfprintf.o)
 .debug_loc     0x0000279e       0x7c /tools/altera/12.0/nios2eds/bin/gnu/H-i686-pc-linux-gnu/bin/../lib/gcc/nios2-elf/4.1.2/../../../../nios2-elf/lib/mno-hw-mul/libc.a(lib_a-wsetup.o)
 .debug_loc     0x0000281a     0x1da7 /tools/altera/12.0/nios2eds/bin/gnu/H-i686-pc-linux-gnu/bin/../lib/gcc/nios2-elf/4.1.2/../../../../nios2-elf/lib/mno-hw-mul/libc.a(lib_a-dtoa.o)
 .debug_loc     0x000045c1      0x1f6 /tools/altera/12.0/nios2eds/bin/gnu/H-i686-pc-linux-gnu/bin/../lib/gcc/nios2-elf/4.1.2/../../../../nios2-elf/lib/mno-hw-mul/libc.a(lib_a-fflush.o)
 .debug_loc     0x000047b7      0x1e1 /tools/altera/12.0/nios2eds/bin/gnu/H-i686-pc-linux-gnu/bin/../lib/gcc/nios2-elf/4.1.2/../../../../nios2-elf/lib/mno-hw-mul/libc.a(lib_a-findfp.o)
 .debug_loc     0x00004998      0x4a7 /tools/altera/12.0/nios2eds/bin/gnu/H-i686-pc-linux-gnu/bin/../lib/gcc/nios2-elf/4.1.2/../../../../nios2-elf/lib/mno-hw-mul/libc.a(lib_a-freer.o)
 .debug_loc     0x00004e3f      0x4e4 /tools/altera/12.0/nios2eds/bin/gnu/H-i686-pc-linux-gnu/bin/../lib/gcc/nios2-elf/4.1.2/../../../../nios2-elf/lib/mno-hw-mul/libc.a(lib_a-fvwrite.o)
 .debug_loc     0x00005323      0x1d2 /tools/altera/12.0/nios2eds/bin/gnu/H-i686-pc-linux-gnu/bin/../lib/gcc/nios2-elf/4.1.2/../../../../nios2-elf/lib/mno-hw-mul/libc.a(lib_a-fwalk.o)
 .debug_loc     0x000054f5       0xe1 /tools/altera/12.0/nios2eds/bin/gnu/H-i686-pc-linux-gnu/bin/../lib/gcc/nios2-elf/4.1.2/../../../../nios2-elf/lib/mno-hw-mul/libc.a(lib_a-locale.o)
 .debug_loc     0x000055d6      0x11c /tools/altera/12.0/nios2eds/bin/gnu/H-i686-pc-linux-gnu/bin/../lib/gcc/nios2-elf/4.1.2/../../../../nios2-elf/lib/mno-hw-mul/libc.a(lib_a-makebuf.o)
 .debug_loc     0x000056f2      0xaeb /tools/altera/12.0/nios2eds/bin/gnu/H-i686-pc-linux-gnu/bin/../lib/gcc/nios2-elf/4.1.2/../../../../nios2-elf/lib/mno-hw-mul/libc.a(lib_a-mallocr.o)
 .debug_loc     0x000061dd      0x106 /tools/altera/12.0/nios2eds/bin/gnu/H-i686-pc-linux-gnu/bin/../lib/gcc/nios2-elf/4.1.2/../../../../nios2-elf/lib/mno-hw-mul/libc.a(lib_a-memchr.o)
 .debug_loc     0x000062e3       0xca /tools/altera/12.0/nios2eds/bin/gnu/H-i686-pc-linux-gnu/bin/../lib/gcc/nios2-elf/4.1.2/../../../../nios2-elf/lib/mno-hw-mul/libc.a(lib_a-memcpy.o)
 .debug_loc     0x000063ad      0x117 /tools/altera/12.0/nios2eds/bin/gnu/H-i686-pc-linux-gnu/bin/../lib/gcc/nios2-elf/4.1.2/../../../../nios2-elf/lib/mno-hw-mul/libc.a(lib_a-memmove.o)
 .debug_loc     0x000064c4       0xa1 /tools/altera/12.0/nios2eds/bin/gnu/H-i686-pc-linux-gnu/bin/../lib/gcc/nios2-elf/4.1.2/../../../../nios2-elf/lib/mno-hw-mul/libc.a(lib_a-memset.o)
 .debug_loc     0x00006565     0x1547 /tools/altera/12.0/nios2eds/bin/gnu/H-i686-pc-linux-gnu/bin/../lib/gcc/nios2-elf/4.1.2/../../../../nios2-elf/lib/mno-hw-mul/libc.a(lib_a-mprec.o)
 .debug_loc     0x00007aac      0x8c0 /tools/altera/12.0/nios2eds/bin/gnu/H-i686-pc-linux-gnu/bin/../lib/gcc/nios2-elf/4.1.2/../../../../nios2-elf/lib/mno-hw-mul/libc.a(lib_a-reallocr.o)
 .debug_loc     0x0000836c       0x36 /tools/altera/12.0/nios2eds/bin/gnu/H-i686-pc-linux-gnu/bin/../lib/gcc/nios2-elf/4.1.2/../../../../nios2-elf/lib/mno-hw-mul/libc.a(lib_a-s_isinfd.o)
 .debug_loc     0x000083a2       0x18 /tools/altera/12.0/nios2eds/bin/gnu/H-i686-pc-linux-gnu/bin/../lib/gcc/nios2-elf/4.1.2/../../../../nios2-elf/lib/mno-hw-mul/libc.a(lib_a-s_isnand.o)
 .debug_loc     0x000083ba       0x5b /tools/altera/12.0/nios2eds/bin/gnu/H-i686-pc-linux-gnu/bin/../lib/gcc/nios2-elf/4.1.2/../../../../nios2-elf/lib/mno-hw-mul/libc.a(lib_a-sbrkr.o)
 .debug_loc     0x00008415      0x21f /tools/altera/12.0/nios2eds/bin/gnu/H-i686-pc-linux-gnu/bin/../lib/gcc/nios2-elf/4.1.2/../../../../nios2-elf/lib/mno-hw-mul/libc.a(lib_a-stdio.o)
 .debug_loc     0x00008634       0x65 /tools/altera/12.0/nios2eds/bin/gnu/H-i686-pc-linux-gnu/bin/../lib/gcc/nios2-elf/4.1.2/../../../../nios2-elf/lib/mno-hw-mul/libc.a(lib_a-strcmp.o)
 .debug_loc     0x00008699       0x97 /tools/altera/12.0/nios2eds/bin/gnu/H-i686-pc-linux-gnu/bin/../lib/gcc/nios2-elf/4.1.2/../../../../nios2-elf/lib/mno-hw-mul/libc.a(lib_a-writer.o)
 .debug_loc     0x00008730       0xff /tools/altera/12.0/nios2eds/bin/gnu/H-i686-pc-linux-gnu/bin/../lib/gcc/nios2-elf/4.1.2/../../../../nios2-elf/lib/mno-hw-mul/libc.a(lib_a-callocr.o)
 .debug_loc     0x0000882f       0x5b /tools/altera/12.0/nios2eds/bin/gnu/H-i686-pc-linux-gnu/bin/../lib/gcc/nios2-elf/4.1.2/../../../../nios2-elf/lib/mno-hw-mul/libc.a(lib_a-closer.o)
 .debug_loc     0x0000888a       0xe4 /tools/altera/12.0/nios2eds/bin/gnu/H-i686-pc-linux-gnu/bin/../lib/gcc/nios2-elf/4.1.2/../../../../nios2-elf/lib/mno-hw-mul/libc.a(lib_a-fclose.o)
 .debug_loc     0x0000896e       0x79 /tools/altera/12.0/nios2eds/bin/gnu/H-i686-pc-linux-gnu/bin/../lib/gcc/nios2-elf/4.1.2/../../../../nios2-elf/lib/mno-hw-mul/libc.a(lib_a-fstatr.o)
 .debug_loc     0x000089e7       0x5b /tools/altera/12.0/nios2eds/bin/gnu/H-i686-pc-linux-gnu/bin/../lib/gcc/nios2-elf/4.1.2/../../../../nios2-elf/lib/mno-hw-mul/libc.a(lib_a-isattyr.o)
 .debug_loc     0x00008a42       0x97 /tools/altera/12.0/nios2eds/bin/gnu/H-i686-pc-linux-gnu/bin/../lib/gcc/nios2-elf/4.1.2/../../../../nios2-elf/lib/mno-hw-mul/libc.a(lib_a-lseekr.o)
 .debug_loc     0x00008ad9       0x97 /tools/altera/12.0/nios2eds/bin/gnu/H-i686-pc-linux-gnu/bin/../lib/gcc/nios2-elf/4.1.2/../../../../nios2-elf/lib/mno-hw-mul/libc.a(lib_a-readr.o)
 .debug_loc     0x00008b70      0x103 /tools/altera/12.0/nios2eds/bin/gnu/H-i686-pc-linux-gnu/bin/../lib/gcc/nios2-elf/4.1.2/mno-hw-mul/libgcc.a(_muldi3.o)
 .debug_loc     0x00008c73      0xc12 /tools/altera/12.0/nios2eds/bin/gnu/H-i686-pc-linux-gnu/bin/../lib/gcc/nios2-elf/4.1.2/mno-hw-mul/libgcc.a(_udivdi3.o)
 .debug_loc     0x00009885      0xbe2 /tools/altera/12.0/nios2eds/bin/gnu/H-i686-pc-linux-gnu/bin/../lib/gcc/nios2-elf/4.1.2/mno-hw-mul/libgcc.a(_umoddi3.o)
 .debug_loc     0x0000a467      0x47a /tools/altera/12.0/nios2eds/bin/gnu/H-i686-pc-linux-gnu/bin/../lib/gcc/nios2-elf/4.1.2/mno-hw-mul/libgcc.a(_addsub_df.o)
 .debug_loc     0x0000a8e1      0x3b4 /tools/altera/12.0/nios2eds/bin/gnu/H-i686-pc-linux-gnu/bin/../lib/gcc/nios2-elf/4.1.2/mno-hw-mul/libgcc.a(_mul_df.o)
 .debug_loc     0x0000ac95      0x1df /tools/altera/12.0/nios2eds/bin/gnu/H-i686-pc-linux-gnu/bin/../lib/gcc/nios2-elf/4.1.2/mno-hw-mul/libgcc.a(_div_df.o)
 .debug_loc     0x0000ae74       0x70 /tools/altera/12.0/nios2eds/bin/gnu/H-i686-pc-linux-gnu/bin/../lib/gcc/nios2-elf/4.1.2/mno-hw-mul/libgcc.a(_eq_df.o)
 .debug_loc     0x0000aee4       0x70 /tools/altera/12.0/nios2eds/bin/gnu/H-i686-pc-linux-gnu/bin/../lib/gcc/nios2-elf/4.1.2/mno-hw-mul/libgcc.a(_ne_df.o)
 .debug_loc     0x0000af54       0x70 /tools/altera/12.0/nios2eds/bin/gnu/H-i686-pc-linux-gnu/bin/../lib/gcc/nios2-elf/4.1.2/mno-hw-mul/libgcc.a(_gt_df.o)
 .debug_loc     0x0000afc4       0x70 /tools/altera/12.0/nios2eds/bin/gnu/H-i686-pc-linux-gnu/bin/../lib/gcc/nios2-elf/4.1.2/mno-hw-mul/libgcc.a(_ge_df.o)
 .debug_loc     0x0000b034       0x70 /tools/altera/12.0/nios2eds/bin/gnu/H-i686-pc-linux-gnu/bin/../lib/gcc/nios2-elf/4.1.2/mno-hw-mul/libgcc.a(_lt_df.o)
 .debug_loc     0x0000b0a4       0x9a /tools/altera/12.0/nios2eds/bin/gnu/H-i686-pc-linux-gnu/bin/../lib/gcc/nios2-elf/4.1.2/mno-hw-mul/libgcc.a(_si_to_df.o)
 .debug_loc     0x0000b13e       0x8b /tools/altera/12.0/nios2eds/bin/gnu/H-i686-pc-linux-gnu/bin/../lib/gcc/nios2-elf/4.1.2/mno-hw-mul/libgcc.a(_df_to_si.o)
 .debug_loc     0x0000b1c9       0x5b /tools/altera/12.0/nios2eds/bin/gnu/H-i686-pc-linux-gnu/bin/../lib/gcc/nios2-elf/4.1.2/mno-hw-mul/libgcc.a(_usi_to_df.o)
 .debug_loc     0x0000b224       0x1e /tools/altera/12.0/nios2eds/bin/gnu/H-i686-pc-linux-gnu/bin/../lib/gcc/nios2-elf/4.1.2/mno-hw-mul/libgcc.a(_clzsi2.o)
 .debug_loc     0x0000b242      0x184 /tools/altera/12.0/nios2eds/bin/gnu/H-i686-pc-linux-gnu/bin/../lib/gcc/nios2-elf/4.1.2/mno-hw-mul/libgcc.a(_pack_df.o)
 .debug_loc     0x0000b3c6       0xe5 /tools/altera/12.0/nios2eds/bin/gnu/H-i686-pc-linux-gnu/bin/../lib/gcc/nios2-elf/4.1.2/mno-hw-mul/libgcc.a(_unpack_df.o)
 .debug_loc     0x0000b4ab       0x56 ../experiment2_bsp//libucosii_bsp.a(alt_close.o)
 .debug_loc     0x0000b501       0x2b ../experiment2_bsp//libucosii_bsp.a(alt_dev.o)
 .debug_loc     0x0000b52c       0x56 ../experiment2_bsp//libucosii_bsp.a(alt_fstat.o)
 .debug_loc     0x0000b582       0x2c ../experiment2_bsp//libucosii_bsp.a(alt_irq_register.o)
 .debug_loc     0x0000b5ae       0x57 ../experiment2_bsp//libucosii_bsp.a(alt_isatty.o)
 .debug_loc     0x0000b605       0x56 ../experiment2_bsp//libucosii_bsp.a(alt_load.o)
 .debug_loc     0x0000b65b       0x56 ../experiment2_bsp//libucosii_bsp.a(alt_lseek.o)
 .debug_loc     0x0000b6b1       0x2b ../experiment2_bsp//libucosii_bsp.a(alt_main.o)
 .debug_loc     0x0000b6dc       0x2b ../experiment2_bsp//libucosii_bsp.a(alt_printf.o)
 .debug_loc     0x0000b707       0x2b ../experiment2_bsp//libucosii_bsp.a(alt_putchar.o)
 .debug_loc     0x0000b732       0x56 ../experiment2_bsp//libucosii_bsp.a(alt_read.o)
 .debug_loc     0x0000b788       0x2b ../experiment2_bsp//libucosii_bsp.a(alt_release_fd.o)
 .debug_loc     0x0000b7b3       0x2b ../experiment2_bsp//libucosii_bsp.a(alt_sbrk.o)
 .debug_loc     0x0000b7de       0x56 ../experiment2_bsp//libucosii_bsp.a(alt_write.o)
 .debug_loc     0x0000b834       0x57 ../experiment2_bsp//libucosii_bsp.a(alt_env_lock.o)
 .debug_loc     0x0000b88b       0x57 ../experiment2_bsp//libucosii_bsp.a(alt_malloc_lock.o)
 .debug_loc     0x0000b8e2      0x5e2 ../experiment2_bsp//libucosii_bsp.a(os_core.o)
 .debug_loc     0x0000bec4       0x2b ../experiment2_bsp//libucosii_bsp.a(os_dbg.o)
 .debug_loc     0x0000beef      0x232 ../experiment2_bsp//libucosii_bsp.a(os_flag.o)
 .debug_loc     0x0000c121      0x12d ../experiment2_bsp//libucosii_bsp.a(os_mem.o)
 .debug_loc     0x0000c24e      0x1da ../experiment2_bsp//libucosii_bsp.a(os_q.o)
 .debug_loc     0x0000c428      0x158 ../experiment2_bsp//libucosii_bsp.a(os_sem.o)
 .debug_loc     0x0000c580      0x207 ../experiment2_bsp//libucosii_bsp.a(os_task.o)
 .debug_loc     0x0000c787       0xd7 ../experiment2_bsp//libucosii_bsp.a(os_time.o)
 .debug_loc     0x0000c85e       0x81 ../experiment2_bsp//libucosii_bsp.a(alt_sys_init.o)
 .debug_loc     0x0000c8df       0xac ../experiment2_bsp//libucosii_bsp.a(altera_avalon_jtag_uart_fd.o)
 .debug_loc     0x0000c98b       0xac ../experiment2_bsp//libucosii_bsp.a(altera_avalon_jtag_uart_init.o)
 .debug_loc     0x0000ca37       0x2b ../experiment2_bsp//libucosii_bsp.a(altera_avalon_jtag_uart_ioctl.o)
 .debug_loc     0x0000ca62       0x2c ../experiment2_bsp//libucosii_bsp.a(altera_avalon_jtag_uart_read.o)
 .debug_loc     0x0000ca8e       0x2c ../experiment2_bsp//libucosii_bsp.a(altera_avalon_jtag_uart_write.o)
 .debug_loc     0x0000caba       0x56 ../experiment2_bsp//libucosii_bsp.a(altera_avalon_timer_sc.o)
 .debug_loc     0x0000cb10      0x22f ../experiment2_bsp//libucosii_bsp.a(altera_up_avalon_character_lcd.o)
 .debug_loc     0x0000cd3f       0x2b ../experiment2_bsp//libucosii_bsp.a(alt_alarm_start.o)
 .debug_loc     0x0000cd6a       0x2b ../experiment2_bsp//libucosii_bsp.a(alt_dcache_flush_all.o)
 .debug_loc     0x0000cd95       0x56 ../experiment2_bsp//libucosii_bsp.a(alt_dev_llist_insert.o)
 .debug_loc     0x0000cdeb       0x2b ../experiment2_bsp//libucosii_bsp.a(alt_do_ctors.o)
 .debug_loc     0x0000ce16       0x2b ../experiment2_bsp//libucosii_bsp.a(alt_do_dtors.o)
 .debug_loc     0x0000ce41       0x2b ../experiment2_bsp//libucosii_bsp.a(alt_find_dev.o)
 .debug_loc     0x0000ce6c       0x2b ../experiment2_bsp//libucosii_bsp.a(alt_icache_flush_all.o)
 .debug_loc     0x0000ce97       0xac ../experiment2_bsp//libucosii_bsp.a(alt_iic.o)
 .debug_loc     0x0000cf43       0x2b ../experiment2_bsp//libucosii_bsp.a(alt_iic_isr_register.o)
 .debug_loc     0x0000cf6e       0x56 ../experiment2_bsp//libucosii_bsp.a(alt_io_redirect.o)
 .debug_loc     0x0000cfc4       0x2b ../experiment2_bsp//libucosii_bsp.a(alt_irq_handler.o)
 .debug_loc     0x0000cfef       0x81 ../experiment2_bsp//libucosii_bsp.a(alt_open.o)
 .debug_loc     0x0000d070       0x56 ../experiment2_bsp//libucosii_bsp.a(alt_tick.o)
 .debug_loc     0x0000d0c6       0x2b ../experiment2_bsp//libucosii_bsp.a(altera_nios2_qsys_irq.o)
 .debug_loc     0x0000d0f1      0x1ae ../experiment2_bsp//libucosii_bsp.a(os_cpu_c.o)
 .debug_loc     0x0000d29f       0x2b ../experiment2_bsp//libucosii_bsp.a(alt_find_file.o)
 .debug_loc     0x0000d2ca       0x2b ../experiment2_bsp//libucosii_bsp.a(alt_get_fd.o)
 .debug_loc     0x0000d2f5       0x1e /tools/altera/12.0/nios2eds/bin/gnu/H-i686-pc-linux-gnu/bin/../lib/gcc/nios2-elf/4.1.2/../../../../nios2-elf/lib/mno-hw-mul/libc.a(lib_a-atexit.o)
 .debug_loc     0x0000d313       0x3d /tools/altera/12.0/nios2eds/bin/gnu/H-i686-pc-linux-gnu/bin/../lib/gcc/nios2-elf/4.1.2/../../../../nios2-elf/lib/mno-hw-mul/libc.a(lib_a-exit.o)
 .debug_loc     0x0000d350      0x114 /tools/altera/12.0/nios2eds/bin/gnu/H-i686-pc-linux-gnu/bin/../lib/gcc/nios2-elf/4.1.2/../../../../nios2-elf/lib/mno-hw-mul/libc.a(lib_a-memcmp.o)
 .debug_loc     0x0000d464      0x20d /tools/altera/12.0/nios2eds/bin/gnu/H-i686-pc-linux-gnu/bin/../lib/gcc/nios2-elf/4.1.2/../../../../nios2-elf/lib/mno-hw-mul/libc.a(lib_a-putc.o)
 .debug_loc     0x0000d671      0x157 /tools/altera/12.0/nios2eds/bin/gnu/H-i686-pc-linux-gnu/bin/../lib/gcc/nios2-elf/4.1.2/../../../../nios2-elf/lib/mno-hw-mul/libc.a(lib_a-wbuf.o)
 .debug_loc     0x0000d7c8      0x120 /tools/altera/12.0/nios2eds/bin/gnu/H-i686-pc-linux-gnu/bin/../lib/gcc/nios2-elf/4.1.2/../../../../nios2-elf/lib/mno-hw-mul/libc.a(lib_a-__atexit.o)
 .debug_loc     0x0000d8e8      0x1cb /tools/altera/12.0/nios2eds/bin/gnu/H-i686-pc-linux-gnu/bin/../lib/gcc/nios2-elf/4.1.2/../../../../nios2-elf/lib/mno-hw-mul/libc.a(lib_a-__call_atexit.o)
 .debug_loc     0x0000dab3       0x56 ../experiment2_bsp//libucosii_bsp.a(alt_exit.o)

.debug_macinfo
 *(.debug_macinfo)

.debug_weaknames
 *(.debug_weaknames)

.debug_funcnames
 *(.debug_funcnames)

.debug_typenames
 *(.debug_typenames)

.debug_varnames
 *(.debug_varnames)

.debug_alt_sim_info
                0x00000000       0x10
 *(.debug_alt_sim_info)
 .debug_alt_sim_info
                0x00000000       0x10 ../experiment2_bsp//obj/HAL/src/crt0.o
                0x00100000                __alt_data_end = 0x100000
                0x00100000                PROVIDE (__alt_stack_pointer, __alt_data_end)
                0x000ac678                PROVIDE (__alt_stack_limit, __alt_stack_base)
                0x000ac678                PROVIDE (__alt_heap_start, end)
                0x00100000                PROVIDE (__alt_heap_limit, 0x100000)
OUTPUT(experiment2.elf elf32-littlenios2)

.debug_ranges   0x00000000      0x9f8
 .debug_ranges  0x00000000       0x20 ../experiment2_bsp//obj/HAL/src/crt0.o
 .debug_ranges  0x00000020      0x168 /tools/altera/12.0/nios2eds/bin/gnu/H-i686-pc-linux-gnu/bin/../lib/gcc/nios2-elf/4.1.2/../../../../nios2-elf/lib/mno-hw-mul/libc.a(lib_a-vfprintf.o)
 .debug_ranges  0x00000188       0x20 /tools/altera/12.0/nios2eds/bin/gnu/H-i686-pc-linux-gnu/bin/../lib/gcc/nios2-elf/4.1.2/../../../../nios2-elf/lib/mno-hw-mul/libc.a(lib_a-fflush.o)
 .debug_ranges  0x000001a8       0x28 /tools/altera/12.0/nios2eds/bin/gnu/H-i686-pc-linux-gnu/bin/../lib/gcc/nios2-elf/4.1.2/../../../../nios2-elf/lib/mno-hw-mul/libc.a(lib_a-fvwrite.o)
 .debug_ranges  0x000001d0       0xa0 /tools/altera/12.0/nios2eds/bin/gnu/H-i686-pc-linux-gnu/bin/../lib/gcc/nios2-elf/4.1.2/../../../../nios2-elf/lib/mno-hw-mul/libc.a(lib_a-fwalk.o)
 .debug_ranges  0x00000270       0x70 /tools/altera/12.0/nios2eds/bin/gnu/H-i686-pc-linux-gnu/bin/../lib/gcc/nios2-elf/4.1.2/../../../../nios2-elf/lib/mno-hw-mul/libc.a(lib_a-mallocr.o)
 .debug_ranges  0x000002e0      0x110 /tools/altera/12.0/nios2eds/bin/gnu/H-i686-pc-linux-gnu/bin/../lib/gcc/nios2-elf/4.1.2/../../../../nios2-elf/lib/mno-hw-mul/libc.a(lib_a-reallocr.o)
 .debug_ranges  0x000003f0       0x38 /tools/altera/12.0/nios2eds/bin/gnu/H-i686-pc-linux-gnu/bin/../lib/gcc/nios2-elf/4.1.2/../../../../nios2-elf/lib/mno-hw-mul/libc.a(lib_a-callocr.o)
 .debug_ranges  0x00000428       0x88 /tools/altera/12.0/nios2eds/bin/gnu/H-i686-pc-linux-gnu/bin/../lib/gcc/nios2-elf/4.1.2/mno-hw-mul/libgcc.a(_muldi3.o)
 .debug_ranges  0x000004b0      0x190 /tools/altera/12.0/nios2eds/bin/gnu/H-i686-pc-linux-gnu/bin/../lib/gcc/nios2-elf/4.1.2/mno-hw-mul/libgcc.a(_udivdi3.o)
 .debug_ranges  0x00000640      0x1c0 /tools/altera/12.0/nios2eds/bin/gnu/H-i686-pc-linux-gnu/bin/../lib/gcc/nios2-elf/4.1.2/mno-hw-mul/libgcc.a(_umoddi3.o)
 .debug_ranges  0x00000800       0x30 /tools/altera/12.0/nios2eds/bin/gnu/H-i686-pc-linux-gnu/bin/../lib/gcc/nios2-elf/4.1.2/mno-hw-mul/libgcc.a(_addsub_df.o)
 .debug_ranges  0x00000830       0x88 /tools/altera/12.0/nios2eds/bin/gnu/H-i686-pc-linux-gnu/bin/../lib/gcc/nios2-elf/4.1.2/mno-hw-mul/libgcc.a(_mul_df.o)
 .debug_ranges  0x000008b8       0x50 /tools/altera/12.0/nios2eds/bin/gnu/H-i686-pc-linux-gnu/bin/../lib/gcc/nios2-elf/4.1.2/mno-hw-mul/libgcc.a(_div_df.o)
 .debug_ranges  0x00000908       0x18 /tools/altera/12.0/nios2eds/bin/gnu/H-i686-pc-linux-gnu/bin/../lib/gcc/nios2-elf/4.1.2/mno-hw-mul/libgcc.a(_usi_to_df.o)
 .debug_ranges  0x00000920       0x28 /tools/altera/12.0/nios2eds/bin/gnu/H-i686-pc-linux-gnu/bin/../lib/gcc/nios2-elf/4.1.2/mno-hw-mul/libgcc.a(_clzsi2.o)
 .debug_ranges  0x00000948       0x28 /tools/altera/12.0/nios2eds/bin/gnu/H-i686-pc-linux-gnu/bin/../lib/gcc/nios2-elf/4.1.2/mno-hw-mul/libgcc.a(_pack_df.o)
 .debug_ranges  0x00000970       0x18 ../experiment2_bsp//libucosii_bsp.a(altera_avalon_jtag_uart_init.o)
 .debug_ranges  0x00000988       0x28 ../experiment2_bsp//libucosii_bsp.a(alt_irq_entry.o)
 .debug_ranges  0x000009b0       0x30 ../experiment2_bsp//libucosii_bsp.a(alt_exception_entry.o)
 .debug_ranges  0x000009e0       0x18 /tools/altera/12.0/nios2eds/bin/gnu/H-i686-pc-linux-gnu/bin/../lib/gcc/nios2-elf/4.1.2/../../../../nios2-elf/lib/mno-hw-mul/libc.a(lib_a-__call_atexit.o)
