
experiment3.elf:     file format elf32-littlenios2
experiment3.elf
architecture: nios2, flags 0x00000112:
EXEC_P, HAS_SYMS, D_PAGED
start address 0x000801b4

Program Header:
    LOAD off    0x00001000 vaddr 0x00080000 paddr 0x00080000 align 2**12
         filesz 0x00000020 memsz 0x00000020 flags r-x
    LOAD off    0x00001020 vaddr 0x00080020 paddr 0x00080020 align 2**12
         filesz 0x00012690 memsz 0x00012690 flags r-x
    LOAD off    0x000136b0 vaddr 0x000926b0 paddr 0x00094144 align 2**12
         filesz 0x00001a94 memsz 0x00001a94 flags rw-
    LOAD off    0x00015bd8 vaddr 0x00095bd8 paddr 0x00095bd8 align 2**12
         filesz 0x00000000 memsz 0x00038c8c flags rw-

Sections:
Idx Name          Size      VMA       LMA       File off  Algn
  0 .entry        00000020  00080000  00080000  00001000  2**5
                  CONTENTS, ALLOC, LOAD, READONLY, CODE
  1 .exceptions   00000194  00080020  00080020  00001020  2**2
                  CONTENTS, ALLOC, LOAD, READONLY, CODE
  2 .text         00011e78  000801b4  000801b4  000011b4  2**2
                  CONTENTS, ALLOC, LOAD, READONLY, CODE
  3 .rodata       00000684  0009202c  0009202c  0001302c  2**2
                  CONTENTS, ALLOC, LOAD, READONLY, DATA
  4 .rwdata       00001a94  000926b0  00094144  000136b0  2**2
                  CONTENTS, ALLOC, LOAD, DATA, SMALL_DATA
  5 .bss          00038c8c  00095bd8  00095bd8  00015bd8  2**2
                  ALLOC, SMALL_DATA
  6 .comment      00000023  00000000  00000000  00015144  2**0
                  CONTENTS, READONLY
  7 .debug_aranges 00000d18  00000000  00000000  00015168  2**3
                  CONTENTS, READONLY, DEBUGGING
  8 .debug_pubnames 00001a39  00000000  00000000  00015e80  2**0
                  CONTENTS, READONLY, DEBUGGING
  9 .debug_info   0002629b  00000000  00000000  000178b9  2**0
                  CONTENTS, READONLY, DEBUGGING
 10 .debug_abbrev 00007f96  00000000  00000000  0003db54  2**0
                  CONTENTS, READONLY, DEBUGGING
 11 .debug_line   000166a9  00000000  00000000  00045aea  2**0
                  CONTENTS, READONLY, DEBUGGING
 12 .debug_frame  00001dd8  00000000  00000000  0005c194  2**2
                  CONTENTS, READONLY, DEBUGGING
 13 .debug_str    000024c9  00000000  00000000  0005df6c  2**0
                  CONTENTS, READONLY, DEBUGGING
 14 .debug_loc    0000c608  00000000  00000000  00060435  2**0
                  CONTENTS, READONLY, DEBUGGING
 15 .debug_alt_sim_info 00000040  00000000  00000000  0006ca40  2**2
                  CONTENTS, READONLY, DEBUGGING
 16 .debug_ranges 000009e0  00000000  00000000  0006ca80  2**3
                  CONTENTS, READONLY, DEBUGGING
 17 .thread_model 00000003  00000000  00000000  00070dfb  2**0
                  CONTENTS, READONLY
 18 .cpu          00000005  00000000  00000000  00070dfe  2**0
                  CONTENTS, READONLY
 19 .qsys         00000001  00000000  00000000  00070e03  2**0
                  CONTENTS, READONLY
 20 .simulation_enabled 00000001  00000000  00000000  00070e04  2**0
                  CONTENTS, READONLY
 21 .stderr_dev   0000000b  00000000  00000000  00070e05  2**0
                  CONTENTS, READONLY
 22 .stdin_dev    0000000b  00000000  00000000  00070e10  2**0
                  CONTENTS, READONLY
 23 .stdout_dev   0000000b  00000000  00000000  00070e1b  2**0
                  CONTENTS, READONLY
 24 .sopc_system_name 0000000b  00000000  00000000  00070e26  2**0
                  CONTENTS, READONLY
 25 .quartus_project_dir 00000036  00000000  00000000  00070e31  2**0
                  CONTENTS, READONLY
 26 .jdi          00004821  00000000  00000000  00070e67  2**0
                  CONTENTS, READONLY
 27 .sopcinfo     0004ab61  00000000  00000000  00075688  2**0
                  CONTENTS, READONLY
SYMBOL TABLE:
00080000 l    d  .entry	00000000 .entry
00080020 l    d  .exceptions	00000000 .exceptions
000801b4 l    d  .text	00000000 .text
0009202c l    d  .rodata	00000000 .rodata
000926b0 l    d  .rwdata	00000000 .rwdata
00095bd8 l    d  .bss	00000000 .bss
00000000 l    d  .comment	00000000 .comment
00000000 l    d  .debug_aranges	00000000 .debug_aranges
00000000 l    d  .debug_pubnames	00000000 .debug_pubnames
00000000 l    d  .debug_info	00000000 .debug_info
00000000 l    d  .debug_abbrev	00000000 .debug_abbrev
00000000 l    d  .debug_line	00000000 .debug_line
00000000 l    d  .debug_frame	00000000 .debug_frame
00000000 l    d  .debug_str	00000000 .debug_str
00000000 l    d  .debug_loc	00000000 .debug_loc
00000000 l    d  .debug_alt_sim_info	00000000 .debug_alt_sim_info
00000000 l    d  .debug_ranges	00000000 .debug_ranges
000801ec l       .text	00000000 alt_after_alt_main
00000000 l    df *ABS*	00000000 alt_irq_handler.c
00000000 l    df *ABS*	00000000 LCD_Camera_TouchPanel.c
000940f8 l     O .rwdata	00000004 new_config.2663
00095bd8 l     O .bss	00000004 config.2662
000940fc l     O .rwdata	00000004 run.2661
00094100 l     O .rwdata	00000004 exposure.2660
00000000 l    df *ABS*	00000000 PB_button.c
00000000 l    df *ABS*	00000000 SD_card_controller.c
00000000 l    df *ABS*	00000000 experiment3.c
00000000 l    df *ABS*	00000000 lib2-divmod.c
00085830 l     F .text	0000007c udivmodsi4
00000000 l    df *ABS*	00000000 lib2-mul.c
00000000 l    df *ABS*	00000000 printf.c
00000000 l    df *ABS*	00000000 puts.c
00000000 l    df *ABS*	00000000 sprintf.c
00000000 l    df *ABS*	00000000 strlen.c
00000000 l    df *ABS*	00000000 vfprintf.c
00085c28 l     F .text	00000058 __sprint_r
000923ce l     O .rodata	00000010 blanks.3452
000923be l     O .rodata	00000010 zeroes.3453
00000000 l    df *ABS*	00000000 wsetup.c
00000000 l    df *ABS*	00000000 dtoa.c
00087ca4 l     F .text	00000244 quorem
00000000 l    df *ABS*	00000000 fflush.c
00000000 l    df *ABS*	00000000 findfp.c
000896cc l     F .text	00000058 std
000897d8 l     F .text	00000008 __fp_lock
000897e0 l     F .text	00000008 __fp_unlock
00000000 l    df *ABS*	00000000 mallocr.c
00000000 l    df *ABS*	00000000 fvwrite.c
00000000 l    df *ABS*	00000000 fwalk.c
00000000 l    df *ABS*	00000000 impure.c
000926b0 l     O .rwdata	00000400 impure_data
00000000 l    df *ABS*	00000000 locale.c
00094110 l     O .rwdata	00000004 charset
00092404 l     O .rodata	00000030 lconv
00000000 l    df *ABS*	00000000 makebuf.c
00000000 l    df *ABS*	00000000 mallocr.c
00000000 l    df *ABS*	00000000 memchr.c
00000000 l    df *ABS*	00000000 memcpy.c
00000000 l    df *ABS*	00000000 memmove.c
00000000 l    df *ABS*	00000000 memset.c
00000000 l    df *ABS*	00000000 mprec.c
0009254c l     O .rodata	0000000c p05.2458
00000000 l    df *ABS*	00000000 mallocr.c
00000000 l    df *ABS*	00000000 s_isinfd.c
00000000 l    df *ABS*	00000000 s_isnand.c
00000000 l    df *ABS*	00000000 sbrkr.c
00000000 l    df *ABS*	00000000 stdio.c
00000000 l    df *ABS*	00000000 strcmp.c
00000000 l    df *ABS*	00000000 writer.c
00000000 l    df *ABS*	00000000 mallocr.c
00000000 l    df *ABS*	00000000 closer.c
00000000 l    df *ABS*	00000000 fclose.c
00000000 l    df *ABS*	00000000 fstatr.c
00000000 l    df *ABS*	00000000 int_errno.c
00000000 l    df *ABS*	00000000 isattyr.c
00000000 l    df *ABS*	00000000 lseekr.c
00000000 l    df *ABS*	00000000 readr.c
00000000 l    df *ABS*	00000000 libgcc2.c
00000000 l    df *ABS*	00000000 libgcc2.c
00000000 l    df *ABS*	00000000 dp-bit.c
0008db8c l     F .text	00000410 _fpadd_parts
00000000 l    df *ABS*	00000000 dp-bit.c
00000000 l    df *ABS*	00000000 dp-bit.c
00000000 l    df *ABS*	00000000 dp-bit.c
00000000 l    df *ABS*	00000000 dp-bit.c
00000000 l    df *ABS*	00000000 dp-bit.c
00000000 l    df *ABS*	00000000 dp-bit.c
00000000 l    df *ABS*	00000000 dp-bit.c
00000000 l    df *ABS*	00000000 dp-bit.c
00000000 l    df *ABS*	00000000 dp-bit.c
00000000 l    df *ABS*	00000000 dp-bit.c
00000000 l    df *ABS*	00000000 dp-bit.c
00000000 l    df *ABS*	00000000 libgcc2.c
00000000 l    df *ABS*	00000000 libgcc2.c
00000000 l    df *ABS*	00000000 libgcc2.c
00000000 l    df *ABS*	00000000 dp-bit.c
00000000 l    df *ABS*	00000000 dp-bit.c
00000000 l    df *ABS*	00000000 dp-bit.c
00000000 l    df *ABS*	00000000 alt_busy_sleep.c
00000000 l    df *ABS*	00000000 alt_close.c
0008f5cc l     F .text	00000060 alt_get_errno
00000000 l    df *ABS*	00000000 alt_dev.c
0008f62c l     F .text	0000002c alt_dev_null_write
00000000 l    df *ABS*	00000000 alt_errno.c
00000000 l    df *ABS*	00000000 alt_fstat.c
0008f730 l     F .text	00000060 alt_get_errno
00000000 l    df *ABS*	00000000 alt_irq_register.c
00000000 l    df *ABS*	00000000 alt_irq_vars.c
00000000 l    df *ABS*	00000000 alt_isatty.c
0008fa14 l     F .text	00000060 alt_get_errno
00000000 l    df *ABS*	00000000 alt_load.c
0008faf4 l     F .text	0000006c alt_load_section
00000000 l    df *ABS*	00000000 alt_lseek.c
0008fc54 l     F .text	00000060 alt_get_errno
00000000 l    df *ABS*	00000000 alt_main.c
00000000 l    df *ABS*	00000000 alt_malloc_lock.c
00000000 l    df *ABS*	00000000 alt_read.c
0008fe84 l     F .text	00000060 alt_get_errno
00000000 l    df *ABS*	00000000 alt_release_fd.c
00000000 l    df *ABS*	00000000 alt_sbrk.c
00094138 l     O .rwdata	00000004 heap_end
00000000 l    df *ABS*	00000000 alt_write.c
0009013c l     F .text	00000060 alt_get_errno
00000000 l    df *ABS*	00000000 alt_sys_init.c
0009306c l     O .rwdata	00001060 jtag_uart_0
000940cc l     O .rwdata	0000002c SD_CARD_0
00090220 l     F .text	00000038 alt_dev_reg
00000000 l    df *ABS*	00000000 altera_avalon_jtag_uart_fd.c
00000000 l    df *ABS*	00000000 altera_avalon_jtag_uart_init.c
00090460 l     F .text	00000228 altera_avalon_jtag_uart_irq
00090688 l     F .text	000000b0 altera_avalon_jtag_uart_timeout
00000000 l    df *ABS*	00000000 altera_avalon_jtag_uart_ioctl.c
00000000 l    df *ABS*	00000000 altera_avalon_jtag_uart_read.c
00000000 l    df *ABS*	00000000 altera_avalon_jtag_uart_write.c
00000000 l    df *ABS*	00000000 alt_alarm_start.c
00000000 l    df *ABS*	00000000 alt_dcache_flush_all.c
00000000 l    df *ABS*	00000000 alt_dev_llist_insert.c
00090f28 l     F .text	00000060 alt_get_errno
00000000 l    df *ABS*	00000000 alt_do_ctors.c
00000000 l    df *ABS*	00000000 alt_do_dtors.c
00000000 l    df *ABS*	00000000 alt_icache_flush_all.c
00000000 l    df *ABS*	00000000 alt_iic.c
00000000 l    df *ABS*	00000000 alt_iic_isr_register.c
00000000 l    df *ABS*	00000000 alt_io_redirect.c
00091338 l     F .text	000000d8 alt_open_fd
00000000 l    df *ABS*	00000000 alt_open.c
00091488 l     F .text	000000f8 alt_file_locked
0009170c l     F .text	00000060 alt_get_errno
00000000 l    df *ABS*	00000000 alt_tick.c
00000000 l    df *ABS*	00000000 altera_nios2_qsys_irq.c
00000000 l    df *ABS*	00000000 alt_find_dev.c
00000000 l    df *ABS*	00000000 alt_find_file.c
00000000 l    df *ABS*	00000000 alt_get_fd.c
00000000 l    df *ABS*	00000000 atexit.c
00000000 l    df *ABS*	00000000 exit.c
00000000 l    df *ABS*	00000000 memcmp.c
00000000 l    df *ABS*	00000000 __atexit.c
00000000 l    df *ABS*	00000000 __call_atexit.c
00091da8 l     F .text	00000004 register_fini
00000000 l    df *ABS*	00000000 alt_exit.c
00091f5c l     F .text	00000040 alt_sim_halt
00095be4 g     O .bss	00000004 aux_status_register
0008b4bc g     F .text	00000094 _mprec_log10
0008b5a8 g     F .text	00000088 __any_on
0008cd60 g     F .text	00000070 _isatty_r
00092524 g     O .rodata	00000028 __mprec_tinytens
0008fcb4 g     F .text	0000006c alt_main
00085a2c g     F .text	000000a0 _puts_r
000ce5d4 g     O .bss	00000100 alt_irq
0008cdd0 g     F .text	00000078 _lseek_r
00094144 g       *ABS*	00000000 __flash_rwdata_start
0008e6ac g     F .text	00000088 __eqdf2
00080e78 g     F .text	00000158 Check_for_Master_Boot_Record
000ce864 g       *ABS*	00000000 __alt_heap_start
000859b4 g     F .text	00000044 printf
0008c818 g     F .text	00000068 __sseek
00089734 g     F .text	000000a4 __sinit
0008a440 g     F .text	00000084 _setlocale_r
00089834 g     F .text	0000009c __sfmoreglue
0008fd40 g     F .text	00000020 __malloc_unlock
00105400 g       *ABS*	00000000 __alt_mem_Nios_LCD_Camera_Component_0_Camera
00095c00 g     O .bss	00000004 current_sector_modified
0008099c g     F .text	0000002c KEY3_Pressed
0008af38 g     F .text	000000e0 memmove
00089824 g     F .text	00000010 _cleanup
0008b630 g     F .text	000000bc _Balloc
00080bbc g     F .text	00000050 Save_Modified_Sector
00083ec4 g     F .text	00000090 sd_card_set_attributes
000835c8 g     F .text	0000004c sd_card_is_Present
0008e7bc g     F .text	00000088 __gtdf2
00000000  w      *UND*	00000000 __errno
00080000 g     F .entry	0000000c __reset
00095bfc g     O .bss	00000004 fat_partition_size_in_512_byte_sectors
00080020 g       *ABS*	00000000 __flash_exceptions_start
0008ccec g     F .text	00000074 _fstat_r
00095c28 g     O .bss	00000004 errno
00095c34 g     O .bss	00000004 alt_argv
0009c0f8 g       *ABS*	00000000 _gp
00095bf4 g     O .bss	00000004 command_argument_register
00092eec g     O .rwdata	00000180 alt_fd_list
00082e5c g     F .text	0000011c find_first_empty_record_in_root_directory
00091930 g     F .text	00000094 alt_find_dev
0008ae98 g     F .text	000000a0 memcpy
00089818 g     F .text	0000000c _cleanup_r
0008e954 g     F .text	000000f8 __floatsidf
00091410 g     F .text	00000078 alt_io_redirect
0008e8cc g     F .text	00000088 __ltdf2
0009202c g       *ABS*	00000000 __DTOR_END__
00085acc g     F .text	00000014 puts
00082a8c g     F .text	00000194 find_first_empty_cluster
0008b40c g     F .text	000000b0 __ratio
000908a0 g     F .text	00000224 altera_avalon_jtag_uart_read
00000000  w      *UND*	00000000 malloc
000859f8 g     F .text	00000034 _printf_r
0008596c g     F .text	00000008 __udivsi3
0008f950 g     F .text	000000c4 isatty
00092434 g     O .rodata	000000c8 __mprec_tens
0008a41c g     F .text	00000008 __locale_charset
00095c1c g     O .bss	00000004 __malloc_top_pad
00095c6c g     O .bss	00012c00 B_vals
0009410c g     O .rwdata	00000004 __mb_cur_max
000801f0 g     F .text	00000110 LTC_Switch_Nios_Mode
00083614 g     F .text	0000008c sd_card_is_FAT16
0008a424 g     F .text	0000000c _localeconv_r
0008bd94 g     F .text	0000003c __i2b
00089e00 g     F .text	0000049c __sfvwrite_r
00081d68 g     F .text	000000c0 get_dir_divider_location
0008c7a0 g     F .text	00000070 _sbrk_r
00081a08 g     F .text	000000d0 filename_to_upper_case
00080fd0 g     F .text	000001c8 Read_File_Record_At_Offset
0008ce48 g     F .text	00000078 _read_r
00083fe0 g     F .text	0000037c sd_card_read
00092ab0 g     O .rwdata	0000000c __lc_ctype
0009412c g     O .rwdata	00000004 alt_max_fd
0008f170 g     F .text	00000138 __unpack_d
0008cbc8 g     F .text	00000110 _fclose_r
00082628 g     F .text	00000464 find_file_in_directory
00083f54 g     F .text	0000008c sd_card_get_attributes
00089698 g     F .text	00000034 fflush
00095c20 g     O .bss	00000004 __malloc_max_sbrked_mem
0008f790 g     F .text	000001c0 alt_irq_register
0008e01c g     F .text	00000074 __adddf3
00084c6c g     F .text	000001d8 bmp_function
00102000 g       *ABS*	00000000 __alt_mem_Nios_LCD_Camera_Component_0_Console
0008b2ec g     F .text	00000120 __b2d
0008d52c g     F .text	00000660 __umoddi3
0008fb60 g     F .text	000000f4 lseek
00094108 g     O .rwdata	00000004 _global_impure_ptr
00082114 g     F .text	00000514 get_home_directory_cluster_for_file
0008c13c g     F .text	000005f4 _realloc_r
000ce864 g       *ABS*	00000000 __bss_end
00091240 g     F .text	000000f8 alt_iic_isr_register
00091804 g     F .text	0000010c alt_tick
0008cec0 g     F .text	0000066c __udivdi3
00084b20 g     F .text	0000014c read_SD_int
000924fc g     O .rodata	00000028 __mprec_bigtens
0008c01c g     F .text	00000120 __s2b
0008eb24 g     F .text	00000194 __floatunsidf
0008b20c g     F .text	00000060 __mcmp
00095c04 g     O .bss	00000004 current_sector_index
00089800 g     F .text	00000018 __fp_lock_all
000911f8 g     F .text	00000048 alt_ic_irq_enabled
0009176c g     F .text	00000098 alt_alarm_stop
00080da0 g     F .text	000000d8 mark_cluster
00095c2c g     O .bss	00000004 alt_irq_active
000800ec g     F .exceptions	000000c8 alt_irq_handler
00092ec4 g     O .rwdata	00000028 alt_dev_null
00080970 g     F .text	0000002c KEY2_Pressed
00082f78 g     F .text	000001b8 convert_filename_to_name_extension
00090e58 g     F .text	0000001c alt_dcache_flush_all
0008b0d8 g     F .text	00000070 __hi0bits
00095be0 g     O .bss	00000004 is_sd_card_formated_as_FAT16
0008ea4c g     F .text	000000d8 __fixdfsi
00082c20 g     F .text	0000023c find_first_empty_record_in_a_subdirectory
00094144 g       *ABS*	00000000 __ram_rwdata_end
00094124 g     O .rwdata	00000008 alt_dev_list
00090018 g     F .text	00000124 write
000926b0 g       *ABS*	00000000 __ram_rodata_end
0008f658 g     F .text	000000d8 fstat
0008befc g     F .text	00000120 __pow5mult
00095c10 g     O .bss	00000004 __nlocale_changed
00085974 g     F .text	00000008 __umodsi3
000ce864 g       *ABS*	00000000 end
000903a0 g     F .text	000000c0 altera_avalon_jtag_uart_init
00092028 g       *ABS*	00000000 __CTOR_LIST__
00100000 g       *ABS*	00000000 __alt_stack_pointer
0008eddc g     F .text	00000080 __clzsi2
00090ac4 g     F .text	00000240 altera_avalon_jtag_uart_write
00089724 g     F .text	00000004 __sfp_lock_acquire
0008adb4 g     F .text	000000e4 memchr
00085c80 g     F .text	00001ec4 ___vfprintf_internal_r
00085b54 g     F .text	00000060 _sprintf_r
00089aec g     F .text	00000314 _free_r
00091dac g     F .text	000001b0 __call_exitprocs
000a886c g     O .bss	00012c00 G_vals
00095c14 g     O .bss	00000004 __mlocale_changed
00094118 g     O .rwdata	00000004 __malloc_sbrk_base
000801b4 g     F .text	0000003c _start
00095c3c g     O .bss	00000004 _alt_tick_rate
0008b9f4 g     F .text	0000014c __lshift
00095c40 g     O .bss	00000004 _alt_nticks
0008fd60 g     F .text	00000124 read
000901d0 g     F .text	00000050 alt_sys_init
00091c74 g     F .text	00000134 __register_exitproc
0008bb40 g     F .text	00000254 __multiply
00090738 g     F .text	00000074 altera_avalon_jtag_uart_close
0008597c g     F .text	00000038 __mulsi3
000926b0 g       *ABS*	00000000 __ram_rwdata_start
0009202c g       *ABS*	00000000 __ram_rodata_start
00095c44 g     O .bss	00000028 __malloc_current_mallinfo
0008b6ec g     F .text	0000017c __d2b
00080950 g     F .text	00000020 KEY1_Pressed
00095bdc g     O .bss	00000004 initialized
00090258 g     F .text	00000058 altera_avalon_jtag_uart_read_fd
00091ae4 g     F .text	000000d0 alt_get_fd
000ce06c g     O .bss	00000014 search_data
0008f370 g     F .text	0000015c alt_busy_sleep
0008f2a8 g     F .text	000000c8 __fpcmp_parts_d
0008cb58 g     F .text	00000070 _close_r
00091c00 g     F .text	00000074 memcmp
00090308 g     F .text	00000048 altera_avalon_jtag_uart_close_fd
000ce864 g       *ABS*	00000000 __alt_stack_base
00090350 g     F .text	00000050 altera_avalon_jtag_uart_ioctl_fd
000836a0 g     F .text	000000d4 sd_card_find_first
00087b68 g     F .text	0000013c __swsetup_r
0008e454 g     F .text	00000258 __divdf3
000803d8 g     F .text	000000c8 LTC_Read_Image_Line
000898d0 g     F .text	000000f0 __sfp
000ce080 g     O .bss	00000054 boot_sector_data
0008b550 g     F .text	00000058 __copybits
00092abc g     O .rwdata	00000408 __malloc_av_
00089730 g     F .text	00000004 __sinit_lock_release
0008e090 g     F .text	000003c4 __muldf3
0008c8fc g     F .text	00000060 __sread
000919c4 g     F .text	00000120 alt_find_file
00090e74 g     F .text	000000b4 alt_dev_llist_insert
0008fd20 g     F .text	00000020 __malloc_lock
0008ff5c g     F .text	000000bc sbrk
0008949c g     F .text	000001fc _fflush_r
00092108 g     O .rodata	00000036 bmp_header
0008ca90 g     F .text	000000c8 _calloc_r
00095bd8 g       *ABS*	00000000 __bss_start
0008b018 g     F .text	00000098 memset
00084e44 g     F .text	000009ec main
00095c38 g     O .bss	00000004 alt_envp
00095c24 g     O .bss	00000004 __malloc_max_total_mem
000902b0 g     F .text	00000058 altera_avalon_jtag_uart_write_fd
00080b00 g     F .text	000000bc Write_Sector_Data
0008c810 g     F .text	00000008 __sclose
00100000 g       *ABS*	00000000 __alt_mem_Nios_LCD_Camera_Component_0_Imageline
00100000 g       *ABS*	00000000 __alt_heap_limit
0008ccd8 g     F .text	00000014 fclose
000ce6d4 g     O .bss	00000190 _atexit0
00087ee8 g     F .text	000015b4 _dtoa_r
0008a674 g     F .text	00000740 _malloc_r
00094130 g     O .rwdata	00000004 alt_errno
0008a364 g     F .text	000000b8 _fwalk
000858ac g     F .text	00000060 __divsi3
00092558 g     O .rodata	00000014 __thenan_df
000899c0 g     F .text	0000012c _malloc_trim_r
0009202c g       *ABS*	00000000 __CTOR_END__
00095be8 g     O .bss	00000004 status_register
0008c95c g     F .text	000000bc strcmp
00095bf0 g     O .bss	00000004 command_register
0009202c g       *ABS*	00000000 __flash_rodata_start
0009202c g       *ABS*	00000000 __DTOR_LIST__
0008e734 g     F .text	00000088 __nedf2
00080000 g       *ABS*	00000000 __alt_mem_sram_0
0009019c g     F .text	00000034 alt_irq_init
0008fee4 g     F .text	00000078 alt_release_fd
00080cfc g     F .text	000000a4 get_cluster_flag
00080aa8 g     F .text	00000058 init_button_irq
00085ae0 g     F .text	00000074 sprintf
0009256c g     O .rodata	00000100 __clz_tab
00081198 g     F .text	000001f8 Write_File_Record_At_Offset
00095c18 g     O .bss	00000004 _PathLocale
0008435c g     F .text	000005f0 sd_card_write
00091bb4 g     F .text	00000014 atexit
000bb46c g     O .bss	00012c00 R_vals
0008ca18 g     F .text	00000078 _write_r
0008a4c4 g     F .text	0000001c setlocale
00081390 g     F .text	00000554 Check_for_DOS_FAT
00083130 g     F .text	000002ec create_file
00094104 g     O .rwdata	00000004 _impure_ptr
00095bec g     O .bss	00000004 CSD_register_w0
00095c30 g     O .bss	00000004 alt_argc
00090fec g     F .text	00000064 _do_dtors
000804a0 g     F .text	000000e4 LTC_Write_Image_Line
00080020 g       .exceptions	00000000 alt_irq_entry
0008b26c g     F .text	00000080 __ulp
0008c730 g     F .text	00000040 __isinfd
000897e8 g     F .text	00000018 __fp_unlock_all
0009411c g     O .rwdata	00000008 alt_fs_list
00081ad8 g     F .text	00000290 check_file_name_for_FAT16_compliance
00080300 g     F .text	000000d8 LTC_Switch_HW_Mode
00080020 g       *ABS*	00000000 __ram_exceptions_start
0008a430 g     F .text	00000010 localeconv
0009106c g     F .text	00000050 alt_ic_isr_register
00095bf8 g     O .bss	00000004 fat_partition_offset_in_512_byte_sectors
00094144 g       *ABS*	00000000 _edata
000808b0 g     F .text	000000a0 KEY0_Pressed
000ce864 g       *ABS*	00000000 _end
000ce0d4 g     O .bss	00000500 active_files
000801b4 g       *ABS*	00000000 __ram_exceptions_end
0008341c g     F .text	00000154 copy_file_record_name_to_string
000907ac g     F .text	000000f4 altera_avalon_jtag_uart_ioctl
000818e4 g     F .text	00000124 Look_for_FAT16
00091158 g     F .text	000000a0 alt_ic_irq_disable
0008c880 g     F .text	0000007c __swrite
00094114 g     O .rwdata	00000004 __malloc_trim_threshold
00091910 g     F .text	00000020 altera_nios2_qsys_irq_init
00091bc8 g     F .text	00000038 exit
0008a29c g     F .text	000000c8 _fwalk_reent
0008b868 g     F .text	0000018c __mdiff
0008590c g     F .text	00000060 __modsi3
00080c0c g     F .text	000000f0 Read_Sector_Data
00105440 g       *ABS*	00000000 __alt_mem_Nios_LCD_Camera_Component_0_Touchpanel
00100000 g       *ABS*	00000000 __alt_data_end
00080020 g     F .exceptions	00000000 alt_exception
00083570 g     F .text	00000058 sd_card_open_dev
00089728 g     F .text	00000004 __sfp_lock_release
00091f9c g     F .text	00000020 _exit
0008c770 g     F .text	00000030 __isnand
00090d04 g     F .text	00000154 alt_alarm_start
00080584 g     F .text	0000032c LTC_TouchPanel_int
0008ecb8 g     F .text	00000124 __muldi3
0008a4e0 g     F .text	00000194 __smakebuf_r
00085bb4 g     F .text	00000074 strlen
00091580 g     F .text	0000018c open
0008e844 g     F .text	00000088 __gedf2
00091050 g     F .text	0000001c alt_icache_flush_all
00094134 g     O .rwdata	00000004 alt_priority_mask
00083774 g     F .text	000003a8 sd_card_find_next
000910bc g     F .text	0000009c alt_ic_irq_enable
00087b44 g     F .text	00000024 __vfprintf_internal
0008df9c g     F .text	00000080 __subdf3
0008494c g     F .text	000001d4 sd_card_fclose
0008b148 g     F .text	000000c4 __lo0bits
0009413c g     O .rwdata	00000008 alt_alarm_list
00090f88 g     F .text	00000064 _do_ctors
000809c8 g     F .text	000000e0 handle_button_interrupts
00095c08 g     O .bss	00000004 height
0008f4cc g     F .text	00000100 close
00095c0c g     O .bss	00000004 width
0008fa74 g     F .text	00000080 alt_load
0008ee5c g     F .text	00000314 __pack_d
00081e28 g     F .text	000002ec match_file_record_to_name_ext
00000000  w      *UND*	00000000 free
0008972c g     F .text	00000004 __sinit_lock_acquire
0008bdd0 g     F .text	0000012c __multadd
0008b0b0 g     F .text	00000028 _Bfree
00083b1c g     F .text	000003a8 sd_card_fopen



Disassembly of section .entry:

00080000 <__reset>:
 * Jump to the _start entry point in the .text section if reset code
 * is allowed or if optimizing for RTL simulation.
 */
#if defined(ALT_ALLOW_CODE_AT_RESET) || defined(ALT_SIM_OPTIMIZE)
    /* Jump to the _start entry point in the .text section. */
    movhi r1, %hi(_start)
   80000:	00400234 	movhi	at,8
    ori r1, r1, %lo(_start)
   80004:	08406d14 	ori	at,at,436
    jmp r1
   80008:	0800683a 	jmp	at
	...

Disassembly of section .exceptions:

00080020 <alt_exception>:
         * Process an exception.  For all exceptions we must preserve all
         * caller saved registers on the stack (See the Nios2 ABI
         * documentation for details).
         */

        addi  sp, sp, -76
   80020:	deffed04 	addi	sp,sp,-76

#endif

#endif

        stw   ra,  0(sp)
   80024:	dfc00015 	stw	ra,0(sp)
        /*
         * Leave a gap in the stack frame at 4(sp) for the muldiv handler to
         * store zero into.
         */

        stw   r1,   8(sp)
   80028:	d8400215 	stw	at,8(sp)
        stw   r2,  12(sp)
   8002c:	d8800315 	stw	r2,12(sp)
        stw   r3,  16(sp)
   80030:	d8c00415 	stw	r3,16(sp)
        stw   r4,  20(sp)
   80034:	d9000515 	stw	r4,20(sp)
        stw   r5,  24(sp)
   80038:	d9400615 	stw	r5,24(sp)
        stw   r6,  28(sp)
   8003c:	d9800715 	stw	r6,28(sp)
        stw   r7,  32(sp)
   80040:	d9c00815 	stw	r7,32(sp)

        rdctl r5, estatus
   80044:	000b307a 	rdctl	r5,estatus

        stw   r8,  36(sp)
   80048:	da000915 	stw	r8,36(sp)
        stw   r9,  40(sp)
   8004c:	da400a15 	stw	r9,40(sp)
        stw   r10, 44(sp)
   80050:	da800b15 	stw	r10,44(sp)
        stw   r11, 48(sp)
   80054:	dac00c15 	stw	r11,48(sp)
        stw   r12, 52(sp)
   80058:	db000d15 	stw	r12,52(sp)
        stw   r13, 56(sp)
   8005c:	db400e15 	stw	r13,56(sp)
        stw   r14, 60(sp)
   80060:	db800f15 	stw	r14,60(sp)
        stw   r15, 64(sp)
   80064:	dbc01015 	stw	r15,64(sp)
        /*
         * ea-4 contains the address of the instruction being executed
         * when the exception occured. For interrupt exceptions, we will
         * will be re-issue the isntruction. Store it in 72(sp)
         */
        stw   r5,  68(sp)  /* estatus */
   80068:	d9401115 	stw	r5,68(sp)
        addi  r15, ea, -4  /* instruction that caused exception */
   8006c:	ebffff04 	addi	r15,ea,-4
        stw   r15,  72(sp)
   80070:	dbc01215 	stw	r15,72(sp)
#else
        /*
         * Test to see if the exception was a software exception or caused 
         * by an external interrupt, and vector accordingly.
         */
        rdctl r4, ipending
   80074:	0009313a 	rdctl	r4,ipending
        andi  r2, r5, 1
   80078:	2880004c 	andi	r2,r5,1
        beq   r2, zero, .Lnot_irq
   8007c:	10000326 	beq	r2,zero,8008c <alt_exception+0x6c>
        beq   r4, zero, .Lnot_irq
   80080:	20000226 	beq	r4,zero,8008c <alt_exception+0x6c>
        /*
         * Now that all necessary registers have been preserved, call 
         * alt_irq_handler() to process the interrupts.
         */

        call alt_irq_handler
   80084:	00800ec0 	call	800ec <alt_irq_handler>

        .section .exceptions.irqreturn, "xa"

        br    .Lexception_exit
   80088:	00000306 	br	80098 <alt_exception+0x78>
         * upon completion, so we write ea (address of instruction *after*
         * the one where the exception occured) into 72(sp). The actual
         * instruction that caused the exception is written in r2, which these
         * handlers will utilize.
         */
        stw   ea,  72(sp)  /* Don't re-issue */
   8008c:	df401215 	stw	ea,72(sp)
        ldw   r2, -4(ea)   /* Instruction that caused exception */
   80090:	e8bfff17 	ldw	r2,-4(ea)
#ifdef NIOS2_HAS_DEBUG_STUB
       /*
        *  Either tell the user now (if there is a debugger attached) or go into
        *  the debug monitor which will loop until a debugger is attached.
        */
        break
   80094:	003da03a 	break	0
        /* 
         * Restore the saved registers, so that all general purpose registers 
         * have been restored to their state at the time the interrupt occured.
         */

        ldw   r5,  68(sp)
   80098:	d9401117 	ldw	r5,68(sp)
        ldw   ea,  72(sp)  /* This becomes the PC once eret is executed */
   8009c:	df401217 	ldw	ea,72(sp)
        ldw   ra,   0(sp)
   800a0:	dfc00017 	ldw	ra,0(sp)

        wrctl estatus, r5
   800a4:	2801707a 	wrctl	estatus,r5

        ldw   r1,   8(sp)
   800a8:	d8400217 	ldw	at,8(sp)
        ldw   r2,  12(sp)
   800ac:	d8800317 	ldw	r2,12(sp)
        ldw   r3,  16(sp)
   800b0:	d8c00417 	ldw	r3,16(sp)
        ldw   r4,  20(sp)
   800b4:	d9000517 	ldw	r4,20(sp)
        ldw   r5,  24(sp)
   800b8:	d9400617 	ldw	r5,24(sp)
        ldw   r6,  28(sp)
   800bc:	d9800717 	ldw	r6,28(sp)
        ldw   r7,  32(sp)
   800c0:	d9c00817 	ldw	r7,32(sp)
#ifdef ALT_STACK_CHECK
        ldw   et, %gprel(alt_exception_old_stack_limit)(gp)
#endif
#endif

        ldw   r8,  36(sp)
   800c4:	da000917 	ldw	r8,36(sp)
        ldw   r9,  40(sp)
   800c8:	da400a17 	ldw	r9,40(sp)
        ldw   r10, 44(sp)
   800cc:	da800b17 	ldw	r10,44(sp)
        ldw   r11, 48(sp)
   800d0:	dac00c17 	ldw	r11,48(sp)
        ldw   r12, 52(sp)
   800d4:	db000d17 	ldw	r12,52(sp)
        ldw   r13, 56(sp)
   800d8:	db400e17 	ldw	r13,56(sp)
        ldw   r14, 60(sp)
   800dc:	db800f17 	ldw	r14,60(sp)
        ldw   r15, 64(sp)
   800e0:	dbc01017 	ldw	r15,64(sp)
#endif

        ldw   sp,  76(sp)

#else
        addi  sp, sp, 76
   800e4:	dec01304 	addi	sp,sp,76

        /*
         * Return to the interrupted instruction.
         */

        eret
   800e8:	ef80083a 	eret

000800ec <alt_irq_handler>:
 * instruction is present if the macro ALT_CI_INTERRUPT_VECTOR defined.
 */

void alt_irq_handler (void) __attribute__ ((section (".exceptions")));
void alt_irq_handler (void)
{
   800ec:	defff904 	addi	sp,sp,-28
   800f0:	dfc00615 	stw	ra,24(sp)
   800f4:	df000515 	stw	fp,20(sp)
   800f8:	df000504 	addi	fp,sp,20
#ifndef NIOS2_EIC_PRESENT
static ALT_INLINE alt_u32 ALT_ALWAYS_INLINE alt_irq_pending (void)
{
  alt_u32 active;

  NIOS2_READ_IPENDING (active);
   800fc:	0005313a 	rdctl	r2,ipending
   80100:	e0bffc15 	stw	r2,-16(fp)

  return active;
   80104:	e0bffc17 	ldw	r2,-16(fp)
   * Consider the case where the high priority interupt is asserted during
   * the interrupt entry sequence for a lower priority interrupt to see why
   * this is the case.
   */

  active = alt_irq_pending ();
   80108:	e0bfff15 	stw	r2,-4(fp)

  do
  {
    i = 0;
   8010c:	e03ffd15 	stw	zero,-12(fp)
    mask = 1;
   80110:	00800044 	movi	r2,1
   80114:	e0bffe15 	stw	r2,-8(fp)
     * called to clear the interrupt condition.
     */

    do
    {
      if (active & mask)
   80118:	e0ffff17 	ldw	r3,-4(fp)
   8011c:	e0bffe17 	ldw	r2,-8(fp)
   80120:	1884703a 	and	r2,r3,r2
   80124:	1005003a 	cmpeq	r2,r2,zero
   80128:	1000161e 	bne	r2,zero,80184 <alt_irq_handler+0x98>
      { 
#ifdef ALT_ENHANCED_INTERRUPT_API_PRESENT
        alt_irq[i].handler(alt_irq[i].context); 
   8012c:	e0bffd17 	ldw	r2,-12(fp)
   80130:	00c00374 	movhi	r3,13
   80134:	18f97504 	addi	r3,r3,-6700
   80138:	100490fa 	slli	r2,r2,3
   8013c:	10c5883a 	add	r2,r2,r3
   80140:	11400017 	ldw	r5,0(r2)
   80144:	e0bffd17 	ldw	r2,-12(fp)
   80148:	00c00374 	movhi	r3,13
   8014c:	18f97504 	addi	r3,r3,-6700
   80150:	100490fa 	slli	r2,r2,3
   80154:	10c5883a 	add	r2,r2,r3
   80158:	10800104 	addi	r2,r2,4
   8015c:	11000017 	ldw	r4,0(r2)
   80160:	283ee83a 	callr	r5
#ifndef NIOS2_EIC_PRESENT
static ALT_INLINE alt_u32 ALT_ALWAYS_INLINE alt_irq_pending (void)
{
  alt_u32 active;

  NIOS2_READ_IPENDING (active);
   80164:	0005313a 	rdctl	r2,ipending
   80168:	e0bffb15 	stw	r2,-20(fp)

  return active;
   8016c:	e0bffb17 	ldw	r2,-20(fp)
      mask <<= 1;
      i++;

    } while (1);

    active = alt_irq_pending ();
   80170:	e0bfff15 	stw	r2,-4(fp)
    
  } while (active);
   80174:	e0bfff17 	ldw	r2,-4(fp)
   80178:	1004c03a 	cmpne	r2,r2,zero
   8017c:	103fe31e 	bne	r2,zero,8010c <alt_irq_handler+0x20>
   80180:	00000706 	br	801a0 <alt_irq_handler+0xb4>
#else
        alt_irq[i].handler(alt_irq[i].context, i); 
#endif
        break;
      }
      mask <<= 1;
   80184:	e0bffe17 	ldw	r2,-8(fp)
   80188:	1085883a 	add	r2,r2,r2
   8018c:	e0bffe15 	stw	r2,-8(fp)
      i++;
   80190:	e0bffd17 	ldw	r2,-12(fp)
   80194:	10800044 	addi	r2,r2,1
   80198:	e0bffd15 	stw	r2,-12(fp)

    } while (1);
   8019c:	003fde06 	br	80118 <alt_irq_handler+0x2c>
  /*
   * Notify the operating system that interrupt processing is complete.
   */ 

  ALT_OS_INT_EXIT();
}
   801a0:	e037883a 	mov	sp,fp
   801a4:	dfc00117 	ldw	ra,4(sp)
   801a8:	df000017 	ldw	fp,0(sp)
   801ac:	dec00204 	addi	sp,sp,8
   801b0:	f800283a 	ret

Disassembly of section .text:

000801b4 <_start>:
#if (NIOS2_NUM_OF_SHADOW_REG_SETS == 0)    
    /*
     * Now that the caches are initialized, set up the stack pointer.
     * The value provided by the linker is assumed to be correctly aligned.
     */
    movhi sp, %hi(__alt_stack_pointer)
   801b4:	06c00434 	movhi	sp,16
    ori sp, sp, %lo(__alt_stack_pointer)
   801b8:	dec00014 	ori	sp,sp,0

    /* Set up the global pointer. */
    movhi gp, %hi(_gp)
   801bc:	06800274 	movhi	gp,9
    ori gp, gp, %lo(_gp)
   801c0:	d6b03e14 	ori	gp,gp,49400
 */
#ifndef ALT_SIM_OPTIMIZE
    /* Log that the BSS is about to be cleared. */
    ALT_LOG_PUTS(alt_log_msg_bss)

    movhi r2, %hi(__bss_start)
   801c4:	00800274 	movhi	r2,9
    ori r2, r2, %lo(__bss_start)
   801c8:	1096f614 	ori	r2,r2,23512

    movhi r3, %hi(__bss_end)
   801cc:	00c00334 	movhi	r3,12
    ori r3, r3, %lo(__bss_end)
   801d0:	18fa1914 	ori	r3,r3,59492

    beq r2, r3, 1f
   801d4:	10c00326 	beq	r2,r3,801e4 <_start+0x30>

0:
    stw zero, (r2)
   801d8:	10000015 	stw	zero,0(r2)
    addi r2, r2, 4
   801dc:	10800104 	addi	r2,r2,4
    bltu r2, r3, 0b
   801e0:	10fffd36 	bltu	r2,r3,801d8 <_start+0x24>
     * section aren't defined until alt_load() has been called).
     */
    mov   et, zero
#endif

    call alt_load
   801e4:	008fa740 	call	8fa74 <alt_load>

    /* Log that alt_main is about to be called. */
    ALT_LOG_PUTS(alt_log_msg_alt_main)

    /* Call the C entry point. It should never return. */
    call alt_main
   801e8:	008fcb40 	call	8fcb4 <alt_main>

000801ec <alt_after_alt_main>:

    /* Wait in infinite loop in case alt_main does return. */
alt_after_alt_main:
    br alt_after_alt_main
   801ec:	003fff06 	br	801ec <alt_after_alt_main>

000801f0 <LTC_Switch_Nios_Mode>:
// McMaster University
// Ontario, Canada

#include "define.h"

void LTC_Switch_Nios_Mode(int write_flag) {
   801f0:	defffc04 	addi	sp,sp,-16
   801f4:	dfc00315 	stw	ra,12(sp)
   801f8:	df000215 	stw	fp,8(sp)
   801fc:	df000204 	addi	fp,sp,8
   80200:	e13fff15 	stw	r4,-4(fp)
    alt_u32 status;

    printf("Changing SDRAM to NIOS mode\n");    
   80204:	01000274 	movhi	r4,9
   80208:	21080b04 	addi	r4,r4,8236
   8020c:	0085acc0 	call	85acc <puts>
    IOWR(NIOS_LCD_CAMERA_COMPONENT_0_CAMERA_BASE, 1, 0x8); // camera stop
   80210:	00c00434 	movhi	r3,16
   80214:	18d50104 	addi	r3,r3,21508
   80218:	00800204 	movi	r2,8
   8021c:	18800035 	stwio	r2,0(r3)
    IOWR(NIOS_LCD_CAMERA_COMPONENT_0_IMAGELINE_BASE, 1, 0x1F); // resync read and write pipe
   80220:	00c00434 	movhi	r3,16
   80224:	18c00104 	addi	r3,r3,4
   80228:	008007c4 	movi	r2,31
   8022c:	18800035 	stwio	r2,0(r3)
    
    status = IORD(NIOS_LCD_CAMERA_COMPONENT_0_IMAGELINE_BASE, 1);
   80230:	00800434 	movhi	r2,16
   80234:	10800104 	addi	r2,r2,4
   80238:	10800037 	ldwio	r2,0(r2)
   8023c:	e0bffe15 	stw	r2,-8(fp)
    
    while (((status >> 2) & 0x7) != 5) {
   80240:	00000606 	br	8025c <LTC_Switch_Nios_Mode+0x6c>
        status = IORD(NIOS_LCD_CAMERA_COMPONENT_0_IMAGELINE_BASE, 1);        
   80244:	00800434 	movhi	r2,16
   80248:	10800104 	addi	r2,r2,4
   8024c:	10800037 	ldwio	r2,0(r2)
   80250:	e0bffe15 	stw	r2,-8(fp)
        alt_busy_sleep(10);
   80254:	01000284 	movi	r4,10
   80258:	008f3700 	call	8f370 <alt_busy_sleep>
    IOWR(NIOS_LCD_CAMERA_COMPONENT_0_CAMERA_BASE, 1, 0x8); // camera stop
    IOWR(NIOS_LCD_CAMERA_COMPONENT_0_IMAGELINE_BASE, 1, 0x1F); // resync read and write pipe
    
    status = IORD(NIOS_LCD_CAMERA_COMPONENT_0_IMAGELINE_BASE, 1);
    
    while (((status >> 2) & 0x7) != 5) {
   8025c:	e0bffe17 	ldw	r2,-8(fp)
   80260:	1004d0ba 	srli	r2,r2,2
   80264:	108001cc 	andi	r2,r2,7
   80268:	10800158 	cmpnei	r2,r2,5
   8026c:	103ff51e 	bne	r2,zero,80244 <LTC_Switch_Nios_Mode+0x54>
        status = IORD(NIOS_LCD_CAMERA_COMPONENT_0_IMAGELINE_BASE, 1);        
        alt_busy_sleep(10);
    }
    if (write_flag == 0) {
   80270:	e0bfff17 	ldw	r2,-4(fp)
   80274:	1004c03a 	cmpne	r2,r2,zero
   80278:	1000051e 	bne	r2,zero,80290 <LTC_Switch_Nios_Mode+0xa0>
        IOWR(NIOS_LCD_CAMERA_COMPONENT_0_IMAGELINE_BASE, 1, 0x01); // SDRAM read load to nios
   8027c:	00c00434 	movhi	r3,16
   80280:	18c00104 	addi	r3,r3,4
   80284:	00800044 	movi	r2,1
   80288:	18800035 	stwio	r2,0(r3)
   8028c:	00000406 	br	802a0 <LTC_Switch_Nios_Mode+0xb0>
    } else {
        IOWR(NIOS_LCD_CAMERA_COMPONENT_0_IMAGELINE_BASE, 1, 0x02); // SDRAM write load to nios
   80290:	00c00434 	movhi	r3,16
   80294:	18c00104 	addi	r3,r3,4
   80298:	00800084 	movi	r2,2
   8029c:	18800035 	stwio	r2,0(r3)
    }    
    status = IORD(NIOS_LCD_CAMERA_COMPONENT_0_IMAGELINE_BASE, 1);
   802a0:	00800434 	movhi	r2,16
   802a4:	10800104 	addi	r2,r2,4
   802a8:	10800037 	ldwio	r2,0(r2)
   802ac:	e0bffe15 	stw	r2,-8(fp)
    while (((status >> 2) & 0x7) != 4) {
   802b0:	00000606 	br	802cc <LTC_Switch_Nios_Mode+0xdc>
        status = IORD(NIOS_LCD_CAMERA_COMPONENT_0_IMAGELINE_BASE, 1);        
   802b4:	00800434 	movhi	r2,16
   802b8:	10800104 	addi	r2,r2,4
   802bc:	10800037 	ldwio	r2,0(r2)
   802c0:	e0bffe15 	stw	r2,-8(fp)
        alt_busy_sleep(10);
   802c4:	01000284 	movi	r4,10
   802c8:	008f3700 	call	8f370 <alt_busy_sleep>
        IOWR(NIOS_LCD_CAMERA_COMPONENT_0_IMAGELINE_BASE, 1, 0x01); // SDRAM read load to nios
    } else {
        IOWR(NIOS_LCD_CAMERA_COMPONENT_0_IMAGELINE_BASE, 1, 0x02); // SDRAM write load to nios
    }    
    status = IORD(NIOS_LCD_CAMERA_COMPONENT_0_IMAGELINE_BASE, 1);
    while (((status >> 2) & 0x7) != 4) {
   802cc:	e0bffe17 	ldw	r2,-8(fp)
   802d0:	1004d0ba 	srli	r2,r2,2
   802d4:	108001cc 	andi	r2,r2,7
   802d8:	10800118 	cmpnei	r2,r2,4
   802dc:	103ff51e 	bne	r2,zero,802b4 <LTC_Switch_Nios_Mode+0xc4>
        status = IORD(NIOS_LCD_CAMERA_COMPONENT_0_IMAGELINE_BASE, 1);        
        alt_busy_sleep(10);
    }
    printf("SDRAM changed to NIOS mode\n"); 
   802e0:	01000274 	movhi	r4,9
   802e4:	21081204 	addi	r4,r4,8264
   802e8:	0085acc0 	call	85acc <puts>
}
   802ec:	e037883a 	mov	sp,fp
   802f0:	dfc00117 	ldw	ra,4(sp)
   802f4:	df000017 	ldw	fp,0(sp)
   802f8:	dec00204 	addi	sp,sp,8
   802fc:	f800283a 	ret

00080300 <LTC_Switch_HW_Mode>:

void LTC_Switch_HW_Mode() {
   80300:	defffd04 	addi	sp,sp,-12
   80304:	dfc00215 	stw	ra,8(sp)
   80308:	df000115 	stw	fp,4(sp)
   8030c:	df000104 	addi	fp,sp,4
    alt_u32 status;
        
    printf("Changing SDRAM to HW mode\n");
   80310:	01000274 	movhi	r4,9
   80314:	21081904 	addi	r4,r4,8292
   80318:	0085acc0 	call	85acc <puts>
    IOWR(NIOS_LCD_CAMERA_COMPONENT_0_IMAGELINE_BASE, 1, 0x1C); // resync read and write pipe
   8031c:	00c00434 	movhi	r3,16
   80320:	18c00104 	addi	r3,r3,4
   80324:	00800704 	movi	r2,28
   80328:	18800035 	stwio	r2,0(r3)
    status = IORD(NIOS_LCD_CAMERA_COMPONENT_0_IMAGELINE_BASE, 1);
   8032c:	00800434 	movhi	r2,16
   80330:	10800104 	addi	r2,r2,4
   80334:	10800037 	ldwio	r2,0(r2)
   80338:	e0bfff15 	stw	r2,-4(fp)
    while (((status >> 2) & 0x7) != 5) {
   8033c:	00000606 	br	80358 <LTC_Switch_HW_Mode+0x58>
        status = IORD(NIOS_LCD_CAMERA_COMPONENT_0_IMAGELINE_BASE, 1);        
   80340:	00800434 	movhi	r2,16
   80344:	10800104 	addi	r2,r2,4
   80348:	10800037 	ldwio	r2,0(r2)
   8034c:	e0bfff15 	stw	r2,-4(fp)
        alt_busy_sleep(10);
   80350:	01000284 	movi	r4,10
   80354:	008f3700 	call	8f370 <alt_busy_sleep>
    alt_u32 status;
        
    printf("Changing SDRAM to HW mode\n");
    IOWR(NIOS_LCD_CAMERA_COMPONENT_0_IMAGELINE_BASE, 1, 0x1C); // resync read and write pipe
    status = IORD(NIOS_LCD_CAMERA_COMPONENT_0_IMAGELINE_BASE, 1);
    while (((status >> 2) & 0x7) != 5) {
   80358:	e0bfff17 	ldw	r2,-4(fp)
   8035c:	1004d0ba 	srli	r2,r2,2
   80360:	108001cc 	andi	r2,r2,7
   80364:	10800158 	cmpnei	r2,r2,5
   80368:	103ff51e 	bne	r2,zero,80340 <LTC_Switch_HW_Mode+0x40>
        status = IORD(NIOS_LCD_CAMERA_COMPONENT_0_IMAGELINE_BASE, 1);        
        alt_busy_sleep(10);
    }
    IOWR(NIOS_LCD_CAMERA_COMPONENT_0_IMAGELINE_BASE, 1, 0x0); // LCD reset
   8036c:	00800434 	movhi	r2,16
   80370:	10800104 	addi	r2,r2,4
   80374:	10000035 	stwio	zero,0(r2)
    status = IORD(NIOS_LCD_CAMERA_COMPONENT_0_IMAGELINE_BASE, 1);
   80378:	00800434 	movhi	r2,16
   8037c:	10800104 	addi	r2,r2,4
   80380:	10800037 	ldwio	r2,0(r2)
   80384:	e0bfff15 	stw	r2,-4(fp)
    while (((status >> 2) & 0x7) != 4) {
   80388:	00000606 	br	803a4 <LTC_Switch_HW_Mode+0xa4>
        status = IORD(NIOS_LCD_CAMERA_COMPONENT_0_IMAGELINE_BASE, 1);        
   8038c:	00800434 	movhi	r2,16
   80390:	10800104 	addi	r2,r2,4
   80394:	10800037 	ldwio	r2,0(r2)
   80398:	e0bfff15 	stw	r2,-4(fp)
        alt_busy_sleep(10);
   8039c:	01000284 	movi	r4,10
   803a0:	008f3700 	call	8f370 <alt_busy_sleep>
        status = IORD(NIOS_LCD_CAMERA_COMPONENT_0_IMAGELINE_BASE, 1);        
        alt_busy_sleep(10);
    }
    IOWR(NIOS_LCD_CAMERA_COMPONENT_0_IMAGELINE_BASE, 1, 0x0); // LCD reset
    status = IORD(NIOS_LCD_CAMERA_COMPONENT_0_IMAGELINE_BASE, 1);
    while (((status >> 2) & 0x7) != 4) {
   803a4:	e0bfff17 	ldw	r2,-4(fp)
   803a8:	1004d0ba 	srli	r2,r2,2
   803ac:	108001cc 	andi	r2,r2,7
   803b0:	10800118 	cmpnei	r2,r2,4
   803b4:	103ff51e 	bne	r2,zero,8038c <LTC_Switch_HW_Mode+0x8c>
        status = IORD(NIOS_LCD_CAMERA_COMPONENT_0_IMAGELINE_BASE, 1);        
        alt_busy_sleep(10);
    }
    printf("SDRAM changed to HW mode\n");    
   803b8:	01000274 	movhi	r4,9
   803bc:	21082004 	addi	r4,r4,8320
   803c0:	0085acc0 	call	85acc <puts>
}    
   803c4:	e037883a 	mov	sp,fp
   803c8:	dfc00117 	ldw	ra,4(sp)
   803cc:	df000017 	ldw	fp,0(sp)
   803d0:	dec00204 	addi	sp,sp,8
   803d4:	f800283a 	ret

000803d8 <LTC_Read_Image_Line>:

void LTC_Read_Image_Line(
    alt_u8 *R_vals, alt_u8 *G_vals, alt_u8 *B_vals
) {
   803d8:	defffa04 	addi	sp,sp,-24
   803dc:	df000515 	stw	fp,20(sp)
   803e0:	df000504 	addi	fp,sp,20
   803e4:	e13ffd15 	stw	r4,-12(fp)
   803e8:	e17ffe15 	stw	r5,-8(fp)
   803ec:	e1bfff15 	stw	r6,-4(fp)
    int k; alt_u32 raw_rgb;

    for (k = 0; k < LINE_LEN; k++) {
   803f0:	e03ffc15 	stw	zero,-16(fp)
   803f4:	00002306 	br	80484 <LTC_Read_Image_Line+0xac>
        raw_rgb = IORD(NIOS_LCD_CAMERA_COMPONENT_0_IMAGELINE_BASE, 0);
   803f8:	00800434 	movhi	r2,16
   803fc:	10800037 	ldwio	r2,0(r2)
   80400:	e0bffb15 	stw	r2,-20(fp)
        R_vals[k] = (raw_rgb >> 2) & 0xFF;
   80404:	e0bffc17 	ldw	r2,-16(fp)
   80408:	1007883a 	mov	r3,r2
   8040c:	e0bffd17 	ldw	r2,-12(fp)
   80410:	1887883a 	add	r3,r3,r2
   80414:	e0bffb17 	ldw	r2,-20(fp)
   80418:	1004d0ba 	srli	r2,r2,2
   8041c:	18800005 	stb	r2,0(r3)
        G_vals[k] = ((raw_rgb >> 12) & 0x7) | ((raw_rgb >> 23) & 0xF8); 
   80420:	e0bffc17 	ldw	r2,-16(fp)
   80424:	1007883a 	mov	r3,r2
   80428:	e0bffe17 	ldw	r2,-8(fp)
   8042c:	188b883a 	add	r5,r3,r2
   80430:	e0bffb17 	ldw	r2,-20(fp)
   80434:	1004d33a 	srli	r2,r2,12
   80438:	108001cc 	andi	r2,r2,7
   8043c:	1009883a 	mov	r4,r2
   80440:	e0bffb17 	ldw	r2,-20(fp)
   80444:	1004d5fa 	srli	r2,r2,23
   80448:	1007883a 	mov	r3,r2
   8044c:	00bffe04 	movi	r2,-8
   80450:	1884703a 	and	r2,r3,r2
   80454:	2084b03a 	or	r2,r4,r2
   80458:	28800005 	stb	r2,0(r5)
        B_vals[k] = ((raw_rgb >> 18) & 0xFF);
   8045c:	e0bffc17 	ldw	r2,-16(fp)
   80460:	1007883a 	mov	r3,r2
   80464:	e0bfff17 	ldw	r2,-4(fp)
   80468:	1887883a 	add	r3,r3,r2
   8046c:	e0bffb17 	ldw	r2,-20(fp)
   80470:	1004d4ba 	srli	r2,r2,18
   80474:	18800005 	stb	r2,0(r3)
void LTC_Read_Image_Line(
    alt_u8 *R_vals, alt_u8 *G_vals, alt_u8 *B_vals
) {
    int k; alt_u32 raw_rgb;

    for (k = 0; k < LINE_LEN; k++) {
   80478:	e0bffc17 	ldw	r2,-16(fp)
   8047c:	10800044 	addi	r2,r2,1
   80480:	e0bffc15 	stw	r2,-16(fp)
   80484:	e0bffc17 	ldw	r2,-16(fp)
   80488:	1080a010 	cmplti	r2,r2,640
   8048c:	103fda1e 	bne	r2,zero,803f8 <LTC_Read_Image_Line+0x20>
        raw_rgb = IORD(NIOS_LCD_CAMERA_COMPONENT_0_IMAGELINE_BASE, 0);
        R_vals[k] = (raw_rgb >> 2) & 0xFF;
        G_vals[k] = ((raw_rgb >> 12) & 0x7) | ((raw_rgb >> 23) & 0xF8); 
        B_vals[k] = ((raw_rgb >> 18) & 0xFF);
    }
}
   80490:	e037883a 	mov	sp,fp
   80494:	df000017 	ldw	fp,0(sp)
   80498:	dec00104 	addi	sp,sp,4
   8049c:	f800283a 	ret

000804a0 <LTC_Write_Image_Line>:

void LTC_Write_Image_Line(
    alt_u8 *R_vals, alt_u8 *G_vals, alt_u8 *B_vals
) {
   804a0:	defffa04 	addi	sp,sp,-24
   804a4:	df000515 	stw	fp,20(sp)
   804a8:	df000504 	addi	fp,sp,20
   804ac:	e13ffd15 	stw	r4,-12(fp)
   804b0:	e17ffe15 	stw	r5,-8(fp)
   804b4:	e1bfff15 	stw	r6,-4(fp)
    int k; alt_u32 raw_rgb;

    for (k = 0; k < LINE_LEN; k++) {
   804b8:	e03ffc15 	stw	zero,-16(fp)
   804bc:	00002a06 	br	80568 <LTC_Write_Image_Line+0xc8>
        raw_rgb = 
   804c0:	e0bffc17 	ldw	r2,-16(fp)
   804c4:	1007883a 	mov	r3,r2
   804c8:	e0bffd17 	ldw	r2,-12(fp)
   804cc:	1885883a 	add	r2,r3,r2
   804d0:	10800003 	ldbu	r2,0(r2)
   804d4:	10803fcc 	andi	r2,r2,255
   804d8:	1085883a 	add	r2,r2,r2
   804dc:	1085883a 	add	r2,r2,r2
   804e0:	1009883a 	mov	r4,r2
   804e4:	e0bffc17 	ldw	r2,-16(fp)
   804e8:	1007883a 	mov	r3,r2
   804ec:	e0bffe17 	ldw	r2,-8(fp)
   804f0:	1885883a 	add	r2,r3,r2
   804f4:	10800003 	ldbu	r2,0(r2)
   804f8:	10803fcc 	andi	r2,r2,255
   804fc:	108001cc 	andi	r2,r2,7
   80500:	1004933a 	slli	r2,r2,12
   80504:	2088b03a 	or	r4,r4,r2
   80508:	e0bffc17 	ldw	r2,-16(fp)
   8050c:	1007883a 	mov	r3,r2
   80510:	e0bfff17 	ldw	r2,-4(fp)
   80514:	1885883a 	add	r2,r3,r2
   80518:	10800003 	ldbu	r2,0(r2)
   8051c:	10803fcc 	andi	r2,r2,255
   80520:	100494ba 	slli	r2,r2,18
   80524:	2088b03a 	or	r4,r4,r2
   80528:	e0bffc17 	ldw	r2,-16(fp)
   8052c:	1007883a 	mov	r3,r2
   80530:	e0bffe17 	ldw	r2,-8(fp)
   80534:	1885883a 	add	r2,r3,r2
   80538:	10800003 	ldbu	r2,0(r2)
   8053c:	10803fcc 	andi	r2,r2,255
   80540:	10803e0c 	andi	r2,r2,248
   80544:	100495fa 	slli	r2,r2,23
   80548:	2084b03a 	or	r2,r4,r2
   8054c:	e0bffb15 	stw	r2,-20(fp)
            (R_vals[k] << 2 ) | ((G_vals[k] & 0x7) << 12) | 
            (B_vals[k] << 18) | ((G_vals[k] & 0xF8) << 23);        
        IOWR(NIOS_LCD_CAMERA_COMPONENT_0_IMAGELINE_BASE, 0, raw_rgb);
   80550:	e0fffb17 	ldw	r3,-20(fp)
   80554:	00800434 	movhi	r2,16
   80558:	10c00035 	stwio	r3,0(r2)
void LTC_Write_Image_Line(
    alt_u8 *R_vals, alt_u8 *G_vals, alt_u8 *B_vals
) {
    int k; alt_u32 raw_rgb;

    for (k = 0; k < LINE_LEN; k++) {
   8055c:	e0bffc17 	ldw	r2,-16(fp)
   80560:	10800044 	addi	r2,r2,1
   80564:	e0bffc15 	stw	r2,-16(fp)
   80568:	e0bffc17 	ldw	r2,-16(fp)
   8056c:	1080a010 	cmplti	r2,r2,640
   80570:	103fd31e 	bne	r2,zero,804c0 <LTC_Write_Image_Line+0x20>
        raw_rgb = 
            (R_vals[k] << 2 ) | ((G_vals[k] & 0x7) << 12) | 
            (B_vals[k] << 18) | ((G_vals[k] & 0xF8) << 23);        
        IOWR(NIOS_LCD_CAMERA_COMPONENT_0_IMAGELINE_BASE, 0, raw_rgb);
    }
}
   80574:	e037883a 	mov	sp,fp
   80578:	df000017 	ldw	fp,0(sp)
   8057c:	dec00104 	addi	sp,sp,4
   80580:	f800283a 	ret

00080584 <LTC_TouchPanel_int>:

void LTC_TouchPanel_int(void) {
   80584:	defffb04 	addi	sp,sp,-20
   80588:	df000415 	stw	fp,16(sp)
   8058c:	df000404 	addi	fp,sp,16
    static int exposure = 0x0400, run = 1;
    static int config = 0;
    static int new_config = 4;
    int TP_val, x_val, y_val, key = 6;
   80590:	00800184 	movi	r2,6
   80594:	e0bffc15 	stw	r2,-16(fp)

    TP_val = IORD(NIOS_LCD_CAMERA_COMPONENT_0_TOUCHPANEL_BASE, 0);
   80598:	00800434 	movhi	r2,16
   8059c:	10951004 	addi	r2,r2,21568
   805a0:	10800037 	ldwio	r2,0(r2)
   805a4:	e0bfff15 	stw	r2,-4(fp)
    x_val = (TP_val >> 20) & 0xFF; y_val = (TP_val >> 4) & 0xFF;
   805a8:	e0bfff17 	ldw	r2,-4(fp)
   805ac:	1005d53a 	srai	r2,r2,20
   805b0:	10803fcc 	andi	r2,r2,255
   805b4:	e0bffe15 	stw	r2,-8(fp)
   805b8:	e0bfff17 	ldw	r2,-4(fp)
   805bc:	1005d13a 	srai	r2,r2,4
   805c0:	10803fcc 	andi	r2,r2,255
   805c4:	e0bffd15 	stw	r2,-12(fp)

    if (((TP_val >> 31) & 0x1) && (x_val >= 0xC9) && (x_val <= 0xF1)) {
   805c8:	e0bfff17 	ldw	r2,-4(fp)
   805cc:	1005d7fa 	srai	r2,r2,31
   805d0:	1080004c 	andi	r2,r2,1
   805d4:	1080005c 	xori	r2,r2,1
   805d8:	10803fcc 	andi	r2,r2,255
   805dc:	1004c03a 	cmpne	r2,r2,zero
   805e0:	10004e1e 	bne	r2,zero,8071c <LTC_TouchPanel_int+0x198>
   805e4:	e0bffe17 	ldw	r2,-8(fp)
   805e8:	10803250 	cmplti	r2,r2,201
   805ec:	10004b1e 	bne	r2,zero,8071c <LTC_TouchPanel_int+0x198>
   805f0:	e0bffe17 	ldw	r2,-8(fp)
   805f4:	10803c88 	cmpgei	r2,r2,242
   805f8:	1000481e 	bne	r2,zero,8071c <LTC_TouchPanel_int+0x198>
        if ((y_val >= 0x17) && (y_val <= 0x33)) { // Key 0
   805fc:	e0bffd17 	ldw	r2,-12(fp)
   80600:	108005d0 	cmplti	r2,r2,23
   80604:	1000081e 	bne	r2,zero,80628 <LTC_TouchPanel_int+0xa4>
   80608:	e0bffd17 	ldw	r2,-12(fp)
   8060c:	10800d08 	cmpgei	r2,r2,52
   80610:	1000051e 	bne	r2,zero,80628 <LTC_TouchPanel_int+0xa4>
            key = 0;
   80614:	e03ffc15 	stw	zero,-16(fp)
            IOWR(NIOS_LCD_CAMERA_COMPONENT_0_CONSOLE_BASE, 0, 0x1);
   80618:	00c00434 	movhi	r3,16
   8061c:	18c80004 	addi	r3,r3,8192
   80620:	00800044 	movi	r2,1
   80624:	18800035 	stwio	r2,0(r3)
        }
        if ((y_val >= 0x3D) && (y_val <= 0x58)) { // Key 1
   80628:	e0bffd17 	ldw	r2,-12(fp)
   8062c:	10800f50 	cmplti	r2,r2,61
   80630:	1000091e 	bne	r2,zero,80658 <LTC_TouchPanel_int+0xd4>
   80634:	e0bffd17 	ldw	r2,-12(fp)
   80638:	10801648 	cmpgei	r2,r2,89
   8063c:	1000061e 	bne	r2,zero,80658 <LTC_TouchPanel_int+0xd4>
            key = 1;
   80640:	00800044 	movi	r2,1
   80644:	e0bffc15 	stw	r2,-16(fp)
            IOWR(NIOS_LCD_CAMERA_COMPONENT_0_CONSOLE_BASE, 0, 0x2);
   80648:	00c00434 	movhi	r3,16
   8064c:	18c80004 	addi	r3,r3,8192
   80650:	00800084 	movi	r2,2
   80654:	18800035 	stwio	r2,0(r3)
        }
        if ((y_val >= 0x62) && (y_val <= 0x7E)) { // Key 2
   80658:	e0bffd17 	ldw	r2,-12(fp)
   8065c:	10801890 	cmplti	r2,r2,98
   80660:	1000091e 	bne	r2,zero,80688 <LTC_TouchPanel_int+0x104>
   80664:	e0bffd17 	ldw	r2,-12(fp)
   80668:	10801fc8 	cmpgei	r2,r2,127
   8066c:	1000061e 	bne	r2,zero,80688 <LTC_TouchPanel_int+0x104>
            key = 2;
   80670:	00800084 	movi	r2,2
   80674:	e0bffc15 	stw	r2,-16(fp)
            IOWR(NIOS_LCD_CAMERA_COMPONENT_0_CONSOLE_BASE, 0, 0x4);
   80678:	00c00434 	movhi	r3,16
   8067c:	18c80004 	addi	r3,r3,8192
   80680:	00800104 	movi	r2,4
   80684:	18800035 	stwio	r2,0(r3)
        }
        if ((y_val >= 0x88) && (y_val <= 0xA4)) { // Key 3
   80688:	e0bffd17 	ldw	r2,-12(fp)
   8068c:	10802210 	cmplti	r2,r2,136
   80690:	1000091e 	bne	r2,zero,806b8 <LTC_TouchPanel_int+0x134>
   80694:	e0bffd17 	ldw	r2,-12(fp)
   80698:	10802948 	cmpgei	r2,r2,165
   8069c:	1000061e 	bne	r2,zero,806b8 <LTC_TouchPanel_int+0x134>
            key = 3;
   806a0:	008000c4 	movi	r2,3
   806a4:	e0bffc15 	stw	r2,-16(fp)
            IOWR(NIOS_LCD_CAMERA_COMPONENT_0_CONSOLE_BASE, 0, 0x8);
   806a8:	00c00434 	movhi	r3,16
   806ac:	18c80004 	addi	r3,r3,8192
   806b0:	00800204 	movi	r2,8
   806b4:	18800035 	stwio	r2,0(r3)
        }
        if ((y_val >= 0xAE) && (y_val <= 0xC9)) { // Key 4
   806b8:	e0bffd17 	ldw	r2,-12(fp)
   806bc:	10802b90 	cmplti	r2,r2,174
   806c0:	1000091e 	bne	r2,zero,806e8 <LTC_TouchPanel_int+0x164>
   806c4:	e0bffd17 	ldw	r2,-12(fp)
   806c8:	10803288 	cmpgei	r2,r2,202
   806cc:	1000061e 	bne	r2,zero,806e8 <LTC_TouchPanel_int+0x164>
            key = 4;
   806d0:	00800104 	movi	r2,4
   806d4:	e0bffc15 	stw	r2,-16(fp)
            IOWR(NIOS_LCD_CAMERA_COMPONENT_0_CONSOLE_BASE, 0, 0x10);
   806d8:	00c00434 	movhi	r3,16
   806dc:	18c80004 	addi	r3,r3,8192
   806e0:	00800404 	movi	r2,16
   806e4:	18800035 	stwio	r2,0(r3)
        }
        if ((y_val >= 0xD3) && (y_val <= 0xEF)) { // Key 5
   806e8:	e0bffd17 	ldw	r2,-12(fp)
   806ec:	108034d0 	cmplti	r2,r2,211
   806f0:	10000d1e 	bne	r2,zero,80728 <LTC_TouchPanel_int+0x1a4>
   806f4:	e0bffd17 	ldw	r2,-12(fp)
   806f8:	10803c08 	cmpgei	r2,r2,240
   806fc:	10000a1e 	bne	r2,zero,80728 <LTC_TouchPanel_int+0x1a4>
            key = 5;
   80700:	00800144 	movi	r2,5
   80704:	e0bffc15 	stw	r2,-16(fp)
            IOWR(NIOS_LCD_CAMERA_COMPONENT_0_CONSOLE_BASE, 0, 0x20);
   80708:	00c00434 	movhi	r3,16
   8070c:	18c80004 	addi	r3,r3,8192
   80710:	00800804 	movi	r2,32
   80714:	18800035 	stwio	r2,0(r3)
    int TP_val, x_val, y_val, key = 6;

    TP_val = IORD(NIOS_LCD_CAMERA_COMPONENT_0_TOUCHPANEL_BASE, 0);
    x_val = (TP_val >> 20) & 0xFF; y_val = (TP_val >> 4) & 0xFF;

    if (((TP_val >> 31) & 0x1) && (x_val >= 0xC9) && (x_val <= 0xF1)) {
   80718:	00000306 	br	80728 <LTC_TouchPanel_int+0x1a4>
        }
        if ((y_val >= 0xD3) && (y_val <= 0xEF)) { // Key 5
            key = 5;
            IOWR(NIOS_LCD_CAMERA_COMPONENT_0_CONSOLE_BASE, 0, 0x20);
        }
    } else IOWR(NIOS_LCD_CAMERA_COMPONENT_0_CONSOLE_BASE, 0, 0x0);
   8071c:	00800434 	movhi	r2,16
   80720:	10880004 	addi	r2,r2,8192
   80724:	10000035 	stwio	zero,0(r2)
    
    if (IORD(NIOS_LCD_CAMERA_COMPONENT_0_TOUCHPANEL_BASE, 2) & 0x2) { // posedge
   80728:	00800434 	movhi	r2,16
   8072c:	10951204 	addi	r2,r2,21576
   80730:	10800037 	ldwio	r2,0(r2)
   80734:	1080008c 	andi	r2,r2,2
   80738:	1005003a 	cmpeq	r2,r2,zero
   8073c:	10004f1e 	bne	r2,zero,8087c <LTC_TouchPanel_int+0x2f8>
        switch (key) {
   80740:	e0bffc17 	ldw	r2,-16(fp)
   80744:	108001a8 	cmpgeui	r2,r2,6
   80748:	10004c1e 	bne	r2,zero,8087c <LTC_TouchPanel_int+0x2f8>
   8074c:	e0bffc17 	ldw	r2,-16(fp)
   80750:	1085883a 	add	r2,r2,r2
   80754:	1087883a 	add	r3,r2,r2
   80758:	00800234 	movhi	r2,8
   8075c:	1081db04 	addi	r2,r2,1900
   80760:	1885883a 	add	r2,r3,r2
   80764:	10800017 	ldw	r2,0(r2)
   80768:	1000683a 	jmp	r2
   8076c:	00080784 	movi	zero,8222
   80770:	000807c4 	movi	zero,8223
   80774:	000807f4 	movhi	zero,8223
   80778:	0008087c 	xorhi	zero,zero,8225
   8077c:	00080808 	cmpgei	zero,zero,8224
   80780:	00080844 	movi	zero,8225
            case 0 : 
                if (run == 1) {
   80784:	d0a00117 	ldw	r2,-32764(gp)
   80788:	10800058 	cmpnei	r2,r2,1
   8078c:	1000061e 	bne	r2,zero,807a8 <LTC_TouchPanel_int+0x224>
                    IOWR(NIOS_LCD_CAMERA_COMPONENT_0_CAMERA_BASE, 1, 0x8);
   80790:	00c00434 	movhi	r3,16
   80794:	18d50104 	addi	r3,r3,21508
   80798:	00800204 	movi	r2,8
   8079c:	18800035 	stwio	r2,0(r3)
                    run = 0;
   807a0:	d0200115 	stw	zero,-32764(gp)
   807a4:	00003506 	br	8087c <LTC_TouchPanel_int+0x2f8>
                } else {
                    IOWR(NIOS_LCD_CAMERA_COMPONENT_0_CAMERA_BASE, 1, 0x4);
   807a8:	00800434 	movhi	r2,16
   807ac:	10950104 	addi	r2,r2,21508
   807b0:	00c00104 	movi	r3,4
   807b4:	10c00035 	stwio	r3,0(r2)
                    run = 1;
   807b8:	00800044 	movi	r2,1
   807bc:	d0a00115 	stw	r2,-32764(gp)
                }
                break;
   807c0:	00002e06 	br	8087c <LTC_TouchPanel_int+0x2f8>
            case 1 : 
                config++; if (config == 4) config = 0;
   807c4:	d0a6b817 	ldw	r2,-25888(gp)
   807c8:	10800044 	addi	r2,r2,1
   807cc:	d0a6b815 	stw	r2,-25888(gp)
   807d0:	d0a6b817 	ldw	r2,-25888(gp)
   807d4:	10800118 	cmpnei	r2,r2,4
   807d8:	1000011e 	bne	r2,zero,807e0 <LTC_TouchPanel_int+0x25c>
   807dc:	d026b815 	stw	zero,-25888(gp)
                IOWR(NIOS_LCD_CAMERA_COMPONENT_0_IMAGELINE_BASE, 4, config);
   807e0:	d0e6b817 	ldw	r3,-25888(gp)
   807e4:	00800434 	movhi	r2,16
   807e8:	10800404 	addi	r2,r2,16
   807ec:	10c00035 	stwio	r3,0(r2)
                break;
   807f0:	00002206 	br	8087c <LTC_TouchPanel_int+0x2f8>
            case 2 : 
                IOWR(NIOS_LCD_CAMERA_COMPONENT_0_IMAGELINE_BASE, 4, 4);
   807f4:	00c00434 	movhi	r3,16
   807f8:	18c00404 	addi	r3,r3,16
   807fc:	00800104 	movi	r2,4
   80800:	18800035 	stwio	r2,0(r3)
                break;
   80804:	00001d06 	br	8087c <LTC_TouchPanel_int+0x2f8>
            case 4 : 
                if (exposure <= 0xFEFF) exposure += 0x0100;
   80808:	d0e00217 	ldw	r3,-32760(gp)
   8080c:	00bfbfd4 	movui	r2,65279
   80810:	10c00316 	blt	r2,r3,80820 <LTC_TouchPanel_int+0x29c>
   80814:	d0a00217 	ldw	r2,-32760(gp)
   80818:	10804004 	addi	r2,r2,256
   8081c:	d0a00215 	stw	r2,-32760(gp)
                IOWR(NIOS_LCD_CAMERA_COMPONENT_0_CAMERA_BASE, 0, exposure);
   80820:	d0e00217 	ldw	r3,-32760(gp)
   80824:	00800434 	movhi	r2,16
   80828:	10950004 	addi	r2,r2,21504
   8082c:	10c00035 	stwio	r3,0(r2)
                IOWR(NIOS_LCD_CAMERA_COMPONENT_0_CAMERA_BASE, 1, 0x2);
   80830:	00c00434 	movhi	r3,16
   80834:	18d50104 	addi	r3,r3,21508
   80838:	00800084 	movi	r2,2
   8083c:	18800035 	stwio	r2,0(r3)
                break;                              
   80840:	00000e06 	br	8087c <LTC_TouchPanel_int+0x2f8>
            case 5 : 
                if (exposure >= 0x0100) exposure -= 0x0100;
   80844:	d0a00217 	ldw	r2,-32760(gp)
   80848:	10804010 	cmplti	r2,r2,256
   8084c:	1000031e 	bne	r2,zero,8085c <LTC_TouchPanel_int+0x2d8>
   80850:	d0a00217 	ldw	r2,-32760(gp)
   80854:	10bfc004 	addi	r2,r2,-256
   80858:	d0a00215 	stw	r2,-32760(gp)
                IOWR(NIOS_LCD_CAMERA_COMPONENT_0_CAMERA_BASE, 0, exposure);
   8085c:	d0e00217 	ldw	r3,-32760(gp)
   80860:	00800434 	movhi	r2,16
   80864:	10950004 	addi	r2,r2,21504
   80868:	10c00035 	stwio	r3,0(r2)
                IOWR(NIOS_LCD_CAMERA_COMPONENT_0_CAMERA_BASE, 1, 0x2);
   8086c:	00c00434 	movhi	r3,16
   80870:	18d50104 	addi	r3,r3,21508
   80874:	00800084 	movi	r2,2
   80878:	18800035 	stwio	r2,0(r3)
                break;
        }
    }
    
    TP_val = IORD(NIOS_LCD_CAMERA_COMPONENT_0_TOUCHPANEL_BASE, 2);
   8087c:	00800434 	movhi	r2,16
   80880:	10951204 	addi	r2,r2,21576
   80884:	10800037 	ldwio	r2,0(r2)
   80888:	e0bfff15 	stw	r2,-4(fp)
    IOWR(NIOS_LCD_CAMERA_COMPONENT_0_TOUCHPANEL_BASE, 2, TP_val & 0x30);
   8088c:	e0bfff17 	ldw	r2,-4(fp)
   80890:	10c00c0c 	andi	r3,r2,48
   80894:	00800434 	movhi	r2,16
   80898:	10951204 	addi	r2,r2,21576
   8089c:	10c00035 	stwio	r3,0(r2)
}
   808a0:	e037883a 	mov	sp,fp
   808a4:	df000017 	ldw	fp,0(sp)
   808a8:	dec00104 	addi	sp,sp,4
   808ac:	f800283a 	ret

000808b0 <KEY0_Pressed>:
// McMaster University
// Ontario, Canada

#include "define.h"

void KEY0_Pressed(PB_irq_data_struct *PB_irq_data) {
   808b0:	defffb04 	addi	sp,sp,-20
   808b4:	dfc00415 	stw	ra,16(sp)
   808b8:	df000315 	stw	fp,12(sp)
   808bc:	df000304 	addi	fp,sp,12
   808c0:	e13ffe15 	stw	r4,-8(fp)
	int status;
	
	status = sd_card_find_next(PB_irq_data->filename);
   808c4:	e13ffe17 	ldw	r4,-8(fp)
   808c8:	00837740 	call	83774 <sd_card_find_next>
   808cc:	10bfffcc 	andi	r2,r2,65535
   808d0:	10a0001c 	xori	r2,r2,32768
   808d4:	10a00004 	addi	r2,r2,-32768
   808d8:	e0bffd15 	stw	r2,-12(fp)
	switch (status) {
   808dc:	e0bffd17 	ldw	r2,-12(fp)
   808e0:	e0bfff15 	stw	r2,-4(fp)
   808e4:	e0ffff17 	ldw	r3,-4(fp)
   808e8:	1805003a 	cmpeq	r2,r3,zero
   808ec:	1000071e 	bne	r2,zero,8090c <KEY0_Pressed+0x5c>
   808f0:	e0ffff17 	ldw	r3,-4(fp)
   808f4:	188000a0 	cmpeqi	r2,r3,2
   808f8:	10000d1e 	bne	r2,zero,80930 <KEY0_Pressed+0x80>
   808fc:	e0ffff17 	ldw	r3,-4(fp)
   80900:	18bfffe0 	cmpeqi	r2,r3,-1
   80904:	1000061e 	bne	r2,zero,80920 <KEY0_Pressed+0x70>
   80908:	00000c06 	br	8093c <KEY0_Pressed+0x8c>
		case 0: printf("File found: \"%s\"\n", PB_irq_data->filename); break;
   8090c:	e17ffe17 	ldw	r5,-8(fp)
   80910:	01000274 	movhi	r4,9
   80914:	21082704 	addi	r4,r4,8348
   80918:	00859b40 	call	859b4 <printf>
   8091c:	00000706 	br	8093c <KEY0_Pressed+0x8c>
		case -1: printf("End of directory\n"); break;
   80920:	01000274 	movhi	r4,9
   80924:	21082c04 	addi	r4,r4,8368
   80928:	0085acc0 	call	85acc <puts>
   8092c:	00000306 	br	8093c <KEY0_Pressed+0x8c>
		case 2: printf("No card or incorrect FS\n"); break;
   80930:	01000274 	movhi	r4,9
   80934:	21083104 	addi	r4,r4,8388
   80938:	0085acc0 	call	85acc <puts>
	}
}
   8093c:	e037883a 	mov	sp,fp
   80940:	dfc00117 	ldw	ra,4(sp)
   80944:	df000017 	ldw	fp,0(sp)
   80948:	dec00204 	addi	sp,sp,8
   8094c:	f800283a 	ret

00080950 <KEY1_Pressed>:

void KEY1_Pressed(PB_irq_data_struct *PB_irq_data) {
   80950:	defffe04 	addi	sp,sp,-8
   80954:	df000115 	stw	fp,4(sp)
   80958:	df000104 	addi	fp,sp,4
   8095c:	e13fff15 	stw	r4,-4(fp)
}
   80960:	e037883a 	mov	sp,fp
   80964:	df000017 	ldw	fp,0(sp)
   80968:	dec00104 	addi	sp,sp,4
   8096c:	f800283a 	ret

00080970 <KEY2_Pressed>:

void KEY2_Pressed(PB_irq_data_struct *PB_irq_data) {
   80970:	defffe04 	addi	sp,sp,-8
   80974:	df000115 	stw	fp,4(sp)
   80978:	df000104 	addi	fp,sp,4
   8097c:	e13fff15 	stw	r4,-4(fp)
	PB_irq_data->load_img_flag = 1;
   80980:	e0ffff17 	ldw	r3,-4(fp)
   80984:	00800044 	movi	r2,1
   80988:	18800415 	stw	r2,16(r3)
}
   8098c:	e037883a 	mov	sp,fp
   80990:	df000017 	ldw	fp,0(sp)
   80994:	dec00104 	addi	sp,sp,4
   80998:	f800283a 	ret

0008099c <KEY3_Pressed>:

void KEY3_Pressed(PB_irq_data_struct *PB_irq_data) {
   8099c:	defffe04 	addi	sp,sp,-8
   809a0:	df000115 	stw	fp,4(sp)
   809a4:	df000104 	addi	fp,sp,4
   809a8:	e13fff15 	stw	r4,-4(fp)
	PB_irq_data->save_img_flag = 1;	
   809ac:	e0ffff17 	ldw	r3,-4(fp)
   809b0:	00800044 	movi	r2,1
   809b4:	18800515 	stw	r2,20(r3)
}
   809b8:	e037883a 	mov	sp,fp
   809bc:	df000017 	ldw	fp,0(sp)
   809c0:	dec00104 	addi	sp,sp,4
   809c4:	f800283a 	ret

000809c8 <handle_button_interrupts>:

// ISR when any PB is pressed
void handle_button_interrupts(PB_irq_data_struct *PB_irq_data)
{
   809c8:	defffc04 	addi	sp,sp,-16
   809cc:	dfc00315 	stw	ra,12(sp)
   809d0:	df000215 	stw	fp,8(sp)
   809d4:	df000204 	addi	fp,sp,8
   809d8:	e13ffe15 	stw	r4,-8(fp)
	IOWR(LED_GREEN_O_BASE, 0, IORD(PUSH_BUTTON_I_BASE, 3)*IORD(PUSH_BUTTON_I_BASE, 3));
   809dc:	00800434 	movhi	r2,16
   809e0:	10952b04 	addi	r2,r2,21676
   809e4:	11000037 	ldwio	r4,0(r2)
   809e8:	00800434 	movhi	r2,16
   809ec:	10952b04 	addi	r2,r2,21676
   809f0:	11400037 	ldwio	r5,0(r2)
   809f4:	008597c0 	call	8597c <__mulsi3>
   809f8:	1007883a 	mov	r3,r2
   809fc:	00800434 	movhi	r2,16
   80a00:	10952004 	addi	r2,r2,21632
   80a04:	10c00035 	stwio	r3,0(r2)
	
	switch(IORD(PUSH_BUTTON_I_BASE, 3)) {
   80a08:	00800434 	movhi	r2,16
   80a0c:	10952b04 	addi	r2,r2,21676
   80a10:	10800037 	ldwio	r2,0(r2)
   80a14:	e0bfff15 	stw	r2,-4(fp)
   80a18:	e0ffff17 	ldw	r3,-4(fp)
   80a1c:	188000a0 	cmpeqi	r2,r3,2
   80a20:	1000111e 	bne	r2,zero,80a68 <handle_button_interrupts+0xa0>
   80a24:	e0ffff17 	ldw	r3,-4(fp)
   80a28:	188000c8 	cmpgei	r2,r3,3
   80a2c:	1000041e 	bne	r2,zero,80a40 <handle_button_interrupts+0x78>
   80a30:	e0ffff17 	ldw	r3,-4(fp)
   80a34:	18800060 	cmpeqi	r2,r3,1
   80a38:	1000081e 	bne	r2,zero,80a5c <handle_button_interrupts+0x94>
   80a3c:	00001206 	br	80a88 <handle_button_interrupts+0xc0>
   80a40:	e0ffff17 	ldw	r3,-4(fp)
   80a44:	18800120 	cmpeqi	r2,r3,4
   80a48:	10000a1e 	bne	r2,zero,80a74 <handle_button_interrupts+0xac>
   80a4c:	e0ffff17 	ldw	r3,-4(fp)
   80a50:	18800220 	cmpeqi	r2,r3,8
   80a54:	10000a1e 	bne	r2,zero,80a80 <handle_button_interrupts+0xb8>
   80a58:	00000b06 	br	80a88 <handle_button_interrupts+0xc0>
	case 1: KEY0_Pressed(PB_irq_data); break;
   80a5c:	e13ffe17 	ldw	r4,-8(fp)
   80a60:	00808b00 	call	808b0 <KEY0_Pressed>
   80a64:	00000806 	br	80a88 <handle_button_interrupts+0xc0>
	case 2: KEY1_Pressed(PB_irq_data); break;
   80a68:	e13ffe17 	ldw	r4,-8(fp)
   80a6c:	00809500 	call	80950 <KEY1_Pressed>
   80a70:	00000506 	br	80a88 <handle_button_interrupts+0xc0>
	case 4: KEY2_Pressed(PB_irq_data); break;
   80a74:	e13ffe17 	ldw	r4,-8(fp)
   80a78:	00809700 	call	80970 <KEY2_Pressed>
   80a7c:	00000206 	br	80a88 <handle_button_interrupts+0xc0>
	case 8: KEY3_Pressed(PB_irq_data); break;
   80a80:	e13ffe17 	ldw	r4,-8(fp)
   80a84:	008099c0 	call	8099c <KEY3_Pressed>
	}
	IOWR(PUSH_BUTTON_I_BASE, 3, 0x0);
   80a88:	00800434 	movhi	r2,16
   80a8c:	10952b04 	addi	r2,r2,21676
   80a90:	10000035 	stwio	zero,0(r2)
}
   80a94:	e037883a 	mov	sp,fp
   80a98:	dfc00117 	ldw	ra,4(sp)
   80a9c:	df000017 	ldw	fp,0(sp)
   80aa0:	dec00204 	addi	sp,sp,8
   80aa4:	f800283a 	ret

00080aa8 <init_button_irq>:

// Function for initializing the ISR of the PBs
// The PBs are setup to generate interrupt on falling edge,
// and the interrupt is captured when the edge comes
void init_button_irq(PB_irq_data_struct *PB_irq_data) {
   80aa8:	defffd04 	addi	sp,sp,-12
   80aac:	dfc00215 	stw	ra,8(sp)
   80ab0:	df000115 	stw	fp,4(sp)
   80ab4:	df000104 	addi	fp,sp,4
   80ab8:	e13fff15 	stw	r4,-4(fp)
  // Enable all 4 button interrupts
  IOWR(PUSH_BUTTON_I_BASE, 2, BUTTON_INT_MASK);
   80abc:	00800434 	movhi	r2,16
   80ac0:	10952a04 	addi	r2,r2,21672
   80ac4:	00c003c4 	movi	r3,15
   80ac8:	10c00035 	stwio	r3,0(r2)

  // Reset the edge capture register
  IOWR(PUSH_BUTTON_I_BASE, 3, 0x0);
   80acc:	00800434 	movhi	r2,16
   80ad0:	10952b04 	addi	r2,r2,21676
   80ad4:	10000035 	stwio	zero,0(r2)

  // Register the interrupt handler
  alt_irq_register(PUSH_BUTTON_I_IRQ, (void *)PB_irq_data, (void*)handle_button_interrupts );
   80ad8:	01000044 	movi	r4,1
   80adc:	e17fff17 	ldw	r5,-4(fp)
   80ae0:	01800234 	movhi	r6,8
   80ae4:	31827204 	addi	r6,r6,2504
   80ae8:	008f7900 	call	8f790 <alt_irq_register>
}
   80aec:	e037883a 	mov	sp,fp
   80af0:	dfc00117 	ldw	ra,4(sp)
   80af4:	df000017 	ldw	fp,0(sp)
   80af8:	dec00204 	addi	sp,sp,8
   80afc:	f800283a 	ret

00080b00 <Write_Sector_Data>:
///////////////////////////////////////////////////////////////////////////

        
bool Write_Sector_Data(int sector_index, int partition_offset)
// This function writes a sector at the specified address on the SD Card.
{
   80b00:	defffa04 	addi	sp,sp,-24
   80b04:	dfc00515 	stw	ra,20(sp)
   80b08:	df000415 	stw	fp,16(sp)
   80b0c:	df000404 	addi	fp,sp,16
   80b10:	e13ffe15 	stw	r4,-8(fp)
   80b14:	e17fff15 	stw	r5,-4(fp)
    bool result = false;
   80b18:	e03ffd15 	stw	zero,-12(fp)
    
    if (sd_card_is_Present())
   80b1c:	00835c80 	call	835c8 <sd_card_is_Present>
   80b20:	1005003a 	cmpeq	r2,r2,zero
   80b24:	10001f1e 	bne	r2,zero,80ba4 <Write_Sector_Data+0xa4>
    {
        short int reg_state = 0xff;
   80b28:	00803fc4 	movi	r2,255
   80b2c:	e0bffc0d 	sth	r2,-16(fp)

		/* Multiply sector offset by sector size to get the address. Sector size is 512. Also,
         * the SD card reads data in 512 byte chunks, so the address must be a multiple of 512. */
        *command_argument_register = (sector_index + partition_offset)*512;
   80b30:	d126bf17 	ldw	r4,-25860(gp)
   80b34:	e0fffe17 	ldw	r3,-8(fp)
   80b38:	e0bfff17 	ldw	r2,-4(fp)
   80b3c:	1885883a 	add	r2,r3,r2
   80b40:	1004927a 	slli	r2,r2,9
   80b44:	20800015 	stw	r2,0(r4)
        *command_register = CMD_WRITE_BLOCK;
   80b48:	d0e6be17 	ldw	r3,-25864(gp)
   80b4c:	00800604 	movi	r2,24
   80b50:	1880000d 	sth	r2,0(r3)
        do {
            reg_state = *aux_status_register;
   80b54:	d0a6bb17 	ldw	r2,-25876(gp)
   80b58:	1080000b 	ldhu	r2,0(r2)
   80b5c:	e0bffc0d 	sth	r2,-16(fp)
        } while ((reg_state & 0x04)!=0);
   80b60:	e0bffc0b 	ldhu	r2,-16(fp)
   80b64:	10bfffcc 	andi	r2,r2,65535
   80b68:	1080010c 	andi	r2,r2,4
   80b6c:	1004c03a 	cmpne	r2,r2,zero
   80b70:	103ff81e 	bne	r2,zero,80b54 <Write_Sector_Data+0x54>
        // Make sure the request did not time out.
        if ((reg_state & 0x10) == 0)
   80b74:	e0bffc0b 	ldhu	r2,-16(fp)
   80b78:	10bfffcc 	andi	r2,r2,65535
   80b7c:	1080040c 	andi	r2,r2,16
   80b80:	1004c03a 	cmpne	r2,r2,zero
   80b84:	1000071e 	bne	r2,zero,80ba4 <Write_Sector_Data+0xa4>
        {
            result = true;
   80b88:	00800044 	movi	r2,1
   80b8c:	e0bffd15 	stw	r2,-12(fp)
            current_sector_modified = false;
   80b90:	d026c215 	stw	zero,-25848(gp)
            current_sector_index = sector_index+partition_offset;
   80b94:	e0fffe17 	ldw	r3,-8(fp)
   80b98:	e0bfff17 	ldw	r2,-4(fp)
   80b9c:	1885883a 	add	r2,r3,r2
   80ba0:	d0a6c315 	stw	r2,-25844(gp)
        }
    }
    return result;
   80ba4:	e0bffd17 	ldw	r2,-12(fp)
}
   80ba8:	e037883a 	mov	sp,fp
   80bac:	dfc00117 	ldw	ra,4(sp)
   80bb0:	df000017 	ldw	fp,0(sp)
   80bb4:	dec00204 	addi	sp,sp,8
   80bb8:	f800283a 	ret

00080bbc <Save_Modified_Sector>:


bool Save_Modified_Sector()
// If the sector has been modified, then save it to the SD Card.
{
   80bbc:	defffd04 	addi	sp,sp,-12
   80bc0:	dfc00215 	stw	ra,8(sp)
   80bc4:	df000115 	stw	fp,4(sp)
   80bc8:	df000104 	addi	fp,sp,4
    bool result = true;
   80bcc:	00800044 	movi	r2,1
   80bd0:	e0bfff15 	stw	r2,-4(fp)
    if (current_sector_modified)
   80bd4:	d0a6c217 	ldw	r2,-25848(gp)
   80bd8:	1005003a 	cmpeq	r2,r2,zero
   80bdc:	1000051e 	bne	r2,zero,80bf4 <Save_Modified_Sector+0x38>
    {
        result = Write_Sector_Data(current_sector_index, 0);
   80be0:	d0a6c317 	ldw	r2,-25844(gp)
   80be4:	1009883a 	mov	r4,r2
   80be8:	000b883a 	mov	r5,zero
   80bec:	0080b000 	call	80b00 <Write_Sector_Data>
   80bf0:	e0bfff15 	stw	r2,-4(fp)
    }
    return result;
   80bf4:	e0bfff17 	ldw	r2,-4(fp)
}
   80bf8:	e037883a 	mov	sp,fp
   80bfc:	dfc00117 	ldw	ra,4(sp)
   80c00:	df000017 	ldw	fp,0(sp)
   80c04:	dec00204 	addi	sp,sp,8
   80c08:	f800283a 	ret

00080c0c <Read_Sector_Data>:


bool Read_Sector_Data(int sector_index, int partition_offset)
// This function reads a sector at the specified address on the SD Card.
{
   80c0c:	defff904 	addi	sp,sp,-28
   80c10:	dfc00615 	stw	ra,24(sp)
   80c14:	df000515 	stw	fp,20(sp)
   80c18:	df000504 	addi	fp,sp,20
   80c1c:	e13ffd15 	stw	r4,-12(fp)
   80c20:	e17ffe15 	stw	r5,-8(fp)
	bool result = false;
   80c24:	e03ffc15 	stw	zero,-16(fp)
    
	if (sd_card_is_Present())
   80c28:	00835c80 	call	835c8 <sd_card_is_Present>
   80c2c:	1005003a 	cmpeq	r2,r2,zero
   80c30:	10002a1e 	bne	r2,zero,80cdc <Read_Sector_Data+0xd0>
	{
		short int reg_state = 0xff;
   80c34:	00803fc4 	movi	r2,255
   80c38:	e0bffb0d 	sth	r2,-20(fp)
        
        /* Write data to the SD card if the current buffer is out of date. */
        if (current_sector_modified)
   80c3c:	d0a6c217 	ldw	r2,-25848(gp)
   80c40:	1005003a 	cmpeq	r2,r2,zero
   80c44:	1000081e 	bne	r2,zero,80c68 <Read_Sector_Data+0x5c>
        {
            if (Write_Sector_Data(current_sector_index, 0) == false)
   80c48:	d0a6c317 	ldw	r2,-25844(gp)
   80c4c:	1009883a 	mov	r4,r2
   80c50:	000b883a 	mov	r5,zero
   80c54:	0080b000 	call	80b00 <Write_Sector_Data>
   80c58:	1004c03a 	cmpne	r2,r2,zero
   80c5c:	1000021e 	bne	r2,zero,80c68 <Read_Sector_Data+0x5c>
            {
                return false;
   80c60:	e03fff15 	stw	zero,-4(fp)
   80c64:	00001f06 	br	80ce4 <Read_Sector_Data+0xd8>
            }
        }
		/* Multiply sector offset by sector size to get the address. Sector size is 512. Also,
		 * the SD card reads data in 512 byte chunks, so the address must be a multiple of 512. */
		*command_argument_register = (sector_index + partition_offset)*512;
   80c68:	d126bf17 	ldw	r4,-25860(gp)
   80c6c:	e0fffd17 	ldw	r3,-12(fp)
   80c70:	e0bffe17 	ldw	r2,-8(fp)
   80c74:	1885883a 	add	r2,r3,r2
   80c78:	1004927a 	slli	r2,r2,9
   80c7c:	20800015 	stw	r2,0(r4)
		*command_register = CMD_READ_BLOCK;
   80c80:	d0e6be17 	ldw	r3,-25864(gp)
   80c84:	00800444 	movi	r2,17
   80c88:	1880000d 	sth	r2,0(r3)
		do {
			reg_state = *aux_status_register;
   80c8c:	d0a6bb17 	ldw	r2,-25876(gp)
   80c90:	1080000b 	ldhu	r2,0(r2)
   80c94:	e0bffb0d 	sth	r2,-20(fp)
		} while ((reg_state & 0x04)!=0);
   80c98:	e0bffb0b 	ldhu	r2,-20(fp)
   80c9c:	10bfffcc 	andi	r2,r2,65535
   80ca0:	1080010c 	andi	r2,r2,4
   80ca4:	1004c03a 	cmpne	r2,r2,zero
   80ca8:	103ff81e 	bne	r2,zero,80c8c <Read_Sector_Data+0x80>
		// Make sure the request did not time out.
		if ((reg_state & 0x10) == 0)
   80cac:	e0bffb0b 	ldhu	r2,-20(fp)
   80cb0:	10bfffcc 	andi	r2,r2,65535
   80cb4:	1080040c 	andi	r2,r2,16
   80cb8:	1004c03a 	cmpne	r2,r2,zero
   80cbc:	1000071e 	bne	r2,zero,80cdc <Read_Sector_Data+0xd0>
		{
			result = true;
   80cc0:	00800044 	movi	r2,1
   80cc4:	e0bffc15 	stw	r2,-16(fp)
            current_sector_modified = false;
   80cc8:	d026c215 	stw	zero,-25848(gp)
            current_sector_index = sector_index+partition_offset;
   80ccc:	e0fffd17 	ldw	r3,-12(fp)
   80cd0:	e0bffe17 	ldw	r2,-8(fp)
   80cd4:	1885883a 	add	r2,r3,r2
   80cd8:	d0a6c315 	stw	r2,-25844(gp)
		}
	}
	return result;
   80cdc:	e0bffc17 	ldw	r2,-16(fp)
   80ce0:	e0bfff15 	stw	r2,-4(fp)
   80ce4:	e0bfff17 	ldw	r2,-4(fp)
}
   80ce8:	e037883a 	mov	sp,fp
   80cec:	dfc00117 	ldw	ra,4(sp)
   80cf0:	df000017 	ldw	fp,0(sp)
   80cf4:	dec00204 	addi	sp,sp,8
   80cf8:	f800283a 	ret

00080cfc <get_cluster_flag>:


bool get_cluster_flag(unsigned int cluster_index, unsigned short int *flag)
// Read a cluster flag.
{
   80cfc:	defffa04 	addi	sp,sp,-24
   80d00:	dfc00515 	stw	ra,20(sp)
   80d04:	df000415 	stw	fp,16(sp)
   80d08:	df000404 	addi	fp,sp,16
   80d0c:	e13ffd15 	stw	r4,-12(fp)
   80d10:	e17ffe15 	stw	r5,-8(fp)
    unsigned int sector_index = (cluster_index / 256) + fat_partition_offset_in_512_byte_sectors;
   80d14:	e0bffd17 	ldw	r2,-12(fp)
   80d18:	1006d23a 	srli	r3,r2,8
   80d1c:	d0a6c017 	ldw	r2,-25856(gp)
   80d20:	1885883a 	add	r2,r3,r2
   80d24:	e0bffc15 	stw	r2,-16(fp)
    
    sector_index  = sector_index + boot_sector_data.first_fat_sector_offset;
   80d28:	00800374 	movhi	r2,13
   80d2c:	10b82004 	addi	r2,r2,-8064
   80d30:	10c01117 	ldw	r3,68(r2)
   80d34:	e0bffc17 	ldw	r2,-16(fp)
   80d38:	10c5883a 	add	r2,r2,r3
   80d3c:	e0bffc15 	stw	r2,-16(fp)
     
    if (sector_index != current_sector_index)
   80d40:	d0e6c317 	ldw	r3,-25844(gp)
   80d44:	e0bffc17 	ldw	r2,-16(fp)
   80d48:	10c00726 	beq	r2,r3,80d68 <get_cluster_flag+0x6c>
    {
        if (Read_Sector_Data(sector_index, 0) == false)
   80d4c:	e13ffc17 	ldw	r4,-16(fp)
   80d50:	000b883a 	mov	r5,zero
   80d54:	0080c0c0 	call	80c0c <Read_Sector_Data>
   80d58:	1004c03a 	cmpne	r2,r2,zero
   80d5c:	1000021e 	bne	r2,zero,80d68 <get_cluster_flag+0x6c>
        {
            return false;
   80d60:	e03fff15 	stw	zero,-4(fp)
   80d64:	00000806 	br	80d88 <get_cluster_flag+0x8c>
        }
    }
    *flag = (*((volatile unsigned short int *) SD_CARD_BUFFER(SD_CARD_0_BASE, 2*(cluster_index % 256))));
   80d68:	e0bffd17 	ldw	r2,-12(fp)
   80d6c:	10803fcc 	andi	r2,r2,255
   80d70:	1085883a 	add	r2,r2,r2
   80d74:	10c0000b 	ldhu	r3,0(r2)
   80d78:	e0bffe17 	ldw	r2,-8(fp)
   80d7c:	10c0000d 	sth	r3,0(r2)
    return true;
   80d80:	00800044 	movi	r2,1
   80d84:	e0bfff15 	stw	r2,-4(fp)
   80d88:	e0bfff17 	ldw	r2,-4(fp)
}
   80d8c:	e037883a 	mov	sp,fp
   80d90:	dfc00117 	ldw	ra,4(sp)
   80d94:	df000017 	ldw	fp,0(sp)
   80d98:	dec00204 	addi	sp,sp,8
   80d9c:	f800283a 	ret

00080da0 <mark_cluster>:


bool mark_cluster(unsigned int cluster_index, short int flag, bool first_fat)
// Place a marker on the specified cluster in a given FAT.
{
   80da0:	defff904 	addi	sp,sp,-28
   80da4:	dfc00615 	stw	ra,24(sp)
   80da8:	df000515 	stw	fp,20(sp)
   80dac:	df000504 	addi	fp,sp,20
   80db0:	e13ffc15 	stw	r4,-16(fp)
   80db4:	e1bffe15 	stw	r6,-8(fp)
   80db8:	e17ffd0d 	sth	r5,-12(fp)
    unsigned int sector_index = (cluster_index / 256) +  fat_partition_offset_in_512_byte_sectors;
   80dbc:	e0bffc17 	ldw	r2,-16(fp)
   80dc0:	1006d23a 	srli	r3,r2,8
   80dc4:	d0a6c017 	ldw	r2,-25856(gp)
   80dc8:	1885883a 	add	r2,r3,r2
   80dcc:	e0bffb15 	stw	r2,-20(fp)
    
    if (first_fat)
   80dd0:	e0bffe17 	ldw	r2,-8(fp)
   80dd4:	1005003a 	cmpeq	r2,r2,zero
   80dd8:	1000071e 	bne	r2,zero,80df8 <mark_cluster+0x58>
    {
        sector_index  = sector_index + boot_sector_data.first_fat_sector_offset;
   80ddc:	00800374 	movhi	r2,13
   80de0:	10b82004 	addi	r2,r2,-8064
   80de4:	10c01117 	ldw	r3,68(r2)
   80de8:	e0bffb17 	ldw	r2,-20(fp)
   80dec:	10c5883a 	add	r2,r2,r3
   80df0:	e0bffb15 	stw	r2,-20(fp)
   80df4:	00000606 	br	80e10 <mark_cluster+0x70>
    }
    else
    {
        sector_index  = sector_index + boot_sector_data.second_fat_sector_offset;
   80df8:	00800374 	movhi	r2,13
   80dfc:	10b82004 	addi	r2,r2,-8064
   80e00:	10c01217 	ldw	r3,72(r2)
   80e04:	e0bffb17 	ldw	r2,-20(fp)
   80e08:	10c5883a 	add	r2,r2,r3
   80e0c:	e0bffb15 	stw	r2,-20(fp)
    }
     
    if (sector_index != current_sector_index)
   80e10:	d0e6c317 	ldw	r3,-25844(gp)
   80e14:	e0bffb17 	ldw	r2,-20(fp)
   80e18:	10c00726 	beq	r2,r3,80e38 <mark_cluster+0x98>
    {
        if (Read_Sector_Data(sector_index, 0) == false)
   80e1c:	e13ffb17 	ldw	r4,-20(fp)
   80e20:	000b883a 	mov	r5,zero
   80e24:	0080c0c0 	call	80c0c <Read_Sector_Data>
   80e28:	1004c03a 	cmpne	r2,r2,zero
   80e2c:	1000021e 	bne	r2,zero,80e38 <mark_cluster+0x98>
        {
            return false;
   80e30:	e03fff15 	stw	zero,-4(fp)
   80e34:	00000a06 	br	80e60 <mark_cluster+0xc0>
        }
    }
    (*((volatile short int *) SD_CARD_BUFFER(SD_CARD_0_BASE, 2*(cluster_index % 256)))) = flag;
   80e38:	e0bffc17 	ldw	r2,-16(fp)
   80e3c:	10803fcc 	andi	r2,r2,255
   80e40:	1085883a 	add	r2,r2,r2
   80e44:	1007883a 	mov	r3,r2
   80e48:	e0bffd0b 	ldhu	r2,-12(fp)
   80e4c:	1880000d 	sth	r2,0(r3)
    current_sector_modified = true;
   80e50:	00800044 	movi	r2,1
   80e54:	d0a6c215 	stw	r2,-25848(gp)
    return true;
   80e58:	00800044 	movi	r2,1
   80e5c:	e0bfff15 	stw	r2,-4(fp)
   80e60:	e0bfff17 	ldw	r2,-4(fp)
}
   80e64:	e037883a 	mov	sp,fp
   80e68:	dfc00117 	ldw	ra,4(sp)
   80e6c:	df000017 	ldw	fp,0(sp)
   80e70:	dec00204 	addi	sp,sp,8
   80e74:	f800283a 	ret

00080e78 <Check_for_Master_Boot_Record>:

bool Check_for_Master_Boot_Record(void)
// This function reads the first 512 bytes on the SD Card. This data should
// contain the Master Boot Record. If it does, then print
// relevant information and return true. Otherwise, return false. 
{
   80e78:	defff704 	addi	sp,sp,-36
   80e7c:	dfc00815 	stw	ra,32(sp)
   80e80:	df000715 	stw	fp,28(sp)
   80e84:	df000704 	addi	fp,sp,28
	bool result = false;
   80e88:	e03fff15 	stw	zero,-4(fp)
	int index;
	int end, offset, partition_size;

	/* Load the first 512 bytes of data from SD card. */
	if (Read_Sector_Data(0, 0))
   80e8c:	0009883a 	mov	r4,zero
   80e90:	000b883a 	mov	r5,zero
   80e94:	0080c0c0 	call	80c0c <Read_Sector_Data>
   80e98:	1005003a 	cmpeq	r2,r2,zero
   80e9c:	1000461e 	bne	r2,zero,80fb8 <Check_for_Master_Boot_Record+0x140>
	{
		end =  (*((volatile short int *)SD_CARD_BUFFER(SD_CARD_0_BASE, 0x1fe)));
   80ea0:	00807f84 	movi	r2,510
   80ea4:	1080000b 	ldhu	r2,0(r2)
   80ea8:	10bfffcc 	andi	r2,r2,65535
   80eac:	10a0001c 	xori	r2,r2,32768
   80eb0:	10a00004 	addi	r2,r2,-32768
   80eb4:	e0bffd15 	stw	r2,-12(fp)

		// Check if the end of the sector contains an end string 0xaa55.
		if ((end & 0x0000ffff) == 0x0000aa55)
   80eb8:	e0bffd17 	ldw	r2,-12(fp)
   80ebc:	10ffffcc 	andi	r3,r2,65535
   80ec0:	00aa9554 	movui	r2,43605
   80ec4:	18803c1e 	bne	r3,r2,80fb8 <Check_for_Master_Boot_Record+0x140>
		{
			// Check four partition entries and see if any are valid
			for (index = 0; index < 4; index++)
   80ec8:	e03ffe15 	stw	zero,-8(fp)
   80ecc:	00003706 	br	80fac <Check_for_Master_Boot_Record+0x134>
			{
				int partition_data_offset = (index * 16) + 0x01be;
   80ed0:	e0bffe17 	ldw	r2,-8(fp)
   80ed4:	1004913a 	slli	r2,r2,4
   80ed8:	10806f84 	addi	r2,r2,446
   80edc:	e0bffa15 	stw	r2,-24(fp)
				char type;
		        
				// Read Partition type
				type = (*((volatile unsigned char *)SD_CARD_BUFFER(SD_CARD_0_BASE, partition_data_offset + 0x04)));
   80ee0:	e0bffa17 	ldw	r2,-24(fp)
   80ee4:	10800104 	addi	r2,r2,4
   80ee8:	10800003 	ldbu	r2,0(r2)
   80eec:	e0bff905 	stb	r2,-28(fp)

				// Check if this is an FAT parition
				if ((type == 1) || (type == 4) || (type == 6) || (type == 14))
   80ef0:	e0bff907 	ldb	r2,-28(fp)
   80ef4:	10800060 	cmpeqi	r2,r2,1
   80ef8:	1000091e 	bne	r2,zero,80f20 <Check_for_Master_Boot_Record+0xa8>
   80efc:	e0bff907 	ldb	r2,-28(fp)
   80f00:	10800120 	cmpeqi	r2,r2,4
   80f04:	1000061e 	bne	r2,zero,80f20 <Check_for_Master_Boot_Record+0xa8>
   80f08:	e0bff907 	ldb	r2,-28(fp)
   80f0c:	108001a0 	cmpeqi	r2,r2,6
   80f10:	1000031e 	bne	r2,zero,80f20 <Check_for_Master_Boot_Record+0xa8>
   80f14:	e0bff907 	ldb	r2,-28(fp)
   80f18:	10800398 	cmpnei	r2,r2,14
   80f1c:	1000201e 	bne	r2,zero,80fa0 <Check_for_Master_Boot_Record+0x128>
				{
					// Get partition offset and size.
					offset = ((*((unsigned short int *)SD_CARD_BUFFER(SD_CARD_0_BASE, partition_data_offset + 0x0A))) << 16) | (*((unsigned short int *)SD_CARD_BUFFER(SD_CARD_0_BASE, partition_data_offset + 0x08)));
   80f20:	e0bffa17 	ldw	r2,-24(fp)
   80f24:	10800284 	addi	r2,r2,10
   80f28:	1080000b 	ldhu	r2,0(r2)
   80f2c:	10bfffcc 	andi	r2,r2,65535
   80f30:	1006943a 	slli	r3,r2,16
   80f34:	e0bffa17 	ldw	r2,-24(fp)
   80f38:	10800204 	addi	r2,r2,8
   80f3c:	1080000b 	ldhu	r2,0(r2)
   80f40:	10bfffcc 	andi	r2,r2,65535
   80f44:	1884b03a 	or	r2,r3,r2
   80f48:	e0bffc15 	stw	r2,-16(fp)
					partition_size = ((*((unsigned short int *)SD_CARD_BUFFER(SD_CARD_0_BASE, partition_data_offset + 0x0E))) << 16) | (*((unsigned short int *)SD_CARD_BUFFER(SD_CARD_0_BASE, partition_data_offset + 0x0C)));
   80f4c:	e0bffa17 	ldw	r2,-24(fp)
   80f50:	10800384 	addi	r2,r2,14
   80f54:	1080000b 	ldhu	r2,0(r2)
   80f58:	10bfffcc 	andi	r2,r2,65535
   80f5c:	1006943a 	slli	r3,r2,16
   80f60:	e0bffa17 	ldw	r2,-24(fp)
   80f64:	10800304 	addi	r2,r2,12
   80f68:	1080000b 	ldhu	r2,0(r2)
   80f6c:	10bfffcc 	andi	r2,r2,65535
   80f70:	1884b03a 	or	r2,r3,r2
   80f74:	e0bffb15 	stw	r2,-20(fp)
		            
					// Check if the partition is valid
					if (partition_size > 0)
   80f78:	e0bffb17 	ldw	r2,-20(fp)
   80f7c:	10800050 	cmplti	r2,r2,1
   80f80:	1000071e 	bne	r2,zero,80fa0 <Check_for_Master_Boot_Record+0x128>
					{
						result = true;
   80f84:	00800044 	movi	r2,1
   80f88:	e0bfff15 	stw	r2,-4(fp)
						fat_partition_size_in_512_byte_sectors = partition_size;
   80f8c:	e0bffb17 	ldw	r2,-20(fp)
   80f90:	d0a6c115 	stw	r2,-25852(gp)
						fat_partition_offset_in_512_byte_sectors = offset;
   80f94:	e0bffc17 	ldw	r2,-16(fp)
   80f98:	d0a6c015 	stw	r2,-25856(gp)
						break;
   80f9c:	00000606 	br	80fb8 <Check_for_Master_Boot_Record+0x140>

		// Check if the end of the sector contains an end string 0xaa55.
		if ((end & 0x0000ffff) == 0x0000aa55)
		{
			// Check four partition entries and see if any are valid
			for (index = 0; index < 4; index++)
   80fa0:	e0bffe17 	ldw	r2,-8(fp)
   80fa4:	10800044 	addi	r2,r2,1
   80fa8:	e0bffe15 	stw	r2,-8(fp)
   80fac:	e0bffe17 	ldw	r2,-8(fp)
   80fb0:	10800110 	cmplti	r2,r2,4
   80fb4:	103fc61e 	bne	r2,zero,80ed0 <Check_for_Master_Boot_Record+0x58>
				}
			}
		}
	}

	return result;
   80fb8:	e0bfff17 	ldw	r2,-4(fp)
}
   80fbc:	e037883a 	mov	sp,fp
   80fc0:	dfc00117 	ldw	ra,4(sp)
   80fc4:	df000017 	ldw	fp,0(sp)
   80fc8:	dec00204 	addi	sp,sp,8
   80fcc:	f800283a 	ret

00080fd0 <Read_File_Record_At_Offset>:


bool Read_File_Record_At_Offset(int offset, t_file_record *record, unsigned int cluster_index, unsigned int sector_in_cluster)
// This function reads a file record
{
   80fd0:	defff804 	addi	sp,sp,-32
   80fd4:	dfc00715 	stw	ra,28(sp)
   80fd8:	df000615 	stw	fp,24(sp)
   80fdc:	df000604 	addi	fp,sp,24
   80fe0:	e13ffc15 	stw	r4,-16(fp)
   80fe4:	e17ffd15 	stw	r5,-12(fp)
   80fe8:	e1bffe15 	stw	r6,-8(fp)
   80fec:	e1ffff15 	stw	r7,-4(fp)
	bool result = false;
   80ff0:	e03ffb15 	stw	zero,-20(fp)
	if (((offset & 0x01f) == 0) && (sd_card_is_Present()) && (is_sd_card_formated_as_FAT16))
   80ff4:	e0bffc17 	ldw	r2,-16(fp)
   80ff8:	108007cc 	andi	r2,r2,31
   80ffc:	1004c03a 	cmpne	r2,r2,zero
   81000:	10005f1e 	bne	r2,zero,81180 <Read_File_Record_At_Offset+0x1b0>
   81004:	00835c80 	call	835c8 <sd_card_is_Present>
   81008:	1005003a 	cmpeq	r2,r2,zero
   8100c:	10005c1e 	bne	r2,zero,81180 <Read_File_Record_At_Offset+0x1b0>
   81010:	d0a6ba17 	ldw	r2,-25880(gp)
   81014:	1005003a 	cmpeq	r2,r2,zero
   81018:	1000591e 	bne	r2,zero,81180 <Read_File_Record_At_Offset+0x1b0>
	{
		int counter;

		for (counter = 0; counter < 8; counter++)
   8101c:	e03ffa15 	stw	zero,-24(fp)
   81020:	00000c06 	br	81054 <Read_File_Record_At_Offset+0x84>
		{
			record->name[counter] = *((volatile char *)SD_CARD_BUFFER(SD_CARD_0_BASE, offset+counter));
   81024:	e13ffa17 	ldw	r4,-24(fp)
   81028:	e0fffc17 	ldw	r3,-16(fp)
   8102c:	e0bffa17 	ldw	r2,-24(fp)
   81030:	1885883a 	add	r2,r3,r2
   81034:	10800003 	ldbu	r2,0(r2)
   81038:	1007883a 	mov	r3,r2
   8103c:	e0bffd17 	ldw	r2,-12(fp)
   81040:	1105883a 	add	r2,r2,r4
   81044:	10c00005 	stb	r3,0(r2)
	bool result = false;
	if (((offset & 0x01f) == 0) && (sd_card_is_Present()) && (is_sd_card_formated_as_FAT16))
	{
		int counter;

		for (counter = 0; counter < 8; counter++)
   81048:	e0bffa17 	ldw	r2,-24(fp)
   8104c:	10800044 	addi	r2,r2,1
   81050:	e0bffa15 	stw	r2,-24(fp)
   81054:	e0bffa17 	ldw	r2,-24(fp)
   81058:	10800210 	cmplti	r2,r2,8
   8105c:	103ff11e 	bne	r2,zero,81024 <Read_File_Record_At_Offset+0x54>
		{
			record->name[counter] = *((volatile char *)SD_CARD_BUFFER(SD_CARD_0_BASE, offset+counter));
		}        
		for (counter = 0; counter < 3; counter++)
   81060:	e03ffa15 	stw	zero,-24(fp)
   81064:	00000e06 	br	810a0 <Read_File_Record_At_Offset+0xd0>
		{
			record->extension[counter] = *((volatile char *)SD_CARD_BUFFER(SD_CARD_0_BASE, offset+counter+8));
   81068:	e13ffa17 	ldw	r4,-24(fp)
   8106c:	e0fffc17 	ldw	r3,-16(fp)
   81070:	e0bffa17 	ldw	r2,-24(fp)
   81074:	1885883a 	add	r2,r3,r2
   81078:	10800204 	addi	r2,r2,8
   8107c:	10800003 	ldbu	r2,0(r2)
   81080:	1007883a 	mov	r3,r2
   81084:	e0bffd17 	ldw	r2,-12(fp)
   81088:	2085883a 	add	r2,r4,r2
   8108c:	10800204 	addi	r2,r2,8
   81090:	10c00005 	stb	r3,0(r2)

		for (counter = 0; counter < 8; counter++)
		{
			record->name[counter] = *((volatile char *)SD_CARD_BUFFER(SD_CARD_0_BASE, offset+counter));
		}        
		for (counter = 0; counter < 3; counter++)
   81094:	e0bffa17 	ldw	r2,-24(fp)
   81098:	10800044 	addi	r2,r2,1
   8109c:	e0bffa15 	stw	r2,-24(fp)
   810a0:	e0bffa17 	ldw	r2,-24(fp)
   810a4:	108000d0 	cmplti	r2,r2,3
   810a8:	103fef1e 	bne	r2,zero,81068 <Read_File_Record_At_Offset+0x98>
		{
			record->extension[counter] = *((volatile char *)SD_CARD_BUFFER(SD_CARD_0_BASE, offset+counter+8));
		}        
		record->attributes          =   *((volatile char *)SD_CARD_BUFFER(SD_CARD_0_BASE, offset+11));
   810ac:	e0bffc17 	ldw	r2,-16(fp)
   810b0:	108002c4 	addi	r2,r2,11
   810b4:	10800003 	ldbu	r2,0(r2)
   810b8:	1007883a 	mov	r3,r2
   810bc:	e0bffd17 	ldw	r2,-12(fp)
   810c0:	10c002c5 	stb	r3,11(r2)
		/* Ignore reserved bytes at locations 12 and 13. */
		record->create_time         =   *((volatile unsigned short int *)SD_CARD_BUFFER(SD_CARD_0_BASE, offset+14));
   810c4:	e0bffc17 	ldw	r2,-16(fp)
   810c8:	10800384 	addi	r2,r2,14
   810cc:	10c0000b 	ldhu	r3,0(r2)
   810d0:	e0bffd17 	ldw	r2,-12(fp)
   810d4:	10c0030d 	sth	r3,12(r2)
		record->create_date         =   *((volatile unsigned short int *)SD_CARD_BUFFER(SD_CARD_0_BASE, offset+16));
   810d8:	e0bffc17 	ldw	r2,-16(fp)
   810dc:	10800404 	addi	r2,r2,16
   810e0:	10c0000b 	ldhu	r3,0(r2)
   810e4:	e0bffd17 	ldw	r2,-12(fp)
   810e8:	10c0038d 	sth	r3,14(r2)
		record->last_access_date    =   *((volatile unsigned short int *)SD_CARD_BUFFER(SD_CARD_0_BASE, offset+18));
   810ec:	e0bffc17 	ldw	r2,-16(fp)
   810f0:	10800484 	addi	r2,r2,18
   810f4:	10c0000b 	ldhu	r3,0(r2)
   810f8:	e0bffd17 	ldw	r2,-12(fp)
   810fc:	10c0040d 	sth	r3,16(r2)
		/* Ignore reserved bytes at locations 20 and 21. */
		record->last_modified_time  =	*((volatile unsigned short int *)SD_CARD_BUFFER(SD_CARD_0_BASE, offset+22));
   81100:	e0bffc17 	ldw	r2,-16(fp)
   81104:	10800584 	addi	r2,r2,22
   81108:	10c0000b 	ldhu	r3,0(r2)
   8110c:	e0bffd17 	ldw	r2,-12(fp)
   81110:	10c0048d 	sth	r3,18(r2)
		record->last_modified_date  =	*((volatile unsigned short int *)SD_CARD_BUFFER(SD_CARD_0_BASE, offset+24));
   81114:	e0bffc17 	ldw	r2,-16(fp)
   81118:	10800604 	addi	r2,r2,24
   8111c:	10c0000b 	ldhu	r3,0(r2)
   81120:	e0bffd17 	ldw	r2,-12(fp)
   81124:	10c0050d 	sth	r3,20(r2)
		record->start_cluster_index =	*((volatile unsigned short int *)SD_CARD_BUFFER(SD_CARD_0_BASE, offset+26));
   81128:	e0bffc17 	ldw	r2,-16(fp)
   8112c:	10800684 	addi	r2,r2,26
   81130:	10c0000b 	ldhu	r3,0(r2)
   81134:	e0bffd17 	ldw	r2,-12(fp)
   81138:	10c0058d 	sth	r3,22(r2)
		record->file_size_in_bytes  =	*((volatile unsigned int *)SD_CARD_BUFFER(SD_CARD_0_BASE, offset+28));
   8113c:	e0bffc17 	ldw	r2,-16(fp)
   81140:	10800704 	addi	r2,r2,28
   81144:	10c00017 	ldw	r3,0(r2)
   81148:	e0bffd17 	ldw	r2,-12(fp)
   8114c:	10c00615 	stw	r3,24(r2)
		record->file_record_cluster = cluster_index;
   81150:	e0fffd17 	ldw	r3,-12(fp)
   81154:	e0bffe17 	ldw	r2,-8(fp)
   81158:	18800a15 	stw	r2,40(r3)
		record->file_record_sector_in_cluster = sector_in_cluster;
   8115c:	e0fffd17 	ldw	r3,-12(fp)
   81160:	e0bfff17 	ldw	r2,-4(fp)
   81164:	18800b15 	stw	r2,44(r3)
		record->file_record_offset = offset;
   81168:	e0bffc17 	ldw	r2,-16(fp)
   8116c:	1007883a 	mov	r3,r2
   81170:	e0bffd17 	ldw	r2,-12(fp)
   81174:	10c00c0d 	sth	r3,48(r2)
		result = true;
   81178:	00800044 	movi	r2,1
   8117c:	e0bffb15 	stw	r2,-20(fp)
	}
	return result;
   81180:	e0bffb17 	ldw	r2,-20(fp)
}
   81184:	e037883a 	mov	sp,fp
   81188:	dfc00117 	ldw	ra,4(sp)
   8118c:	df000017 	ldw	fp,0(sp)
   81190:	dec00204 	addi	sp,sp,8
   81194:	f800283a 	ret

00081198 <Write_File_Record_At_Offset>:


bool Write_File_Record_At_Offset(int offset, t_file_record *record)
// This function writes a file record at a given offset. The offset is given in bytes.
{
   81198:	defff904 	addi	sp,sp,-28
   8119c:	dfc00615 	stw	ra,24(sp)
   811a0:	df000515 	stw	fp,20(sp)
   811a4:	df000504 	addi	fp,sp,20
   811a8:	e13ffe15 	stw	r4,-8(fp)
   811ac:	e17fff15 	stw	r5,-4(fp)
    bool result = false;
   811b0:	e03ffd15 	stw	zero,-12(fp)
    if (((offset & 0x01f) == 0) && (sd_card_is_Present()) && (is_sd_card_formated_as_FAT16))
   811b4:	e0bffe17 	ldw	r2,-8(fp)
   811b8:	108007cc 	andi	r2,r2,31
   811bc:	1004c03a 	cmpne	r2,r2,zero
   811c0:	10006d1e 	bne	r2,zero,81378 <Write_File_Record_At_Offset+0x1e0>
   811c4:	00835c80 	call	835c8 <sd_card_is_Present>
   811c8:	1005003a 	cmpeq	r2,r2,zero
   811cc:	10006a1e 	bne	r2,zero,81378 <Write_File_Record_At_Offset+0x1e0>
   811d0:	d0a6ba17 	ldw	r2,-25880(gp)
   811d4:	1005003a 	cmpeq	r2,r2,zero
   811d8:	1000671e 	bne	r2,zero,81378 <Write_File_Record_At_Offset+0x1e0>
    {
        int counter;

        for (counter = 0; counter < 8; counter=counter+2)
   811dc:	e03ffc15 	stw	zero,-16(fp)
   811e0:	00001b06 	br	81250 <Write_File_Record_At_Offset+0xb8>
        {
            short int two_chars = (short int) record->name[counter+1];
   811e4:	e0bffc17 	ldw	r2,-16(fp)
   811e8:	10c00044 	addi	r3,r2,1
   811ec:	e0bfff17 	ldw	r2,-4(fp)
   811f0:	10c5883a 	add	r2,r2,r3
   811f4:	10800003 	ldbu	r2,0(r2)
   811f8:	10803fcc 	andi	r2,r2,255
   811fc:	e0bffb0d 	sth	r2,-20(fp)
            two_chars = two_chars << 8;
   81200:	e0bffb0f 	ldh	r2,-20(fp)
   81204:	1004923a 	slli	r2,r2,8
   81208:	e0bffb0d 	sth	r2,-20(fp)
            two_chars = two_chars | record->name[counter];
   8120c:	e0fffc17 	ldw	r3,-16(fp)
   81210:	e0bfff17 	ldw	r2,-4(fp)
   81214:	10c5883a 	add	r2,r2,r3
   81218:	10800003 	ldbu	r2,0(r2)
   8121c:	10c03fcc 	andi	r3,r2,255
   81220:	e0bffb0b 	ldhu	r2,-20(fp)
   81224:	10c4b03a 	or	r2,r2,r3
   81228:	e0bffb0d 	sth	r2,-20(fp)
            *((volatile unsigned short int *)SD_CARD_BUFFER(SD_CARD_0_BASE, offset+counter)) = two_chars;
   8122c:	e0fffe17 	ldw	r3,-8(fp)
   81230:	e0bffc17 	ldw	r2,-16(fp)
   81234:	1885883a 	add	r2,r3,r2
   81238:	1007883a 	mov	r3,r2
   8123c:	e0bffb0b 	ldhu	r2,-20(fp)
   81240:	1880000d 	sth	r2,0(r3)
    bool result = false;
    if (((offset & 0x01f) == 0) && (sd_card_is_Present()) && (is_sd_card_formated_as_FAT16))
    {
        int counter;

        for (counter = 0; counter < 8; counter=counter+2)
   81244:	e0bffc17 	ldw	r2,-16(fp)
   81248:	10800084 	addi	r2,r2,2
   8124c:	e0bffc15 	stw	r2,-16(fp)
   81250:	e0bffc17 	ldw	r2,-16(fp)
   81254:	10800210 	cmplti	r2,r2,8
   81258:	103fe21e 	bne	r2,zero,811e4 <Write_File_Record_At_Offset+0x4c>
            short int two_chars = (short int) record->name[counter+1];
            two_chars = two_chars << 8;
            two_chars = two_chars | record->name[counter];
            *((volatile unsigned short int *)SD_CARD_BUFFER(SD_CARD_0_BASE, offset+counter)) = two_chars;
        }        
        for (counter = 0; counter < 3; counter++)
   8125c:	e03ffc15 	stw	zero,-16(fp)
   81260:	00000e06 	br	8129c <Write_File_Record_At_Offset+0x104>
        {
            *((volatile char *)SD_CARD_BUFFER(SD_CARD_0_BASE, offset+counter+8)) = record->extension[counter];
   81264:	e0fffe17 	ldw	r3,-8(fp)
   81268:	e0bffc17 	ldw	r2,-16(fp)
   8126c:	1885883a 	add	r2,r3,r2
   81270:	10800204 	addi	r2,r2,8
   81274:	1009883a 	mov	r4,r2
   81278:	e0fffc17 	ldw	r3,-16(fp)
   8127c:	e0bfff17 	ldw	r2,-4(fp)
   81280:	1885883a 	add	r2,r3,r2
   81284:	10800204 	addi	r2,r2,8
   81288:	10800003 	ldbu	r2,0(r2)
   8128c:	20800005 	stb	r2,0(r4)
            short int two_chars = (short int) record->name[counter+1];
            two_chars = two_chars << 8;
            two_chars = two_chars | record->name[counter];
            *((volatile unsigned short int *)SD_CARD_BUFFER(SD_CARD_0_BASE, offset+counter)) = two_chars;
        }        
        for (counter = 0; counter < 3; counter++)
   81290:	e0bffc17 	ldw	r2,-16(fp)
   81294:	10800044 	addi	r2,r2,1
   81298:	e0bffc15 	stw	r2,-16(fp)
   8129c:	e0bffc17 	ldw	r2,-16(fp)
   812a0:	108000d0 	cmplti	r2,r2,3
   812a4:	103fef1e 	bne	r2,zero,81264 <Write_File_Record_At_Offset+0xcc>
        {
            *((volatile char *)SD_CARD_BUFFER(SD_CARD_0_BASE, offset+counter+8)) = record->extension[counter];
        }        
        *((volatile char *)SD_CARD_BUFFER(SD_CARD_0_BASE, offset+11))  =   record->attributes;
   812a8:	e0bffe17 	ldw	r2,-8(fp)
   812ac:	108002c4 	addi	r2,r2,11
   812b0:	1007883a 	mov	r3,r2
   812b4:	e0bfff17 	ldw	r2,-4(fp)
   812b8:	108002c3 	ldbu	r2,11(r2)
   812bc:	18800005 	stb	r2,0(r3)
        /* Ignore reserved bytes at locations 12 and 13. */
        *((volatile unsigned short int *)SD_CARD_BUFFER(SD_CARD_0_BASE, offset+14)) = record->create_time;
   812c0:	e0bffe17 	ldw	r2,-8(fp)
   812c4:	10800384 	addi	r2,r2,14
   812c8:	1007883a 	mov	r3,r2
   812cc:	e0bfff17 	ldw	r2,-4(fp)
   812d0:	1080030b 	ldhu	r2,12(r2)
   812d4:	1880000d 	sth	r2,0(r3)
        *((volatile unsigned short int *)SD_CARD_BUFFER(SD_CARD_0_BASE, offset+16)) = record->create_date;
   812d8:	e0bffe17 	ldw	r2,-8(fp)
   812dc:	10800404 	addi	r2,r2,16
   812e0:	1007883a 	mov	r3,r2
   812e4:	e0bfff17 	ldw	r2,-4(fp)
   812e8:	1080038b 	ldhu	r2,14(r2)
   812ec:	1880000d 	sth	r2,0(r3)
        *((volatile unsigned short int *)SD_CARD_BUFFER(SD_CARD_0_BASE, offset+18)) = record->last_access_date;
   812f0:	e0bffe17 	ldw	r2,-8(fp)
   812f4:	10800484 	addi	r2,r2,18
   812f8:	1007883a 	mov	r3,r2
   812fc:	e0bfff17 	ldw	r2,-4(fp)
   81300:	1080040b 	ldhu	r2,16(r2)
   81304:	1880000d 	sth	r2,0(r3)
        /* Ignore reserved bytes at locations 20 and 21. */
        *((volatile unsigned short int *)SD_CARD_BUFFER(SD_CARD_0_BASE, offset+22)) = record->last_modified_time;
   81308:	e0bffe17 	ldw	r2,-8(fp)
   8130c:	10800584 	addi	r2,r2,22
   81310:	1007883a 	mov	r3,r2
   81314:	e0bfff17 	ldw	r2,-4(fp)
   81318:	1080048b 	ldhu	r2,18(r2)
   8131c:	1880000d 	sth	r2,0(r3)
        *((volatile unsigned short int *)SD_CARD_BUFFER(SD_CARD_0_BASE, offset+24)) = record->last_modified_date;
   81320:	e0bffe17 	ldw	r2,-8(fp)
   81324:	10800604 	addi	r2,r2,24
   81328:	1007883a 	mov	r3,r2
   8132c:	e0bfff17 	ldw	r2,-4(fp)
   81330:	1080050b 	ldhu	r2,20(r2)
   81334:	1880000d 	sth	r2,0(r3)
        *((volatile unsigned short int *)SD_CARD_BUFFER(SD_CARD_0_BASE, offset+26)) = record->start_cluster_index;
   81338:	e0bffe17 	ldw	r2,-8(fp)
   8133c:	10800684 	addi	r2,r2,26
   81340:	1007883a 	mov	r3,r2
   81344:	e0bfff17 	ldw	r2,-4(fp)
   81348:	1080058b 	ldhu	r2,22(r2)
   8134c:	1880000d 	sth	r2,0(r3)
        *((volatile unsigned int *)SD_CARD_BUFFER(SD_CARD_0_BASE, offset+28)) = record->file_size_in_bytes;
   81350:	e0bffe17 	ldw	r2,-8(fp)
   81354:	10800704 	addi	r2,r2,28
   81358:	1007883a 	mov	r3,r2
   8135c:	e0bfff17 	ldw	r2,-4(fp)
   81360:	10800617 	ldw	r2,24(r2)
   81364:	18800015 	stw	r2,0(r3)
        current_sector_modified = true;                  
   81368:	00800044 	movi	r2,1
   8136c:	d0a6c215 	stw	r2,-25848(gp)
        result = true;
   81370:	00800044 	movi	r2,1
   81374:	e0bffd15 	stw	r2,-12(fp)
    }
    return result;
   81378:	e0bffd17 	ldw	r2,-12(fp)
}
   8137c:	e037883a 	mov	sp,fp
   81380:	dfc00117 	ldw	ra,4(sp)
   81384:	df000017 	ldw	fp,0(sp)
   81388:	dec00204 	addi	sp,sp,8
   8138c:	f800283a 	ret

00081390 <Check_for_DOS_FAT>:
// This function reads the boot sector for the FAT file system on the SD Card.
// The offset_address should point to the sector on the card where the boot sector is located.
// The sector number is specified either in the master Boot Record, or is 0 by default for a purely FAT
// based file system. If the specified sector contains a FAT boot sector, then this function prints the
// relevant information and returns 1. Otherwise, it returns 0. 
{
   81390:	defff904 	addi	sp,sp,-28
   81394:	dfc00615 	stw	ra,24(sp)
   81398:	df000515 	stw	fp,20(sp)
   8139c:	dc000415 	stw	r16,16(sp)
   813a0:	df000404 	addi	fp,sp,16
   813a4:	e13fff15 	stw	r4,-4(fp)
	bool result = false;
   813a8:	e03ffe15 	stw	zero,-8(fp)
	int counter = 0;
   813ac:	e03ffd15 	stw	zero,-12(fp)
	short int end;

	result = Read_Sector_Data(0, FAT_partition_start_sector);
   813b0:	0009883a 	mov	r4,zero
   813b4:	e17fff17 	ldw	r5,-4(fp)
   813b8:	0080c0c0 	call	80c0c <Read_Sector_Data>
   813bc:	e0bffe15 	stw	r2,-8(fp)
	end =  (*((volatile short int *)SD_CARD_BUFFER(SD_CARD_0_BASE, 0x1fe)));
   813c0:	00807f84 	movi	r2,510
   813c4:	1080000b 	ldhu	r2,0(r2)
   813c8:	e0bffc0d 	sth	r2,-16(fp)
	if (((end & 0xffff) == 0xaa55) && (result))
   813cc:	e0bffc0f 	ldh	r2,-16(fp)
   813d0:	10ffffcc 	andi	r3,r2,65535
   813d4:	00aa9554 	movui	r2,43605
   813d8:	18813a1e 	bne	r3,r2,818c4 <Check_for_DOS_FAT+0x534>
   813dc:	e0bffe17 	ldw	r2,-8(fp)
   813e0:	1005003a 	cmpeq	r2,r2,zero
   813e4:	1001371e 	bne	r2,zero,818c4 <Check_for_DOS_FAT+0x534>
	{        
		boot_sector_data.jump_instruction[0] = *((volatile char *)SD_CARD_BUFFER(SD_CARD_0_BASE, 0));
   813e8:	0005883a 	mov	r2,zero
   813ec:	10800003 	ldbu	r2,0(r2)
   813f0:	1007883a 	mov	r3,r2
   813f4:	00800374 	movhi	r2,13
   813f8:	10b82004 	addi	r2,r2,-8064
   813fc:	10c00005 	stb	r3,0(r2)
		boot_sector_data.jump_instruction[1] = *((volatile char *)SD_CARD_BUFFER(SD_CARD_0_BASE, 1));
   81400:	00800044 	movi	r2,1
   81404:	10800003 	ldbu	r2,0(r2)
   81408:	1007883a 	mov	r3,r2
   8140c:	00800374 	movhi	r2,13
   81410:	10b82004 	addi	r2,r2,-8064
   81414:	10c00045 	stb	r3,1(r2)
		boot_sector_data.jump_instruction[2] = *((volatile char *)SD_CARD_BUFFER(SD_CARD_0_BASE, 2));
   81418:	00800084 	movi	r2,2
   8141c:	10800003 	ldbu	r2,0(r2)
   81420:	1007883a 	mov	r3,r2
   81424:	00800374 	movhi	r2,13
   81428:	10b82004 	addi	r2,r2,-8064
   8142c:	10c00085 	stb	r3,2(r2)
		for (counter = 0; counter < 8; counter++)
   81430:	e03ffd15 	stw	zero,-12(fp)
   81434:	00000b06 	br	81464 <Check_for_DOS_FAT+0xd4>
		{
			boot_sector_data.OEM_name[counter] = *((volatile char *)SD_CARD_BUFFER(SD_CARD_0_BASE, 3+counter));
   81438:	e13ffd17 	ldw	r4,-12(fp)
   8143c:	e0bffd17 	ldw	r2,-12(fp)
   81440:	108000c4 	addi	r2,r2,3
   81444:	10c00003 	ldbu	r3,0(r2)
   81448:	00800374 	movhi	r2,13
   8144c:	10b82004 	addi	r2,r2,-8064
   81450:	1105883a 	add	r2,r2,r4
   81454:	10c000c5 	stb	r3,3(r2)
	if (((end & 0xffff) == 0xaa55) && (result))
	{        
		boot_sector_data.jump_instruction[0] = *((volatile char *)SD_CARD_BUFFER(SD_CARD_0_BASE, 0));
		boot_sector_data.jump_instruction[1] = *((volatile char *)SD_CARD_BUFFER(SD_CARD_0_BASE, 1));
		boot_sector_data.jump_instruction[2] = *((volatile char *)SD_CARD_BUFFER(SD_CARD_0_BASE, 2));
		for (counter = 0; counter < 8; counter++)
   81458:	e0bffd17 	ldw	r2,-12(fp)
   8145c:	10800044 	addi	r2,r2,1
   81460:	e0bffd15 	stw	r2,-12(fp)
   81464:	e0bffd17 	ldw	r2,-12(fp)
   81468:	10800210 	cmplti	r2,r2,8
   8146c:	103ff21e 	bne	r2,zero,81438 <Check_for_DOS_FAT+0xa8>
		{
			boot_sector_data.OEM_name[counter] = *((volatile char *)SD_CARD_BUFFER(SD_CARD_0_BASE, 3+counter));
		}
		boot_sector_data.sector_size_in_bytes = (*((volatile unsigned char *)SD_CARD_BUFFER(SD_CARD_0_BASE, 12)) << 8 ) | (*((char *)SD_CARD_BUFFER(SD_CARD_0_BASE, 11)));
   81470:	00800304 	movi	r2,12
   81474:	10800003 	ldbu	r2,0(r2)
   81478:	10803fcc 	andi	r2,r2,255
   8147c:	1004923a 	slli	r2,r2,8
   81480:	1007883a 	mov	r3,r2
   81484:	008002c4 	movi	r2,11
   81488:	10800003 	ldbu	r2,0(r2)
   8148c:	10803fcc 	andi	r2,r2,255
   81490:	1080201c 	xori	r2,r2,128
   81494:	10bfe004 	addi	r2,r2,-128
   81498:	1884b03a 	or	r2,r3,r2
   8149c:	1007883a 	mov	r3,r2
   814a0:	00800374 	movhi	r2,13
   814a4:	10b82004 	addi	r2,r2,-8064
   814a8:	10c0030d 	sth	r3,12(r2)
		boot_sector_data.sectors_per_cluster = *((volatile unsigned char *)SD_CARD_BUFFER(SD_CARD_0_BASE, 13));
   814ac:	00800344 	movi	r2,13
   814b0:	10c00003 	ldbu	r3,0(r2)
   814b4:	00800374 	movhi	r2,13
   814b8:	10b82004 	addi	r2,r2,-8064
   814bc:	10c00385 	stb	r3,14(r2)
		boot_sector_data.reserved_sectors = *((volatile unsigned short int *)SD_CARD_BUFFER(SD_CARD_0_BASE, 14));
   814c0:	00800384 	movi	r2,14
   814c4:	10c0000b 	ldhu	r3,0(r2)
   814c8:	00800374 	movhi	r2,13
   814cc:	10b82004 	addi	r2,r2,-8064
   814d0:	10c0040d 	sth	r3,16(r2)
		boot_sector_data.number_of_FATs = *((volatile unsigned char *)SD_CARD_BUFFER(SD_CARD_0_BASE, 16));
   814d4:	00800404 	movi	r2,16
   814d8:	10c00003 	ldbu	r3,0(r2)
   814dc:	00800374 	movhi	r2,13
   814e0:	10b82004 	addi	r2,r2,-8064
   814e4:	10c00485 	stb	r3,18(r2)
		boot_sector_data.max_number_of_dir_entires = (((unsigned short int)(*((volatile unsigned char *)SD_CARD_BUFFER(SD_CARD_0_BASE, 18)))) << 8 ) | (*((unsigned char *)SD_CARD_BUFFER(SD_CARD_0_BASE, 17)));
   814e8:	00800484 	movi	r2,18
   814ec:	10800003 	ldbu	r2,0(r2)
   814f0:	10803fcc 	andi	r2,r2,255
   814f4:	1004923a 	slli	r2,r2,8
   814f8:	1007883a 	mov	r3,r2
   814fc:	00800444 	movi	r2,17
   81500:	10800003 	ldbu	r2,0(r2)
   81504:	10803fcc 	andi	r2,r2,255
   81508:	1884b03a 	or	r2,r3,r2
   8150c:	1007883a 	mov	r3,r2
   81510:	00800374 	movhi	r2,13
   81514:	10b82004 	addi	r2,r2,-8064
   81518:	10c0050d 	sth	r3,20(r2)
		boot_sector_data.number_of_sectors_in_partition = ((*((volatile unsigned char *)SD_CARD_BUFFER(SD_CARD_0_BASE, 20))) << 8) | (*((unsigned char *)SD_CARD_BUFFER(SD_CARD_0_BASE, 19)));
   8151c:	00800504 	movi	r2,20
   81520:	10800003 	ldbu	r2,0(r2)
   81524:	10803fcc 	andi	r2,r2,255
   81528:	1004923a 	slli	r2,r2,8
   8152c:	1007883a 	mov	r3,r2
   81530:	008004c4 	movi	r2,19
   81534:	10800003 	ldbu	r2,0(r2)
   81538:	10803fcc 	andi	r2,r2,255
   8153c:	1884b03a 	or	r2,r3,r2
   81540:	1007883a 	mov	r3,r2
   81544:	00800374 	movhi	r2,13
   81548:	10b82004 	addi	r2,r2,-8064
   8154c:	10c0058d 	sth	r3,22(r2)
		boot_sector_data.media_descriptor = *((volatile unsigned char *)SD_CARD_BUFFER(SD_CARD_0_BASE, 21));
   81550:	00800544 	movi	r2,21
   81554:	10c00003 	ldbu	r3,0(r2)
   81558:	00800374 	movhi	r2,13
   8155c:	10b82004 	addi	r2,r2,-8064
   81560:	10c00605 	stb	r3,24(r2)
		boot_sector_data.number_of_sectors_per_table = *((volatile unsigned short int *)SD_CARD_BUFFER(SD_CARD_0_BASE, 22));
   81564:	00800584 	movi	r2,22
   81568:	10c0000b 	ldhu	r3,0(r2)
   8156c:	00800374 	movhi	r2,13
   81570:	10b82004 	addi	r2,r2,-8064
   81574:	10c0068d 	sth	r3,26(r2)
		boot_sector_data.number_of_sectors_per_track = *((volatile unsigned short int *)SD_CARD_BUFFER(SD_CARD_0_BASE, 24));
   81578:	00800604 	movi	r2,24
   8157c:	10c0000b 	ldhu	r3,0(r2)
   81580:	00800374 	movhi	r2,13
   81584:	10b82004 	addi	r2,r2,-8064
   81588:	10c0070d 	sth	r3,28(r2)
		boot_sector_data.number_of_heads = *((volatile unsigned short int *)SD_CARD_BUFFER(SD_CARD_0_BASE, 26));
   8158c:	00800684 	movi	r2,26
   81590:	10c0000b 	ldhu	r3,0(r2)
   81594:	00800374 	movhi	r2,13
   81598:	10b82004 	addi	r2,r2,-8064
   8159c:	10c0078d 	sth	r3,30(r2)
		boot_sector_data.number_of_hidden_sectors = *((volatile unsigned int *)SD_CARD_BUFFER(SD_CARD_0_BASE, 28));
   815a0:	00800704 	movi	r2,28
   815a4:	10c00017 	ldw	r3,0(r2)
   815a8:	00800374 	movhi	r2,13
   815ac:	10b82004 	addi	r2,r2,-8064
   815b0:	10c00815 	stw	r3,32(r2)
		boot_sector_data.total_sector_count_if_above_32MB = *((volatile unsigned int *)SD_CARD_BUFFER(SD_CARD_0_BASE, 32));
   815b4:	00800804 	movi	r2,32
   815b8:	10c00017 	ldw	r3,0(r2)
   815bc:	00800374 	movhi	r2,13
   815c0:	10b82004 	addi	r2,r2,-8064
   815c4:	10c00915 	stw	r3,36(r2)
		boot_sector_data.drive_number = *((volatile unsigned char *)SD_CARD_BUFFER(SD_CARD_0_BASE, 36));
   815c8:	00800904 	movi	r2,36
   815cc:	10c00003 	ldbu	r3,0(r2)
   815d0:	00800374 	movhi	r2,13
   815d4:	10b82004 	addi	r2,r2,-8064
   815d8:	10c00a05 	stb	r3,40(r2)
		boot_sector_data.current_head = *((volatile unsigned char *)SD_CARD_BUFFER(SD_CARD_0_BASE, 37));
   815dc:	00800944 	movi	r2,37
   815e0:	10c00003 	ldbu	r3,0(r2)
   815e4:	00800374 	movhi	r2,13
   815e8:	10b82004 	addi	r2,r2,-8064
   815ec:	10c00a45 	stb	r3,41(r2)
		boot_sector_data.boot_signature = *((volatile unsigned char *)SD_CARD_BUFFER(SD_CARD_0_BASE, 38));
   815f0:	00800984 	movi	r2,38
   815f4:	10c00003 	ldbu	r3,0(r2)
   815f8:	00800374 	movhi	r2,13
   815fc:	10b82004 	addi	r2,r2,-8064
   81600:	10c00a85 	stb	r3,42(r2)
		boot_sector_data.first_fat_sector_offset = boot_sector_data.reserved_sectors;
   81604:	00800374 	movhi	r2,13
   81608:	10b82004 	addi	r2,r2,-8064
   8160c:	1080040b 	ldhu	r2,16(r2)
   81610:	10ffffcc 	andi	r3,r2,65535
   81614:	00800374 	movhi	r2,13
   81618:	10b82004 	addi	r2,r2,-8064
   8161c:	10c01115 	stw	r3,68(r2)
		boot_sector_data.second_fat_sector_offset = boot_sector_data.first_fat_sector_offset + boot_sector_data.number_of_sectors_per_table;
   81620:	00800374 	movhi	r2,13
   81624:	10b82004 	addi	r2,r2,-8064
   81628:	10c01117 	ldw	r3,68(r2)
   8162c:	00800374 	movhi	r2,13
   81630:	10b82004 	addi	r2,r2,-8064
   81634:	1080068b 	ldhu	r2,26(r2)
   81638:	10bfffcc 	andi	r2,r2,65535
   8163c:	1887883a 	add	r3,r3,r2
   81640:	00800374 	movhi	r2,13
   81644:	10b82004 	addi	r2,r2,-8064
   81648:	10c01215 	stw	r3,72(r2)
		boot_sector_data.root_directory_sector_offset = boot_sector_data.second_fat_sector_offset + boot_sector_data.number_of_sectors_per_table; 
   8164c:	00800374 	movhi	r2,13
   81650:	10b82004 	addi	r2,r2,-8064
   81654:	10c01217 	ldw	r3,72(r2)
   81658:	00800374 	movhi	r2,13
   8165c:	10b82004 	addi	r2,r2,-8064
   81660:	1080068b 	ldhu	r2,26(r2)
   81664:	10bfffcc 	andi	r2,r2,65535
   81668:	1887883a 	add	r3,r3,r2
   8166c:	00800374 	movhi	r2,13
   81670:	10b82004 	addi	r2,r2,-8064
   81674:	10c01315 	stw	r3,76(r2)
		boot_sector_data.data_sector_offset = boot_sector_data.root_directory_sector_offset + (32*boot_sector_data.max_number_of_dir_entires / boot_sector_data.sector_size_in_bytes);    
   81678:	00800374 	movhi	r2,13
   8167c:	10b82004 	addi	r2,r2,-8064
   81680:	14001317 	ldw	r16,76(r2)
   81684:	00800374 	movhi	r2,13
   81688:	10b82004 	addi	r2,r2,-8064
   8168c:	1080050b 	ldhu	r2,20(r2)
   81690:	10bfffcc 	andi	r2,r2,65535
   81694:	1008917a 	slli	r4,r2,5
   81698:	00800374 	movhi	r2,13
   8169c:	10b82004 	addi	r2,r2,-8064
   816a0:	1080030b 	ldhu	r2,12(r2)
   816a4:	117fffcc 	andi	r5,r2,65535
   816a8:	00858ac0 	call	858ac <__divsi3>
   816ac:	8087883a 	add	r3,r16,r2
   816b0:	00800374 	movhi	r2,13
   816b4:	10b82004 	addi	r2,r2,-8064
   816b8:	10c01415 	stw	r3,80(r2)
		// printf("haha: %d\n", boot_sector_data.first_fat_sector_offset);
		// printf("haha: %d\n", boot_sector_data.second_fat_sector_offset);
		// printf("haha: %d\n", boot_sector_data.root_directory_sector_offset);
		// printf("haha: %d\n", boot_sector_data.data_sector_offset);
		
		if (boot_sector_data.number_of_sectors_in_partition != 0) {
   816bc:	00800374 	movhi	r2,13
   816c0:	10b82004 	addi	r2,r2,-8064
   816c4:	1080058b 	ldhu	r2,22(r2)
   816c8:	10bfffcc 	andi	r2,r2,65535
   816cc:	1005003a 	cmpeq	r2,r2,zero
   816d0:	10001b1e 	bne	r2,zero,81740 <Check_for_DOS_FAT+0x3b0>
			if ((boot_sector_data.number_of_sectors_in_partition / boot_sector_data.sectors_per_cluster) < 4085)
   816d4:	00800374 	movhi	r2,13
   816d8:	10b82004 	addi	r2,r2,-8064
   816dc:	1080058b 	ldhu	r2,22(r2)
   816e0:	113fffcc 	andi	r4,r2,65535
   816e4:	00800374 	movhi	r2,13
   816e8:	10b82004 	addi	r2,r2,-8064
   816ec:	10800383 	ldbu	r2,14(r2)
   816f0:	11403fcc 	andi	r5,r2,255
   816f4:	00858ac0 	call	858ac <__divsi3>
   816f8:	1083fd48 	cmpgei	r2,r2,4085
   816fc:	1000081e 	bne	r2,zero,81720 <Check_for_DOS_FAT+0x390>
			{
				printf("FAT12 found\n");
   81700:	01000274 	movhi	r4,9
   81704:	21083704 	addi	r4,r4,8412
   81708:	0085acc0 	call	85acc <puts>
				boot_sector_data.bits_for_cluster_index = 12;
   8170c:	00c00374 	movhi	r3,13
   81710:	18f82004 	addi	r3,r3,-8064
   81714:	00800304 	movi	r2,12
   81718:	18801085 	stb	r2,66(r3)
   8171c:	00002206 	br	817a8 <Check_for_DOS_FAT+0x418>
			} else {
				printf("FAT16 found\n");
   81720:	01000274 	movhi	r4,9
   81724:	21083a04 	addi	r4,r4,8424
   81728:	0085acc0 	call	85acc <puts>
				boot_sector_data.bits_for_cluster_index = 16;
   8172c:	00c00374 	movhi	r3,13
   81730:	18f82004 	addi	r3,r3,-8064
   81734:	00800404 	movi	r2,16
   81738:	18801085 	stb	r2,66(r3)
   8173c:	00001a06 	br	817a8 <Check_for_DOS_FAT+0x418>
			}
		} else {
			if ((boot_sector_data.total_sector_count_if_above_32MB / boot_sector_data.sectors_per_cluster) >= 65525)
   81740:	00800374 	movhi	r2,13
   81744:	10b82004 	addi	r2,r2,-8064
   81748:	11000917 	ldw	r4,36(r2)
   8174c:	00800374 	movhi	r2,13
   81750:	10b82004 	addi	r2,r2,-8064
   81754:	10800383 	ldbu	r2,14(r2)
   81758:	11403fcc 	andi	r5,r2,255
   8175c:	008596c0 	call	8596c <__udivsi3>
   81760:	1007883a 	mov	r3,r2
   81764:	00bffd14 	movui	r2,65524
   81768:	10c0082e 	bgeu	r2,r3,8178c <Check_for_DOS_FAT+0x3fc>
			{
				printf("FAT32 found\n");
   8176c:	01000274 	movhi	r4,9
   81770:	21083d04 	addi	r4,r4,8436
   81774:	0085acc0 	call	85acc <puts>
				boot_sector_data.bits_for_cluster_index = 32;
   81778:	00c00374 	movhi	r3,13
   8177c:	18f82004 	addi	r3,r3,-8064
   81780:	00800804 	movi	r2,32
   81784:	18801085 	stb	r2,66(r3)
   81788:	00000706 	br	817a8 <Check_for_DOS_FAT+0x418>
			} else {
				printf("FAT16 found\n");
   8178c:	01000274 	movhi	r4,9
   81790:	21083a04 	addi	r4,r4,8424
   81794:	0085acc0 	call	85acc <puts>
				boot_sector_data.bits_for_cluster_index = 16;
   81798:	00c00374 	movhi	r3,13
   8179c:	18f82004 	addi	r3,r3,-8064
   817a0:	00800404 	movi	r2,16
   817a4:	18801085 	stb	r2,66(r3)
			}			
		}
	    
		for (counter = 0; counter < 4; counter++)
   817a8:	e03ffd15 	stw	zero,-12(fp)
   817ac:	00000d06 	br	817e4 <Check_for_DOS_FAT+0x454>
		{
			boot_sector_data.volume_id[counter] = *((volatile char *)SD_CARD_BUFFER(SD_CARD_0_BASE, 39+counter));
   817b0:	e13ffd17 	ldw	r4,-12(fp)
   817b4:	e0bffd17 	ldw	r2,-12(fp)
   817b8:	108009c4 	addi	r2,r2,39
   817bc:	10800003 	ldbu	r2,0(r2)
   817c0:	1007883a 	mov	r3,r2
   817c4:	00800374 	movhi	r2,13
   817c8:	10b82004 	addi	r2,r2,-8064
   817cc:	2085883a 	add	r2,r4,r2
   817d0:	10800a04 	addi	r2,r2,40
   817d4:	10c000c5 	stb	r3,3(r2)
				printf("FAT16 found\n");
				boot_sector_data.bits_for_cluster_index = 16;
			}			
		}
	    
		for (counter = 0; counter < 4; counter++)
   817d8:	e0bffd17 	ldw	r2,-12(fp)
   817dc:	10800044 	addi	r2,r2,1
   817e0:	e0bffd15 	stw	r2,-12(fp)
   817e4:	e0bffd17 	ldw	r2,-12(fp)
   817e8:	10800110 	cmplti	r2,r2,4
   817ec:	103ff01e 	bne	r2,zero,817b0 <Check_for_DOS_FAT+0x420>
		{
			boot_sector_data.volume_id[counter] = *((volatile char *)SD_CARD_BUFFER(SD_CARD_0_BASE, 39+counter));
		}    
		for (counter = 0; counter < 11; counter++)
   817f0:	e03ffd15 	stw	zero,-12(fp)
   817f4:	00000c06 	br	81828 <Check_for_DOS_FAT+0x498>
		{
			boot_sector_data.volume_label[counter] = *((volatile char *)SD_CARD_BUFFER(SD_CARD_0_BASE, 43+counter));
   817f8:	e13ffd17 	ldw	r4,-12(fp)
   817fc:	e0bffd17 	ldw	r2,-12(fp)
   81800:	10800ac4 	addi	r2,r2,43
   81804:	10c00003 	ldbu	r3,0(r2)
   81808:	00800374 	movhi	r2,13
   8180c:	10b82004 	addi	r2,r2,-8064
   81810:	2085883a 	add	r2,r4,r2
   81814:	10800b04 	addi	r2,r2,44
   81818:	10c000c5 	stb	r3,3(r2)
	    
		for (counter = 0; counter < 4; counter++)
		{
			boot_sector_data.volume_id[counter] = *((volatile char *)SD_CARD_BUFFER(SD_CARD_0_BASE, 39+counter));
		}    
		for (counter = 0; counter < 11; counter++)
   8181c:	e0bffd17 	ldw	r2,-12(fp)
   81820:	10800044 	addi	r2,r2,1
   81824:	e0bffd15 	stw	r2,-12(fp)
   81828:	e0bffd17 	ldw	r2,-12(fp)
   8182c:	108002d0 	cmplti	r2,r2,11
   81830:	103ff11e 	bne	r2,zero,817f8 <Check_for_DOS_FAT+0x468>
		{
			boot_sector_data.volume_label[counter] = *((volatile char *)SD_CARD_BUFFER(SD_CARD_0_BASE, 43+counter));
		}    
		for (counter = 0; counter < 8; counter++)
   81834:	e03ffd15 	stw	zero,-12(fp)
   81838:	00000d06 	br	81870 <Check_for_DOS_FAT+0x4e0>
		{
			boot_sector_data.file_system_type[counter] = *((volatile char *)SD_CARD_BUFFER(SD_CARD_0_BASE, 54+counter));
   8183c:	e13ffd17 	ldw	r4,-12(fp)
   81840:	e0bffd17 	ldw	r2,-12(fp)
   81844:	10800d84 	addi	r2,r2,54
   81848:	10800003 	ldbu	r2,0(r2)
   8184c:	1007883a 	mov	r3,r2
   81850:	00800374 	movhi	r2,13
   81854:	10b82004 	addi	r2,r2,-8064
   81858:	2085883a 	add	r2,r4,r2
   8185c:	10800e04 	addi	r2,r2,56
   81860:	10c00085 	stb	r3,2(r2)
		}    
		for (counter = 0; counter < 11; counter++)
		{
			boot_sector_data.volume_label[counter] = *((volatile char *)SD_CARD_BUFFER(SD_CARD_0_BASE, 43+counter));
		}    
		for (counter = 0; counter < 8; counter++)
   81864:	e0bffd17 	ldw	r2,-12(fp)
   81868:	10800044 	addi	r2,r2,1
   8186c:	e0bffd15 	stw	r2,-12(fp)
   81870:	e0bffd17 	ldw	r2,-12(fp)
   81874:	10800210 	cmplti	r2,r2,8
   81878:	103ff01e 	bne	r2,zero,8183c <Check_for_DOS_FAT+0x4ac>
		{
			boot_sector_data.file_system_type[counter] = *((volatile char *)SD_CARD_BUFFER(SD_CARD_0_BASE, 54+counter));
		}    
		// Clear file records
		for (counter = 0; counter < MAX_FILES_OPENED; counter++)
   8187c:	e03ffd15 	stw	zero,-12(fp)
   81880:	00000a06 	br	818ac <Check_for_DOS_FAT+0x51c>
		{
			active_files[counter].in_use = false;
   81884:	e0bffd17 	ldw	r2,-12(fp)
   81888:	00c00374 	movhi	r3,13
   8188c:	18f83504 	addi	r3,r3,-7980
   81890:	100491ba 	slli	r2,r2,6
   81894:	10c5883a 	add	r2,r2,r3
   81898:	10800f04 	addi	r2,r2,60
   8189c:	10000015 	stw	zero,0(r2)
		for (counter = 0; counter < 8; counter++)
		{
			boot_sector_data.file_system_type[counter] = *((volatile char *)SD_CARD_BUFFER(SD_CARD_0_BASE, 54+counter));
		}    
		// Clear file records
		for (counter = 0; counter < MAX_FILES_OPENED; counter++)
   818a0:	e0bffd17 	ldw	r2,-12(fp)
   818a4:	10800044 	addi	r2,r2,1
   818a8:	e0bffd15 	stw	r2,-12(fp)
   818ac:	e0bffd17 	ldw	r2,-12(fp)
   818b0:	10800510 	cmplti	r2,r2,20
   818b4:	103ff31e 	bne	r2,zero,81884 <Check_for_DOS_FAT+0x4f4>
		{
			active_files[counter].in_use = false;
		}
		result = true;
   818b8:	00800044 	movi	r2,1
   818bc:	e0bffe15 	stw	r2,-8(fp)
	int counter = 0;
	short int end;

	result = Read_Sector_Data(0, FAT_partition_start_sector);
	end =  (*((volatile short int *)SD_CARD_BUFFER(SD_CARD_0_BASE, 0x1fe)));
	if (((end & 0xffff) == 0xaa55) && (result))
   818c0:	00000106 	br	818c8 <Check_for_DOS_FAT+0x538>
		}
		result = true;
	}
    else
    {
        result = false;
   818c4:	e03ffe15 	stw	zero,-8(fp)
    }
	return result;
   818c8:	e0bffe17 	ldw	r2,-8(fp)
}
   818cc:	e037883a 	mov	sp,fp
   818d0:	dfc00217 	ldw	ra,8(sp)
   818d4:	df000117 	ldw	fp,4(sp)
   818d8:	dc000017 	ldw	r16,0(sp)
   818dc:	dec00304 	addi	sp,sp,12
   818e0:	f800283a 	ret

000818e4 <Look_for_FAT16>:


bool Look_for_FAT16(void)
// Read the SD card to determine if it contains a FAT16 partition.
{
   818e4:	defffc04 	addi	sp,sp,-16
   818e8:	dfc00315 	stw	ra,12(sp)
   818ec:	df000215 	stw	fp,8(sp)
   818f0:	df000204 	addi	fp,sp,8
	bool result = false;
   818f4:	e03fff15 	stw	zero,-4(fp)

	if (sd_card_is_Present())
   818f8:	00835c80 	call	835c8 <sd_card_is_Present>
   818fc:	1005003a 	cmpeq	r2,r2,zero
   81900:	10003b1e 	bne	r2,zero,819f0 <Look_for_FAT16+0x10c>
	{
		short int csd_file_format = *CSD_register_w0;
   81904:	d0a6bd17 	ldw	r2,-25868(gp)
   81908:	1080000b 	ldhu	r2,0(r2)
   8190c:	e0bffe0d 	sth	r2,-8(fp)
        
		fat_partition_offset_in_512_byte_sectors = 0;
   81910:	d026c015 	stw	zero,-25856(gp)
		fat_partition_size_in_512_byte_sectors = 0;              
   81914:	d026c115 	stw	zero,-25852(gp)

		if (((csd_file_format & 0x8000) == 0) && ((csd_file_format & 0x0c00) != 0x0c00))
   81918:	e0bffe0f 	ldh	r2,-8(fp)
   8191c:	1004803a 	cmplt	r2,r2,zero
   81920:	1000331e 	bne	r2,zero,819f0 <Look_for_FAT16+0x10c>
   81924:	e0bffe0b 	ldhu	r2,-8(fp)
   81928:	10bfffcc 	andi	r2,r2,65535
   8192c:	1083000c 	andi	r2,r2,3072
   81930:	10830020 	cmpeqi	r2,r2,3072
   81934:	10002e1e 	bne	r2,zero,819f0 <Look_for_FAT16+0x10c>
		{
			if ((csd_file_format & 0x0c00) == 0x0400)
   81938:	e0bffe0b 	ldhu	r2,-8(fp)
   8193c:	10bfffcc 	andi	r2,r2,65535
   81940:	1083000c 	andi	r2,r2,3072
   81944:	10810018 	cmpnei	r2,r2,1024
   81948:	1000031e 	bne	r2,zero,81958 <Look_for_FAT16+0x74>
			{
				/* SD Card contains files stored in a DOS FAT (floppy like) file format, without a partition table */
				result = Check_for_DOS_FAT(0);
   8194c:	0009883a 	mov	r4,zero
   81950:	00813900 	call	81390 <Check_for_DOS_FAT>
   81954:	e0bfff15 	stw	r2,-4(fp)
			}
			if ((csd_file_format & 0x0c00) == 0x0000)
   81958:	e0bffe0b 	ldhu	r2,-8(fp)
   8195c:	10bfffcc 	andi	r2,r2,65535
   81960:	1083000c 	andi	r2,r2,3072
   81964:	1004c03a 	cmpne	r2,r2,zero
   81968:	1000061e 	bne	r2,zero,81984 <Look_for_FAT16+0xa0>
			{
				/* SD Card contains files stored in a Hard disk-like file format that contains a partition table */
				if (Check_for_Master_Boot_Record())
   8196c:	0080e780 	call	80e78 <Check_for_Master_Boot_Record>
   81970:	1005003a 	cmpeq	r2,r2,zero
   81974:	1000031e 	bne	r2,zero,81984 <Look_for_FAT16+0xa0>
				{
					result = Check_for_DOS_FAT(fat_partition_offset_in_512_byte_sectors);
   81978:	d126c017 	ldw	r4,-25856(gp)
   8197c:	00813900 	call	81390 <Check_for_DOS_FAT>
   81980:	e0bfff15 	stw	r2,-4(fp)
				}                        
			}
			if (result == true)
   81984:	e0bfff17 	ldw	r2,-4(fp)
   81988:	10800058 	cmpnei	r2,r2,1
   8198c:	1000181e 	bne	r2,zero,819f0 <Look_for_FAT16+0x10c>
			{
				// Accept only FAT16, not FAT12.
				if (boot_sector_data.bits_for_cluster_index == 12)
   81990:	00800374 	movhi	r2,13
   81994:	10b82004 	addi	r2,r2,-8064
   81998:	10801083 	ldbu	r2,66(r2)
   8199c:	10803fcc 	andi	r2,r2,255
   819a0:	10800318 	cmpnei	r2,r2,12
   819a4:	1000021e 	bne	r2,zero,819b0 <Look_for_FAT16+0xcc>
				{
					result = false;
   819a8:	e03fff15 	stw	zero,-4(fp)
   819ac:	00001006 	br	819f0 <Look_for_FAT16+0x10c>
				}
				else
				{
					if (boot_sector_data.number_of_sectors_in_partition != 0)
   819b0:	00800374 	movhi	r2,13
   819b4:	10b82004 	addi	r2,r2,-8064
   819b8:	1080058b 	ldhu	r2,22(r2)
   819bc:	10bfffcc 	andi	r2,r2,65535
   819c0:	1005003a 	cmpeq	r2,r2,zero
   819c4:	1000061e 	bne	r2,zero,819e0 <Look_for_FAT16+0xfc>
						fat_partition_size_in_512_byte_sectors = boot_sector_data.number_of_sectors_in_partition;
   819c8:	00800374 	movhi	r2,13
   819cc:	10b82004 	addi	r2,r2,-8064
   819d0:	1080058b 	ldhu	r2,22(r2)
   819d4:	10bfffcc 	andi	r2,r2,65535
   819d8:	d0a6c115 	stw	r2,-25852(gp)
   819dc:	00000406 	br	819f0 <Look_for_FAT16+0x10c>
					else
						fat_partition_size_in_512_byte_sectors = boot_sector_data.total_sector_count_if_above_32MB;
   819e0:	00800374 	movhi	r2,13
   819e4:	10b82004 	addi	r2,r2,-8064
   819e8:	10800917 	ldw	r2,36(r2)
   819ec:	d0a6c115 	stw	r2,-25852(gp)
				}
			}
		}
	}
	return result;
   819f0:	e0bfff17 	ldw	r2,-4(fp)
}
   819f4:	e037883a 	mov	sp,fp
   819f8:	dfc00117 	ldw	ra,4(sp)
   819fc:	df000017 	ldw	fp,0(sp)
   81a00:	dec00204 	addi	sp,sp,8
   81a04:	f800283a 	ret

00081a08 <filename_to_upper_case>:
 

void filename_to_upper_case(char *file_name)
// Change file name to upper case.
{
   81a08:	defffb04 	addi	sp,sp,-20
   81a0c:	dfc00415 	stw	ra,16(sp)
   81a10:	df000315 	stw	fp,12(sp)
   81a14:	df000304 	addi	fp,sp,12
   81a18:	e13fff15 	stw	r4,-4(fp)
    int index;
    int length = strlen(file_name);
   81a1c:	e13fff17 	ldw	r4,-4(fp)
   81a20:	0085bb40 	call	85bb4 <strlen>
   81a24:	e0bffd15 	stw	r2,-12(fp)
    
    for (index = 0; index < length; index++)
   81a28:	e03ffe15 	stw	zero,-8(fp)
   81a2c:	00002206 	br	81ab8 <filename_to_upper_case+0xb0>
    {
        if ((file_name[index] >= 'a') && (file_name[index] <= 'z'))
   81a30:	e0bffe17 	ldw	r2,-8(fp)
   81a34:	1007883a 	mov	r3,r2
   81a38:	e0bfff17 	ldw	r2,-4(fp)
   81a3c:	1885883a 	add	r2,r3,r2
   81a40:	10800003 	ldbu	r2,0(r2)
   81a44:	10803fcc 	andi	r2,r2,255
   81a48:	1080201c 	xori	r2,r2,128
   81a4c:	10bfe004 	addi	r2,r2,-128
   81a50:	10801850 	cmplti	r2,r2,97
   81a54:	1000151e 	bne	r2,zero,81aac <filename_to_upper_case+0xa4>
   81a58:	e0bffe17 	ldw	r2,-8(fp)
   81a5c:	1007883a 	mov	r3,r2
   81a60:	e0bfff17 	ldw	r2,-4(fp)
   81a64:	1885883a 	add	r2,r3,r2
   81a68:	10800003 	ldbu	r2,0(r2)
   81a6c:	10803fcc 	andi	r2,r2,255
   81a70:	1080201c 	xori	r2,r2,128
   81a74:	10bfe004 	addi	r2,r2,-128
   81a78:	10801ec8 	cmpgei	r2,r2,123
   81a7c:	10000b1e 	bne	r2,zero,81aac <filename_to_upper_case+0xa4>
        {
            file_name[index] = (file_name[index] - 'a') + 'A';
   81a80:	e0bffe17 	ldw	r2,-8(fp)
   81a84:	1007883a 	mov	r3,r2
   81a88:	e0bfff17 	ldw	r2,-4(fp)
   81a8c:	1889883a 	add	r4,r3,r2
   81a90:	e0bffe17 	ldw	r2,-8(fp)
   81a94:	1007883a 	mov	r3,r2
   81a98:	e0bfff17 	ldw	r2,-4(fp)
   81a9c:	1885883a 	add	r2,r3,r2
   81aa0:	10800003 	ldbu	r2,0(r2)
   81aa4:	10bff804 	addi	r2,r2,-32
   81aa8:	20800005 	stb	r2,0(r4)
// Change file name to upper case.
{
    int index;
    int length = strlen(file_name);
    
    for (index = 0; index < length; index++)
   81aac:	e0bffe17 	ldw	r2,-8(fp)
   81ab0:	10800044 	addi	r2,r2,1
   81ab4:	e0bffe15 	stw	r2,-8(fp)
   81ab8:	e0fffe17 	ldw	r3,-8(fp)
   81abc:	e0bffd17 	ldw	r2,-12(fp)
   81ac0:	18bfdb16 	blt	r3,r2,81a30 <filename_to_upper_case+0x28>
        if ((file_name[index] >= 'a') && (file_name[index] <= 'z'))
        {
            file_name[index] = (file_name[index] - 'a') + 'A';
        }
    }
}
   81ac4:	e037883a 	mov	sp,fp
   81ac8:	dfc00117 	ldw	ra,4(sp)
   81acc:	df000017 	ldw	fp,0(sp)
   81ad0:	dec00204 	addi	sp,sp,8
   81ad4:	f800283a 	ret

00081ad8 <check_file_name_for_FAT16_compliance>:


bool check_file_name_for_FAT16_compliance(char *file_name)
// Check if the file complies with FAT16 naming convention.
{
   81ad8:	defff804 	addi	sp,sp,-32
   81adc:	dfc00715 	stw	ra,28(sp)
   81ae0:	df000615 	stw	fp,24(sp)
   81ae4:	df000604 	addi	fp,sp,24
   81ae8:	e13fff15 	stw	r4,-4(fp)
    int length = strlen(file_name);
   81aec:	e13fff17 	ldw	r4,-4(fp)
   81af0:	0085bb40 	call	85bb4 <strlen>
   81af4:	e0bffe15 	stw	r2,-8(fp)
    int index;
    int last_dir_break_position = -1;
   81af8:	00bfffc4 	movi	r2,-1
   81afc:	e0bffc15 	stw	r2,-16(fp)
    int last_period = -1;
   81b00:	00bfffc4 	movi	r2,-1
   81b04:	e0bffb15 	stw	r2,-20(fp)
    bool result = true;
   81b08:	00800044 	movi	r2,1
   81b0c:	e0bffa15 	stw	r2,-24(fp)
    
    for(index = 0; index < length; index++)
   81b10:	e03ffd15 	stw	zero,-12(fp)
   81b14:	00007606 	br	81cf0 <check_file_name_for_FAT16_compliance+0x218>
    {
        if ((file_name[index] == ' ') ||
   81b18:	e0bffd17 	ldw	r2,-12(fp)
   81b1c:	1007883a 	mov	r3,r2
   81b20:	e0bfff17 	ldw	r2,-4(fp)
   81b24:	1885883a 	add	r2,r3,r2
   81b28:	10800003 	ldbu	r2,0(r2)
   81b2c:	10803fcc 	andi	r2,r2,255
   81b30:	1080201c 	xori	r2,r2,128
   81b34:	10bfe004 	addi	r2,r2,-128
   81b38:	10800820 	cmpeqi	r2,r2,32
   81b3c:	1000431e 	bne	r2,zero,81c4c <check_file_name_for_FAT16_compliance+0x174>
   81b40:	e0bffd17 	ldw	r2,-12(fp)
   81b44:	10ffffc4 	addi	r3,r2,-1
   81b48:	e0bffc17 	ldw	r2,-16(fp)
   81b4c:	1880141e 	bne	r3,r2,81ba0 <check_file_name_for_FAT16_compliance+0xc8>
   81b50:	e0bffd17 	ldw	r2,-12(fp)
   81b54:	1007883a 	mov	r3,r2
   81b58:	e0bfff17 	ldw	r2,-4(fp)
   81b5c:	1885883a 	add	r2,r3,r2
   81b60:	10800003 	ldbu	r2,0(r2)
   81b64:	10803fcc 	andi	r2,r2,255
   81b68:	1080201c 	xori	r2,r2,128
   81b6c:	10bfe004 	addi	r2,r2,-128
   81b70:	10801720 	cmpeqi	r2,r2,92
   81b74:	1000351e 	bne	r2,zero,81c4c <check_file_name_for_FAT16_compliance+0x174>
   81b78:	e0bffd17 	ldw	r2,-12(fp)
   81b7c:	1007883a 	mov	r3,r2
   81b80:	e0bfff17 	ldw	r2,-4(fp)
   81b84:	1885883a 	add	r2,r3,r2
   81b88:	10800003 	ldbu	r2,0(r2)
   81b8c:	10803fcc 	andi	r2,r2,255
   81b90:	1080201c 	xori	r2,r2,128
   81b94:	10bfe004 	addi	r2,r2,-128
   81b98:	10800be0 	cmpeqi	r2,r2,47
   81b9c:	10002b1e 	bne	r2,zero,81c4c <check_file_name_for_FAT16_compliance+0x174>
   81ba0:	e0fffd17 	ldw	r3,-12(fp)
   81ba4:	e0bffb17 	ldw	r2,-20(fp)
   81ba8:	1885c83a 	sub	r2,r3,r2
   81bac:	10800258 	cmpnei	r2,r2,9
   81bb0:	10000a1e 	bne	r2,zero,81bdc <check_file_name_for_FAT16_compliance+0x104>
   81bb4:	e0bffd17 	ldw	r2,-12(fp)
   81bb8:	1007883a 	mov	r3,r2
   81bbc:	e0bfff17 	ldw	r2,-4(fp)
   81bc0:	1885883a 	add	r2,r3,r2
   81bc4:	10800003 	ldbu	r2,0(r2)
   81bc8:	10803fcc 	andi	r2,r2,255
   81bcc:	1080201c 	xori	r2,r2,128
   81bd0:	10bfe004 	addi	r2,r2,-128
   81bd4:	10800b98 	cmpnei	r2,r2,46
   81bd8:	10001c1e 	bne	r2,zero,81c4c <check_file_name_for_FAT16_compliance+0x174>
   81bdc:	e0fffc17 	ldw	r3,-16(fp)
   81be0:	e0bffb17 	ldw	r2,-20(fp)
   81be4:	18801b26 	beq	r3,r2,81c54 <check_file_name_for_FAT16_compliance+0x17c>
   81be8:	e0fffd17 	ldw	r3,-12(fp)
   81bec:	e0bffb17 	ldw	r2,-20(fp)
   81bf0:	1885c83a 	sub	r2,r3,r2
   81bf4:	10800110 	cmplti	r2,r2,4
   81bf8:	1000161e 	bne	r2,zero,81c54 <check_file_name_for_FAT16_compliance+0x17c>
   81bfc:	e0bffd17 	ldw	r2,-12(fp)
   81c00:	1007883a 	mov	r3,r2
   81c04:	e0bfff17 	ldw	r2,-4(fp)
   81c08:	1885883a 	add	r2,r3,r2
   81c0c:	10800003 	ldbu	r2,0(r2)
   81c10:	10803fcc 	andi	r2,r2,255
   81c14:	1080201c 	xori	r2,r2,128
   81c18:	10bfe004 	addi	r2,r2,-128
   81c1c:	10801720 	cmpeqi	r2,r2,92
   81c20:	10000c1e 	bne	r2,zero,81c54 <check_file_name_for_FAT16_compliance+0x17c>
   81c24:	e0bffd17 	ldw	r2,-12(fp)
   81c28:	1007883a 	mov	r3,r2
   81c2c:	e0bfff17 	ldw	r2,-4(fp)
   81c30:	1885883a 	add	r2,r3,r2
   81c34:	10800003 	ldbu	r2,0(r2)
   81c38:	10803fcc 	andi	r2,r2,255
   81c3c:	1080201c 	xori	r2,r2,128
   81c40:	10bfe004 	addi	r2,r2,-128
   81c44:	10800be0 	cmpeqi	r2,r2,47
   81c48:	1000021e 	bne	r2,zero,81c54 <check_file_name_for_FAT16_compliance+0x17c>
            ((index - last_period == 9) && (file_name[index] != '.')) ||
            ((last_dir_break_position != last_period) && (index - last_period > 3) &&
             (file_name[index] != '\\') && (file_name[index] != '/'))
           )
        {
            result = false;
   81c4c:	e03ffa15 	stw	zero,-24(fp)
            break;
   81c50:	00002a06 	br	81cfc <check_file_name_for_FAT16_compliance+0x224>
        }
        if ((file_name[index] == '\\') || (file_name[index] == '/'))
   81c54:	e0bffd17 	ldw	r2,-12(fp)
   81c58:	1007883a 	mov	r3,r2
   81c5c:	e0bfff17 	ldw	r2,-4(fp)
   81c60:	1885883a 	add	r2,r3,r2
   81c64:	10800003 	ldbu	r2,0(r2)
   81c68:	10803fcc 	andi	r2,r2,255
   81c6c:	1080201c 	xori	r2,r2,128
   81c70:	10bfe004 	addi	r2,r2,-128
   81c74:	10801720 	cmpeqi	r2,r2,92
   81c78:	10000a1e 	bne	r2,zero,81ca4 <check_file_name_for_FAT16_compliance+0x1cc>
   81c7c:	e0bffd17 	ldw	r2,-12(fp)
   81c80:	1007883a 	mov	r3,r2
   81c84:	e0bfff17 	ldw	r2,-4(fp)
   81c88:	1885883a 	add	r2,r3,r2
   81c8c:	10800003 	ldbu	r2,0(r2)
   81c90:	10803fcc 	andi	r2,r2,255
   81c94:	1080201c 	xori	r2,r2,128
   81c98:	10bfe004 	addi	r2,r2,-128
   81c9c:	10800bd8 	cmpnei	r2,r2,47
   81ca0:	1000041e 	bne	r2,zero,81cb4 <check_file_name_for_FAT16_compliance+0x1dc>
        {
            last_period = index;
   81ca4:	e0bffd17 	ldw	r2,-12(fp)
   81ca8:	e0bffb15 	stw	r2,-20(fp)
            last_dir_break_position = index;
   81cac:	e0bffd17 	ldw	r2,-12(fp)
   81cb0:	e0bffc15 	stw	r2,-16(fp)
        }
        if (file_name[index] == '.')
   81cb4:	e0bffd17 	ldw	r2,-12(fp)
   81cb8:	1007883a 	mov	r3,r2
   81cbc:	e0bfff17 	ldw	r2,-4(fp)
   81cc0:	1885883a 	add	r2,r3,r2
   81cc4:	10800003 	ldbu	r2,0(r2)
   81cc8:	10803fcc 	andi	r2,r2,255
   81ccc:	1080201c 	xori	r2,r2,128
   81cd0:	10bfe004 	addi	r2,r2,-128
   81cd4:	10800b98 	cmpnei	r2,r2,46
   81cd8:	1000021e 	bne	r2,zero,81ce4 <check_file_name_for_FAT16_compliance+0x20c>
        {
            last_period = index;
   81cdc:	e0bffd17 	ldw	r2,-12(fp)
   81ce0:	e0bffb15 	stw	r2,-20(fp)
    int index;
    int last_dir_break_position = -1;
    int last_period = -1;
    bool result = true;
    
    for(index = 0; index < length; index++)
   81ce4:	e0bffd17 	ldw	r2,-12(fp)
   81ce8:	10800044 	addi	r2,r2,1
   81cec:	e0bffd15 	stw	r2,-12(fp)
   81cf0:	e0fffd17 	ldw	r3,-12(fp)
   81cf4:	e0bffe17 	ldw	r2,-8(fp)
   81cf8:	18bf8716 	blt	r3,r2,81b18 <check_file_name_for_FAT16_compliance+0x40>
        if (file_name[index] == '.')
        {
            last_period = index;
        }
    }
    if ((file_name[length-1] == '\\') || (file_name[length-1] == '/'))
   81cfc:	e0fffe17 	ldw	r3,-8(fp)
   81d00:	e0bfff17 	ldw	r2,-4(fp)
   81d04:	1885883a 	add	r2,r3,r2
   81d08:	10bfffc4 	addi	r2,r2,-1
   81d0c:	10800003 	ldbu	r2,0(r2)
   81d10:	10803fcc 	andi	r2,r2,255
   81d14:	1080201c 	xori	r2,r2,128
   81d18:	10bfe004 	addi	r2,r2,-128
   81d1c:	10801720 	cmpeqi	r2,r2,92
   81d20:	10000a1e 	bne	r2,zero,81d4c <check_file_name_for_FAT16_compliance+0x274>
   81d24:	e0fffe17 	ldw	r3,-8(fp)
   81d28:	e0bfff17 	ldw	r2,-4(fp)
   81d2c:	1885883a 	add	r2,r3,r2
   81d30:	10bfffc4 	addi	r2,r2,-1
   81d34:	10800003 	ldbu	r2,0(r2)
   81d38:	10803fcc 	andi	r2,r2,255
   81d3c:	1080201c 	xori	r2,r2,128
   81d40:	10bfe004 	addi	r2,r2,-128
   81d44:	10800bd8 	cmpnei	r2,r2,47
   81d48:	1000011e 	bne	r2,zero,81d50 <check_file_name_for_FAT16_compliance+0x278>
    {
        result = false;
   81d4c:	e03ffa15 	stw	zero,-24(fp)
    }
    return result;
   81d50:	e0bffa17 	ldw	r2,-24(fp)
}
   81d54:	e037883a 	mov	sp,fp
   81d58:	dfc00117 	ldw	ra,4(sp)
   81d5c:	df000017 	ldw	fp,0(sp)
   81d60:	dec00204 	addi	sp,sp,8
   81d64:	f800283a 	ret

00081d68 <get_dir_divider_location>:


int get_dir_divider_location(char *name)
// Find a directory divider location.
{
   81d68:	defffb04 	addi	sp,sp,-20
   81d6c:	dfc00415 	stw	ra,16(sp)
   81d70:	df000315 	stw	fp,12(sp)
   81d74:	df000304 	addi	fp,sp,12
   81d78:	e13fff15 	stw	r4,-4(fp)
    int index = 0;
   81d7c:	e03ffe15 	stw	zero,-8(fp)
    int length = strlen(name);
   81d80:	e13fff17 	ldw	r4,-4(fp)
   81d84:	0085bb40 	call	85bb4 <strlen>
   81d88:	e0bffd15 	stw	r2,-12(fp)
    
    for(index = 0; index < length; index++)
   81d8c:	e03ffe15 	stw	zero,-8(fp)
   81d90:	00001706 	br	81df0 <get_dir_divider_location+0x88>
    {
        if ((name[index] == '\\') || (name[index] == '/'))
   81d94:	e0bffe17 	ldw	r2,-8(fp)
   81d98:	1007883a 	mov	r3,r2
   81d9c:	e0bfff17 	ldw	r2,-4(fp)
   81da0:	1885883a 	add	r2,r3,r2
   81da4:	10800003 	ldbu	r2,0(r2)
   81da8:	10803fcc 	andi	r2,r2,255
   81dac:	1080201c 	xori	r2,r2,128
   81db0:	10bfe004 	addi	r2,r2,-128
   81db4:	10801720 	cmpeqi	r2,r2,92
   81db8:	1000101e 	bne	r2,zero,81dfc <get_dir_divider_location+0x94>
   81dbc:	e0bffe17 	ldw	r2,-8(fp)
   81dc0:	1007883a 	mov	r3,r2
   81dc4:	e0bfff17 	ldw	r2,-4(fp)
   81dc8:	1885883a 	add	r2,r3,r2
   81dcc:	10800003 	ldbu	r2,0(r2)
   81dd0:	10803fcc 	andi	r2,r2,255
   81dd4:	1080201c 	xori	r2,r2,128
   81dd8:	10bfe004 	addi	r2,r2,-128
   81ddc:	10800be0 	cmpeqi	r2,r2,47
   81de0:	1000061e 	bne	r2,zero,81dfc <get_dir_divider_location+0x94>
// Find a directory divider location.
{
    int index = 0;
    int length = strlen(name);
    
    for(index = 0; index < length; index++)
   81de4:	e0bffe17 	ldw	r2,-8(fp)
   81de8:	10800044 	addi	r2,r2,1
   81dec:	e0bffe15 	stw	r2,-8(fp)
   81df0:	e0fffe17 	ldw	r3,-8(fp)
   81df4:	e0bffd17 	ldw	r2,-12(fp)
   81df8:	18bfe616 	blt	r3,r2,81d94 <get_dir_divider_location+0x2c>
        {
            break;
        }
    }
    
    if (index == length)
   81dfc:	e0fffe17 	ldw	r3,-8(fp)
   81e00:	e0bffd17 	ldw	r2,-12(fp)
   81e04:	1880021e 	bne	r3,r2,81e10 <get_dir_divider_location+0xa8>
    {
        index = -1;
   81e08:	00bfffc4 	movi	r2,-1
   81e0c:	e0bffe15 	stw	r2,-8(fp)
    }
    
    return index;
   81e10:	e0bffe17 	ldw	r2,-8(fp)
}
   81e14:	e037883a 	mov	sp,fp
   81e18:	dfc00117 	ldw	ra,4(sp)
   81e1c:	df000017 	ldw	fp,0(sp)
   81e20:	dec00204 	addi	sp,sp,8
   81e24:	f800283a 	ret

00081e28 <match_file_record_to_name_ext>:


bool match_file_record_to_name_ext(t_file_record *file_record, char *name, char *extension)
/* See if the given name and extension match the file record. Return true if this is so, false otherwise. */
{
   81e28:	defff604 	addi	sp,sp,-40
   81e2c:	df000915 	stw	fp,36(sp)
   81e30:	df000904 	addi	fp,sp,36
   81e34:	e13ff915 	stw	r4,-28(fp)
   81e38:	e17ffa15 	stw	r5,-24(fp)
   81e3c:	e1bffb15 	stw	r6,-20(fp)
    bool match = true;
   81e40:	00800044 	movi	r2,1
   81e44:	e0bff815 	stw	r2,-32(fp)
	int index;

    for (index = 0; index < 8; index++)
   81e48:	e03ff715 	stw	zero,-36(fp)
   81e4c:	00005006 	br	81f90 <match_file_record_to_name_ext+0x168>
    {
        if (CHAR_TO_UPPER(file_record->name[index]) != CHAR_TO_UPPER(name[index]))
   81e50:	e0fff717 	ldw	r3,-36(fp)
   81e54:	e0bff917 	ldw	r2,-28(fp)
   81e58:	10c5883a 	add	r2,r2,r3
   81e5c:	10800003 	ldbu	r2,0(r2)
   81e60:	10803fcc 	andi	r2,r2,255
   81e64:	10801870 	cmpltui	r2,r2,97
   81e68:	1000111e 	bne	r2,zero,81eb0 <match_file_record_to_name_ext+0x88>
   81e6c:	e0fff717 	ldw	r3,-36(fp)
   81e70:	e0bff917 	ldw	r2,-28(fp)
   81e74:	10c5883a 	add	r2,r2,r3
   81e78:	10800003 	ldbu	r2,0(r2)
   81e7c:	10803fcc 	andi	r2,r2,255
   81e80:	10801ee8 	cmpgeui	r2,r2,123
   81e84:	10000a1e 	bne	r2,zero,81eb0 <match_file_record_to_name_ext+0x88>
   81e88:	e0fff717 	ldw	r3,-36(fp)
   81e8c:	e0bff917 	ldw	r2,-28(fp)
   81e90:	10c5883a 	add	r2,r2,r3
   81e94:	10800003 	ldbu	r2,0(r2)
   81e98:	10bff804 	addi	r2,r2,-32
   81e9c:	10803fcc 	andi	r2,r2,255
   81ea0:	1080201c 	xori	r2,r2,128
   81ea4:	10bfe004 	addi	r2,r2,-128
   81ea8:	e0bfff15 	stw	r2,-4(fp)
   81eac:	00000806 	br	81ed0 <match_file_record_to_name_ext+0xa8>
   81eb0:	e0fff717 	ldw	r3,-36(fp)
   81eb4:	e0bff917 	ldw	r2,-28(fp)
   81eb8:	10c5883a 	add	r2,r2,r3
   81ebc:	10800003 	ldbu	r2,0(r2)
   81ec0:	10803fcc 	andi	r2,r2,255
   81ec4:	1080201c 	xori	r2,r2,128
   81ec8:	10bfe004 	addi	r2,r2,-128
   81ecc:	e0bfff15 	stw	r2,-4(fp)
   81ed0:	e0bff717 	ldw	r2,-36(fp)
   81ed4:	1007883a 	mov	r3,r2
   81ed8:	e0bffa17 	ldw	r2,-24(fp)
   81edc:	1885883a 	add	r2,r3,r2
   81ee0:	10800003 	ldbu	r2,0(r2)
   81ee4:	10803fcc 	andi	r2,r2,255
   81ee8:	1080201c 	xori	r2,r2,128
   81eec:	10bfe004 	addi	r2,r2,-128
   81ef0:	10801850 	cmplti	r2,r2,97
   81ef4:	1000151e 	bne	r2,zero,81f4c <match_file_record_to_name_ext+0x124>
   81ef8:	e0bff717 	ldw	r2,-36(fp)
   81efc:	1007883a 	mov	r3,r2
   81f00:	e0bffa17 	ldw	r2,-24(fp)
   81f04:	1885883a 	add	r2,r3,r2
   81f08:	10800003 	ldbu	r2,0(r2)
   81f0c:	10803fcc 	andi	r2,r2,255
   81f10:	1080201c 	xori	r2,r2,128
   81f14:	10bfe004 	addi	r2,r2,-128
   81f18:	10801ec8 	cmpgei	r2,r2,123
   81f1c:	10000b1e 	bne	r2,zero,81f4c <match_file_record_to_name_ext+0x124>
   81f20:	e0bff717 	ldw	r2,-36(fp)
   81f24:	1007883a 	mov	r3,r2
   81f28:	e0bffa17 	ldw	r2,-24(fp)
   81f2c:	1885883a 	add	r2,r3,r2
   81f30:	10800003 	ldbu	r2,0(r2)
   81f34:	10bff804 	addi	r2,r2,-32
   81f38:	10803fcc 	andi	r2,r2,255
   81f3c:	1080201c 	xori	r2,r2,128
   81f40:	10bfe004 	addi	r2,r2,-128
   81f44:	e0bffe15 	stw	r2,-8(fp)
   81f48:	00000906 	br	81f70 <match_file_record_to_name_ext+0x148>
   81f4c:	e0bff717 	ldw	r2,-36(fp)
   81f50:	1007883a 	mov	r3,r2
   81f54:	e0bffa17 	ldw	r2,-24(fp)
   81f58:	1885883a 	add	r2,r3,r2
   81f5c:	10800003 	ldbu	r2,0(r2)
   81f60:	10803fcc 	andi	r2,r2,255
   81f64:	1080201c 	xori	r2,r2,128
   81f68:	10bfe004 	addi	r2,r2,-128
   81f6c:	e0bffe15 	stw	r2,-8(fp)
   81f70:	e0bfff17 	ldw	r2,-4(fp)
   81f74:	e0fffe17 	ldw	r3,-8(fp)
   81f78:	10c00226 	beq	r2,r3,81f84 <match_file_record_to_name_ext+0x15c>
        {
            match = false;
   81f7c:	e03ff815 	stw	zero,-32(fp)
			break;
   81f80:	00000606 	br	81f9c <match_file_record_to_name_ext+0x174>
/* See if the given name and extension match the file record. Return true if this is so, false otherwise. */
{
    bool match = true;
	int index;

    for (index = 0; index < 8; index++)
   81f84:	e0bff717 	ldw	r2,-36(fp)
   81f88:	10800044 	addi	r2,r2,1
   81f8c:	e0bff715 	stw	r2,-36(fp)
   81f90:	e0bff717 	ldw	r2,-36(fp)
   81f94:	10800210 	cmplti	r2,r2,8
   81f98:	103fad1e 	bne	r2,zero,81e50 <match_file_record_to_name_ext+0x28>
        {
            match = false;
			break;
        }
    }
    for (index = 0; index < 3; index++)
   81f9c:	e03ff715 	stw	zero,-36(fp)
   81fa0:	00005406 	br	820f4 <match_file_record_to_name_ext+0x2cc>
    {
        if (CHAR_TO_UPPER(file_record->extension[index]) != CHAR_TO_UPPER(extension[index]))
   81fa4:	e0fff717 	ldw	r3,-36(fp)
   81fa8:	e0bff917 	ldw	r2,-28(fp)
   81fac:	1885883a 	add	r2,r3,r2
   81fb0:	10800204 	addi	r2,r2,8
   81fb4:	10800003 	ldbu	r2,0(r2)
   81fb8:	10803fcc 	andi	r2,r2,255
   81fbc:	10801870 	cmpltui	r2,r2,97
   81fc0:	1000131e 	bne	r2,zero,82010 <match_file_record_to_name_ext+0x1e8>
   81fc4:	e0fff717 	ldw	r3,-36(fp)
   81fc8:	e0bff917 	ldw	r2,-28(fp)
   81fcc:	1885883a 	add	r2,r3,r2
   81fd0:	10800204 	addi	r2,r2,8
   81fd4:	10800003 	ldbu	r2,0(r2)
   81fd8:	10803fcc 	andi	r2,r2,255
   81fdc:	10801ee8 	cmpgeui	r2,r2,123
   81fe0:	10000b1e 	bne	r2,zero,82010 <match_file_record_to_name_ext+0x1e8>
   81fe4:	e0fff717 	ldw	r3,-36(fp)
   81fe8:	e0bff917 	ldw	r2,-28(fp)
   81fec:	1885883a 	add	r2,r3,r2
   81ff0:	10800204 	addi	r2,r2,8
   81ff4:	10800003 	ldbu	r2,0(r2)
   81ff8:	10bff804 	addi	r2,r2,-32
   81ffc:	10803fcc 	andi	r2,r2,255
   82000:	1080201c 	xori	r2,r2,128
   82004:	10bfe004 	addi	r2,r2,-128
   82008:	e0bffd15 	stw	r2,-12(fp)
   8200c:	00000906 	br	82034 <match_file_record_to_name_ext+0x20c>
   82010:	e0fff717 	ldw	r3,-36(fp)
   82014:	e0bff917 	ldw	r2,-28(fp)
   82018:	1885883a 	add	r2,r3,r2
   8201c:	10800204 	addi	r2,r2,8
   82020:	10800003 	ldbu	r2,0(r2)
   82024:	10803fcc 	andi	r2,r2,255
   82028:	1080201c 	xori	r2,r2,128
   8202c:	10bfe004 	addi	r2,r2,-128
   82030:	e0bffd15 	stw	r2,-12(fp)
   82034:	e0bff717 	ldw	r2,-36(fp)
   82038:	1007883a 	mov	r3,r2
   8203c:	e0bffb17 	ldw	r2,-20(fp)
   82040:	1885883a 	add	r2,r3,r2
   82044:	10800003 	ldbu	r2,0(r2)
   82048:	10803fcc 	andi	r2,r2,255
   8204c:	1080201c 	xori	r2,r2,128
   82050:	10bfe004 	addi	r2,r2,-128
   82054:	10801850 	cmplti	r2,r2,97
   82058:	1000151e 	bne	r2,zero,820b0 <match_file_record_to_name_ext+0x288>
   8205c:	e0bff717 	ldw	r2,-36(fp)
   82060:	1007883a 	mov	r3,r2
   82064:	e0bffb17 	ldw	r2,-20(fp)
   82068:	1885883a 	add	r2,r3,r2
   8206c:	10800003 	ldbu	r2,0(r2)
   82070:	10803fcc 	andi	r2,r2,255
   82074:	1080201c 	xori	r2,r2,128
   82078:	10bfe004 	addi	r2,r2,-128
   8207c:	10801ec8 	cmpgei	r2,r2,123
   82080:	10000b1e 	bne	r2,zero,820b0 <match_file_record_to_name_ext+0x288>
   82084:	e0bff717 	ldw	r2,-36(fp)
   82088:	1007883a 	mov	r3,r2
   8208c:	e0bffb17 	ldw	r2,-20(fp)
   82090:	1885883a 	add	r2,r3,r2
   82094:	10800003 	ldbu	r2,0(r2)
   82098:	10bff804 	addi	r2,r2,-32
   8209c:	10803fcc 	andi	r2,r2,255
   820a0:	1080201c 	xori	r2,r2,128
   820a4:	10bfe004 	addi	r2,r2,-128
   820a8:	e0bffc15 	stw	r2,-16(fp)
   820ac:	00000906 	br	820d4 <match_file_record_to_name_ext+0x2ac>
   820b0:	e0bff717 	ldw	r2,-36(fp)
   820b4:	1007883a 	mov	r3,r2
   820b8:	e0bffb17 	ldw	r2,-20(fp)
   820bc:	1885883a 	add	r2,r3,r2
   820c0:	10800003 	ldbu	r2,0(r2)
   820c4:	10803fcc 	andi	r2,r2,255
   820c8:	1080201c 	xori	r2,r2,128
   820cc:	10bfe004 	addi	r2,r2,-128
   820d0:	e0bffc15 	stw	r2,-16(fp)
   820d4:	e0bffd17 	ldw	r2,-12(fp)
   820d8:	e0fffc17 	ldw	r3,-16(fp)
   820dc:	10c00226 	beq	r2,r3,820e8 <match_file_record_to_name_ext+0x2c0>
        {
            match = false;
   820e0:	e03ff815 	stw	zero,-32(fp)
			break;
   820e4:	00000606 	br	82100 <match_file_record_to_name_ext+0x2d8>
        {
            match = false;
			break;
        }
    }
    for (index = 0; index < 3; index++)
   820e8:	e0bff717 	ldw	r2,-36(fp)
   820ec:	10800044 	addi	r2,r2,1
   820f0:	e0bff715 	stw	r2,-36(fp)
   820f4:	e0bff717 	ldw	r2,-36(fp)
   820f8:	108000d0 	cmplti	r2,r2,3
   820fc:	103fa91e 	bne	r2,zero,81fa4 <match_file_record_to_name_ext+0x17c>
        {
            match = false;
			break;
        }
    }
	return match;
   82100:	e0bff817 	ldw	r2,-32(fp)
}
   82104:	e037883a 	mov	sp,fp
   82108:	df000017 	ldw	fp,0(sp)
   8210c:	dec00104 	addi	sp,sp,4
   82110:	f800283a 	ret

00082114 <get_home_directory_cluster_for_file>:


bool get_home_directory_cluster_for_file(char *file_name, int *home_directory_cluster, t_file_record *file_record)
// Scan the directories in given in the file name and find the root directory for the file.
{
   82114:	deffe604 	addi	sp,sp,-104
   82118:	dfc01915 	stw	ra,100(sp)
   8211c:	df001815 	stw	fp,96(sp)
   82120:	df001804 	addi	fp,sp,96
   82124:	e13ffc15 	stw	r4,-16(fp)
   82128:	e17ffd15 	stw	r5,-12(fp)
   8212c:	e1bffe15 	stw	r6,-8(fp)
    bool result = false;
   82130:	e03ff715 	stw	zero,-36(fp)
    int home_dir_cluster = 0;
   82134:	e03ff615 	stw	zero,-40(fp)
    int location, index;
    int start_location = 0;
   82138:	e03ff315 	stw	zero,-52(fp)
    
    /* Get Next Directory. */
    location = get_dir_divider_location( file_name );
   8213c:	e13ffc17 	ldw	r4,-16(fp)
   82140:	0081d680 	call	81d68 <get_dir_divider_location>
   82144:	e0bff515 	stw	r2,-44(fp)
    while (location > 0)
   82148:	00012206 	br	825d4 <get_home_directory_cluster_for_file+0x4c0>
    {
        char name[8] = { ' ', ' ', ' ', ' ', ' ', ' ', ' ', ' ' };
   8214c:	00800804 	movi	r2,32
   82150:	e0bff805 	stb	r2,-32(fp)
   82154:	00800804 	movi	r2,32
   82158:	e0bff845 	stb	r2,-31(fp)
   8215c:	00800804 	movi	r2,32
   82160:	e0bff885 	stb	r2,-30(fp)
   82164:	00800804 	movi	r2,32
   82168:	e0bff8c5 	stb	r2,-29(fp)
   8216c:	00800804 	movi	r2,32
   82170:	e0bff905 	stb	r2,-28(fp)
   82174:	00800804 	movi	r2,32
   82178:	e0bff945 	stb	r2,-27(fp)
   8217c:	00800804 	movi	r2,32
   82180:	e0bff985 	stb	r2,-26(fp)
   82184:	00800804 	movi	r2,32
   82188:	e0bff9c5 	stb	r2,-25(fp)
        char extension[3] = { ' ', ' ', ' ' };
   8218c:	00800804 	movi	r2,32
   82190:	e0bffa05 	stb	r2,-24(fp)
   82194:	00800804 	movi	r2,32
   82198:	e0bffa45 	stb	r2,-23(fp)
   8219c:	00800804 	movi	r2,32
   821a0:	e0bffa85 	stb	r2,-22(fp)
        int ext_index = -1;
   821a4:	00bfffc4 	movi	r2,-1
   821a8:	e0bff215 	stw	r2,-56(fp)
        int new_cluster = home_dir_cluster;
   821ac:	e0bff617 	ldw	r2,-40(fp)
   821b0:	e0bff115 	stw	r2,-60(fp)
        
        // Get the name of the directory in name/extension format.
        for (index = 0; index < location; index++)
   821b4:	e03ff415 	stw	zero,-48(fp)
   821b8:	00002e06 	br	82274 <get_home_directory_cluster_for_file+0x160>
        {
            if (file_name[index+start_location] == '.')
   821bc:	e0fff417 	ldw	r3,-48(fp)
   821c0:	e0bff317 	ldw	r2,-52(fp)
   821c4:	1885883a 	add	r2,r3,r2
   821c8:	1007883a 	mov	r3,r2
   821cc:	e0bffc17 	ldw	r2,-16(fp)
   821d0:	1885883a 	add	r2,r3,r2
   821d4:	10800003 	ldbu	r2,0(r2)
   821d8:	10803fcc 	andi	r2,r2,255
   821dc:	1080201c 	xori	r2,r2,128
   821e0:	10bfe004 	addi	r2,r2,-128
   821e4:	10800b98 	cmpnei	r2,r2,46
   821e8:	1000031e 	bne	r2,zero,821f8 <get_home_directory_cluster_for_file+0xe4>
            {
                ext_index = index;
   821ec:	e0bff417 	ldw	r2,-48(fp)
   821f0:	e0bff215 	stw	r2,-56(fp)
   821f4:	00001c06 	br	82268 <get_home_directory_cluster_for_file+0x154>
            }
            else if (ext_index < 0)
   821f8:	e0bff217 	ldw	r2,-56(fp)
   821fc:	1004403a 	cmpge	r2,r2,zero
   82200:	10000c1e 	bne	r2,zero,82234 <get_home_directory_cluster_for_file+0x120>
            {
                name[index] = file_name[index+start_location];
   82204:	e13ff417 	ldw	r4,-48(fp)
   82208:	e0fff417 	ldw	r3,-48(fp)
   8220c:	e0bff317 	ldw	r2,-52(fp)
   82210:	1885883a 	add	r2,r3,r2
   82214:	1007883a 	mov	r3,r2
   82218:	e0bffc17 	ldw	r2,-16(fp)
   8221c:	1885883a 	add	r2,r3,r2
   82220:	10c00003 	ldbu	r3,0(r2)
   82224:	e0bff804 	addi	r2,fp,-32
   82228:	1105883a 	add	r2,r2,r4
   8222c:	10c00005 	stb	r3,0(r2)
   82230:	00000d06 	br	82268 <get_home_directory_cluster_for_file+0x154>
            }
            else
            {
                extension[index-ext_index] = file_name[index+start_location];
   82234:	e0fff417 	ldw	r3,-48(fp)
   82238:	e0bff217 	ldw	r2,-56(fp)
   8223c:	1889c83a 	sub	r4,r3,r2
   82240:	e0fff417 	ldw	r3,-48(fp)
   82244:	e0bff317 	ldw	r2,-52(fp)
   82248:	1885883a 	add	r2,r3,r2
   8224c:	1007883a 	mov	r3,r2
   82250:	e0bffc17 	ldw	r2,-16(fp)
   82254:	1885883a 	add	r2,r3,r2
   82258:	10c00003 	ldbu	r3,0(r2)
   8225c:	e0bffa04 	addi	r2,fp,-24
   82260:	1105883a 	add	r2,r2,r4
   82264:	10c00005 	stb	r3,0(r2)
        char extension[3] = { ' ', ' ', ' ' };
        int ext_index = -1;
        int new_cluster = home_dir_cluster;
        
        // Get the name of the directory in name/extension format.
        for (index = 0; index < location; index++)
   82268:	e0bff417 	ldw	r2,-48(fp)
   8226c:	10800044 	addi	r2,r2,1
   82270:	e0bff415 	stw	r2,-48(fp)
   82274:	e0fff417 	ldw	r3,-48(fp)
   82278:	e0bff517 	ldw	r2,-44(fp)
   8227c:	18bfcf16 	blt	r3,r2,821bc <get_home_directory_cluster_for_file+0xa8>
            {
                extension[index-ext_index] = file_name[index+start_location];
            }
        }
        
        if (home_dir_cluster == 0)
   82280:	e0bff617 	ldw	r2,-40(fp)
   82284:	1004c03a 	cmpne	r2,r2,zero
   82288:	1000551e 	bne	r2,zero,823e0 <get_home_directory_cluster_for_file+0x2cc>
        {
            /* We are in the root directory. Scan the directory (of predefined size) and see if you can find the specified file. */
            int max_root_dir_sectors = ((32*boot_sector_data.max_number_of_dir_entires) / boot_sector_data.sector_size_in_bytes);
   8228c:	00800374 	movhi	r2,13
   82290:	10b82004 	addi	r2,r2,-8064
   82294:	1080050b 	ldhu	r2,20(r2)
   82298:	10bfffcc 	andi	r2,r2,65535
   8229c:	1008917a 	slli	r4,r2,5
   822a0:	00800374 	movhi	r2,13
   822a4:	10b82004 	addi	r2,r2,-8064
   822a8:	1080030b 	ldhu	r2,12(r2)
   822ac:	117fffcc 	andi	r5,r2,65535
   822b0:	00858ac0 	call	858ac <__divsi3>
   822b4:	e0bff015 	stw	r2,-64(fp)
            int sector_index;
            
            for (sector_index = 0; sector_index < max_root_dir_sectors; sector_index++)
   822b8:	e03fef15 	stw	zero,-68(fp)
   822bc:	00003806 	br	823a0 <get_home_directory_cluster_for_file+0x28c>
            {
                if (Read_Sector_Data(sector_index+boot_sector_data.root_directory_sector_offset, fat_partition_offset_in_512_byte_sectors))
   822c0:	00800374 	movhi	r2,13
   822c4:	10b82004 	addi	r2,r2,-8064
   822c8:	10c01317 	ldw	r3,76(r2)
   822cc:	e0bfef17 	ldw	r2,-68(fp)
   822d0:	1885883a 	add	r2,r3,r2
   822d4:	1009883a 	mov	r4,r2
   822d8:	d166c017 	ldw	r5,-25856(gp)
   822dc:	0080c0c0 	call	80c0c <Read_Sector_Data>
   822e0:	1005003a 	cmpeq	r2,r2,zero
   822e4:	1000311e 	bne	r2,zero,823ac <get_home_directory_cluster_for_file+0x298>
                {
                    int file_counter;
                    
                    for (file_counter = 0; file_counter < 16; file_counter++)
   822e8:	e03fee15 	stw	zero,-72(fp)
   822ec:	00002306 	br	8237c <get_home_directory_cluster_for_file+0x268>
                    {
                       
                        // Read file record.
                        Read_File_Record_At_Offset(file_counter*32, file_record, 0, sector_index);
   822f0:	e0bfee17 	ldw	r2,-72(fp)
   822f4:	1008917a 	slli	r4,r2,5
   822f8:	e1ffef17 	ldw	r7,-68(fp)
   822fc:	e17ffe17 	ldw	r5,-8(fp)
   82300:	000d883a 	mov	r6,zero
   82304:	0080fd00 	call	80fd0 <Read_File_Record_At_Offset>
                        if ((file_record->name[0] != 0xe5) && (file_record->name[0] != 0x00))
   82308:	e0bffe17 	ldw	r2,-8(fp)
   8230c:	10800003 	ldbu	r2,0(r2)
   82310:	10803fcc 	andi	r2,r2,255
   82314:	10803960 	cmpeqi	r2,r2,229
   82318:	1000151e 	bne	r2,zero,82370 <get_home_directory_cluster_for_file+0x25c>
   8231c:	e0bffe17 	ldw	r2,-8(fp)
   82320:	10800003 	ldbu	r2,0(r2)
   82324:	10803fcc 	andi	r2,r2,255
   82328:	1005003a 	cmpeq	r2,r2,zero
   8232c:	1000101e 	bne	r2,zero,82370 <get_home_directory_cluster_for_file+0x25c>
                        {
                            bool match = match_file_record_to_name_ext(file_record, name, extension);
   82330:	e17ff804 	addi	r5,fp,-32
   82334:	e1bffa04 	addi	r6,fp,-24
   82338:	e13ffe17 	ldw	r4,-8(fp)
   8233c:	0081e280 	call	81e28 <match_file_record_to_name_ext>
   82340:	e0bfed15 	stw	r2,-76(fp)
                            if (match)
   82344:	e0bfed17 	ldw	r2,-76(fp)
   82348:	1005003a 	cmpeq	r2,r2,zero
   8234c:	1000081e 	bne	r2,zero,82370 <get_home_directory_cluster_for_file+0x25c>
                            {
                                new_cluster = file_record->start_cluster_index;
   82350:	e0bffe17 	ldw	r2,-8(fp)
   82354:	1080058b 	ldhu	r2,22(r2)
   82358:	10bfffcc 	andi	r2,r2,65535
   8235c:	e0bff115 	stw	r2,-60(fp)
                                file_record->file_record_cluster = 1; // Home directory is a subdirectory in the root directory.
   82360:	e0fffe17 	ldw	r3,-8(fp)
   82364:	00800044 	movi	r2,1
   82368:	18800a15 	stw	r2,40(r3)
                                break;
   8236c:	00000606 	br	82388 <get_home_directory_cluster_for_file+0x274>
            {
                if (Read_Sector_Data(sector_index+boot_sector_data.root_directory_sector_offset, fat_partition_offset_in_512_byte_sectors))
                {
                    int file_counter;
                    
                    for (file_counter = 0; file_counter < 16; file_counter++)
   82370:	e0bfee17 	ldw	r2,-72(fp)
   82374:	10800044 	addi	r2,r2,1
   82378:	e0bfee15 	stw	r2,-72(fp)
   8237c:	e0bfee17 	ldw	r2,-72(fp)
   82380:	10800410 	cmplti	r2,r2,16
   82384:	103fda1e 	bne	r2,zero,822f0 <get_home_directory_cluster_for_file+0x1dc>
                }
                else
                {
                    break;
                }
                if (new_cluster != home_dir_cluster)
   82388:	e0fff117 	ldw	r3,-60(fp)
   8238c:	e0bff617 	ldw	r2,-40(fp)
   82390:	1880061e 	bne	r3,r2,823ac <get_home_directory_cluster_for_file+0x298>
        {
            /* We are in the root directory. Scan the directory (of predefined size) and see if you can find the specified file. */
            int max_root_dir_sectors = ((32*boot_sector_data.max_number_of_dir_entires) / boot_sector_data.sector_size_in_bytes);
            int sector_index;
            
            for (sector_index = 0; sector_index < max_root_dir_sectors; sector_index++)
   82394:	e0bfef17 	ldw	r2,-68(fp)
   82398:	10800044 	addi	r2,r2,1
   8239c:	e0bfef15 	stw	r2,-68(fp)
   823a0:	e0ffef17 	ldw	r3,-68(fp)
   823a4:	e0bff017 	ldw	r2,-64(fp)
   823a8:	18bfc516 	blt	r3,r2,822c0 <get_home_directory_cluster_for_file+0x1ac>
                if (new_cluster != home_dir_cluster)
                {
                    break;
                }
            }
            if (new_cluster != home_dir_cluster)
   823ac:	e0fff117 	ldw	r3,-60(fp)
   823b0:	e0bff617 	ldw	r2,-40(fp)
   823b4:	18800826 	beq	r3,r2,823d8 <get_home_directory_cluster_for_file+0x2c4>
            {
                // A valid directory is found, so go to it.
                home_dir_cluster = new_cluster;
   823b8:	e0bff117 	ldw	r2,-60(fp)
   823bc:	e0bff615 	stw	r2,-40(fp)
                start_location = start_location+location+1;
   823c0:	e0fff317 	ldw	r3,-52(fp)
   823c4:	e0bff517 	ldw	r2,-44(fp)
   823c8:	1885883a 	add	r2,r3,r2
   823cc:	10800044 	addi	r2,r2,1
   823d0:	e0bff315 	stw	r2,-52(fp)
   823d4:	00007406 	br	825a8 <get_home_directory_cluster_for_file+0x494>
            }
            else
            {
                // Directory path is invalid. 
                return false;
   823d8:	e03fff15 	stw	zero,-4(fp)
   823dc:	00008c06 	br	82610 <get_home_directory_cluster_for_file+0x4fc>
            }
        } else {
            // This is a subdirectory that can have any number of elements. So scan through it as though it was a file
            // and see if you can find the directory of interest.
            int cluster = home_dir_cluster;
   823e0:	e0bff617 	ldw	r2,-40(fp)
   823e4:	e0bfec15 	stw	r2,-80(fp)
            
            do {
                int start_sector = ( cluster - 2 ) * ( boot_sector_data.sectors_per_cluster ) + boot_sector_data.data_sector_offset;
   823e8:	e0bfec17 	ldw	r2,-80(fp)
   823ec:	113fff84 	addi	r4,r2,-2
   823f0:	00800374 	movhi	r2,13
   823f4:	10b82004 	addi	r2,r2,-8064
   823f8:	10800383 	ldbu	r2,14(r2)
   823fc:	11403fcc 	andi	r5,r2,255
   82400:	008597c0 	call	8597c <__mulsi3>
   82404:	1007883a 	mov	r3,r2
   82408:	00800374 	movhi	r2,13
   8240c:	10b82004 	addi	r2,r2,-8064
   82410:	10801417 	ldw	r2,80(r2)
   82414:	1885883a 	add	r2,r3,r2
   82418:	e0bfeb15 	stw	r2,-84(fp)
                int sector_index;
                
                for (sector_index = 0; sector_index < boot_sector_data.sectors_per_cluster; sector_index++)
   8241c:	e03fea15 	stw	zero,-88(fp)
   82420:	00003206 	br	824ec <get_home_directory_cluster_for_file+0x3d8>
                {
                    if (Read_Sector_Data(sector_index + start_sector, fat_partition_offset_in_512_byte_sectors))
   82424:	e0ffea17 	ldw	r3,-88(fp)
   82428:	e0bfeb17 	ldw	r2,-84(fp)
   8242c:	1889883a 	add	r4,r3,r2
   82430:	d166c017 	ldw	r5,-25856(gp)
   82434:	0080c0c0 	call	80c0c <Read_Sector_Data>
   82438:	1005003a 	cmpeq	r2,r2,zero
   8243c:	1000311e 	bne	r2,zero,82504 <get_home_directory_cluster_for_file+0x3f0>
                    {
                        int file_counter;
                        
                        for (file_counter = 0; file_counter < 16; file_counter++)
   82440:	e03fe915 	stw	zero,-92(fp)
   82444:	00002006 	br	824c8 <get_home_directory_cluster_for_file+0x3b4>
                        {                         
                            // Read file record.
                            Read_File_Record_At_Offset(file_counter*32, file_record, cluster, sector_index);
   82448:	e0bfe917 	ldw	r2,-92(fp)
   8244c:	1008917a 	slli	r4,r2,5
   82450:	e1bfec17 	ldw	r6,-80(fp)
   82454:	e1ffea17 	ldw	r7,-88(fp)
   82458:	e17ffe17 	ldw	r5,-8(fp)
   8245c:	0080fd00 	call	80fd0 <Read_File_Record_At_Offset>
                            if ((file_record->name[0] != 0xe5) && (file_record->name[0] != 0x00))
   82460:	e0bffe17 	ldw	r2,-8(fp)
   82464:	10800003 	ldbu	r2,0(r2)
   82468:	10803fcc 	andi	r2,r2,255
   8246c:	10803960 	cmpeqi	r2,r2,229
   82470:	1000121e 	bne	r2,zero,824bc <get_home_directory_cluster_for_file+0x3a8>
   82474:	e0bffe17 	ldw	r2,-8(fp)
   82478:	10800003 	ldbu	r2,0(r2)
   8247c:	10803fcc 	andi	r2,r2,255
   82480:	1005003a 	cmpeq	r2,r2,zero
   82484:	10000d1e 	bne	r2,zero,824bc <get_home_directory_cluster_for_file+0x3a8>
                            {
								bool match = match_file_record_to_name_ext(file_record, name, extension);
   82488:	e17ff804 	addi	r5,fp,-32
   8248c:	e1bffa04 	addi	r6,fp,-24
   82490:	e13ffe17 	ldw	r4,-8(fp)
   82494:	0081e280 	call	81e28 <match_file_record_to_name_ext>
   82498:	e0bfe815 	stw	r2,-96(fp)
                                if (match)
   8249c:	e0bfe817 	ldw	r2,-96(fp)
   824a0:	1005003a 	cmpeq	r2,r2,zero
   824a4:	1000051e 	bne	r2,zero,824bc <get_home_directory_cluster_for_file+0x3a8>
                                {
                                    new_cluster = file_record->start_cluster_index;                                   
   824a8:	e0bffe17 	ldw	r2,-8(fp)
   824ac:	1080058b 	ldhu	r2,22(r2)
   824b0:	10bfffcc 	andi	r2,r2,65535
   824b4:	e0bff115 	stw	r2,-60(fp)
                                    break;
   824b8:	00000606 	br	824d4 <get_home_directory_cluster_for_file+0x3c0>
                {
                    if (Read_Sector_Data(sector_index + start_sector, fat_partition_offset_in_512_byte_sectors))
                    {
                        int file_counter;
                        
                        for (file_counter = 0; file_counter < 16; file_counter++)
   824bc:	e0bfe917 	ldw	r2,-92(fp)
   824c0:	10800044 	addi	r2,r2,1
   824c4:	e0bfe915 	stw	r2,-92(fp)
   824c8:	e0bfe917 	ldw	r2,-92(fp)
   824cc:	10800410 	cmplti	r2,r2,16
   824d0:	103fdd1e 	bne	r2,zero,82448 <get_home_directory_cluster_for_file+0x334>
                    }
                    else
                    {
                        break;
                    }
                    if (new_cluster != home_dir_cluster)
   824d4:	e0fff117 	ldw	r3,-60(fp)
   824d8:	e0bff617 	ldw	r2,-40(fp)
   824dc:	1880091e 	bne	r3,r2,82504 <get_home_directory_cluster_for_file+0x3f0>
            
            do {
                int start_sector = ( cluster - 2 ) * ( boot_sector_data.sectors_per_cluster ) + boot_sector_data.data_sector_offset;
                int sector_index;
                
                for (sector_index = 0; sector_index < boot_sector_data.sectors_per_cluster; sector_index++)
   824e0:	e0bfea17 	ldw	r2,-88(fp)
   824e4:	10800044 	addi	r2,r2,1
   824e8:	e0bfea15 	stw	r2,-88(fp)
   824ec:	00800374 	movhi	r2,13
   824f0:	10b82004 	addi	r2,r2,-8064
   824f4:	10800383 	ldbu	r2,14(r2)
   824f8:	10c03fcc 	andi	r3,r2,255
   824fc:	e0bfea17 	ldw	r2,-88(fp)
   82500:	10ffc816 	blt	r2,r3,82424 <get_home_directory_cluster_for_file+0x310>
                        break;
                    }
                }
                // If this is the end of the cluster and the directory has not been found, then see if there is another cluster
                // that holds data for the current directory.
                if (new_cluster == home_dir_cluster)
   82504:	e0fff117 	ldw	r3,-60(fp)
   82508:	e0bff617 	ldw	r2,-40(fp)
   8250c:	1880131e 	bne	r3,r2,8255c <get_home_directory_cluster_for_file+0x448>
                {
					unsigned short int next_cluster;

					if (get_cluster_flag(new_cluster, &next_cluster))
   82510:	e13ff117 	ldw	r4,-60(fp)
   82514:	e17ffb04 	addi	r5,fp,-20
   82518:	0080cfc0 	call	80cfc <get_cluster_flag>
   8251c:	1005003a 	cmpeq	r2,r2,zero
   82520:	10000c1e 	bne	r2,zero,82554 <get_home_directory_cluster_for_file+0x440>
					{
						// The directory needs to be expanded to store more files.
						if ((next_cluster & 0x0000fff8) == 0x0000fff8)
   82524:	e0bffb0b 	ldhu	r2,-20(fp)
   82528:	10bfffcc 	andi	r2,r2,65535
   8252c:	10fffe0c 	andi	r3,r2,65528
   82530:	00bffe14 	movui	r2,65528
   82534:	1880021e 	bne	r3,r2,82540 <get_home_directory_cluster_for_file+0x42c>
						{
							return false;
   82538:	e03fff15 	stw	zero,-4(fp)
   8253c:	00003406 	br	82610 <get_home_directory_cluster_for_file+0x4fc>
						}
						new_cluster = (next_cluster & 0x0000fff8);
   82540:	e0bffb0b 	ldhu	r2,-20(fp)
   82544:	10bfffcc 	andi	r2,r2,65535
   82548:	10bffe0c 	andi	r2,r2,65528
   8254c:	e0bff115 	stw	r2,-60(fp)
   82550:	00000206 	br	8255c <get_home_directory_cluster_for_file+0x448>
					}
					else
					{
						// Directory path is invalid.                 
						return false;
   82554:	e03fff15 	stw	zero,-4(fp)
   82558:	00002d06 	br	82610 <get_home_directory_cluster_for_file+0x4fc>
					}
                }              
            } while ((cluster < 0x0000fff8) && (new_cluster == home_dir_cluster));
   8255c:	e0ffec17 	ldw	r3,-80(fp)
   82560:	00bffdd4 	movui	r2,65527
   82564:	10c00316 	blt	r2,r3,82574 <get_home_directory_cluster_for_file+0x460>
   82568:	e0fff117 	ldw	r3,-60(fp)
   8256c:	e0bff617 	ldw	r2,-40(fp)
   82570:	18bf9d26 	beq	r3,r2,823e8 <get_home_directory_cluster_for_file+0x2d4>
            if (new_cluster != home_dir_cluster)
   82574:	e0fff117 	ldw	r3,-60(fp)
   82578:	e0bff617 	ldw	r2,-40(fp)
   8257c:	18800826 	beq	r3,r2,825a0 <get_home_directory_cluster_for_file+0x48c>
            {
                // A valid directory is found, so go to it.
                home_dir_cluster = new_cluster;
   82580:	e0bff117 	ldw	r2,-60(fp)
   82584:	e0bff615 	stw	r2,-40(fp)
                start_location = start_location+location+1;
   82588:	e0fff317 	ldw	r3,-52(fp)
   8258c:	e0bff517 	ldw	r2,-44(fp)
   82590:	1885883a 	add	r2,r3,r2
   82594:	10800044 	addi	r2,r2,1
   82598:	e0bff315 	stw	r2,-52(fp)
   8259c:	00000206 	br	825a8 <get_home_directory_cluster_for_file+0x494>
            }
            else
            {
                // Directory path is invalid. 
                return false;
   825a0:	e03fff15 	stw	zero,-4(fp)
   825a4:	00001a06 	br	82610 <get_home_directory_cluster_for_file+0x4fc>
            }            
        }
        location = get_dir_divider_location(&(file_name[start_location]));
   825a8:	e0bff317 	ldw	r2,-52(fp)
   825ac:	1007883a 	mov	r3,r2
   825b0:	e0bffc17 	ldw	r2,-16(fp)
   825b4:	1889883a 	add	r4,r3,r2
   825b8:	0081d680 	call	81d68 <get_dir_divider_location>
   825bc:	e0bff515 	stw	r2,-44(fp)
        if (location < 0)
   825c0:	e0bff517 	ldw	r2,-44(fp)
   825c4:	1004403a 	cmpge	r2,r2,zero
   825c8:	1000021e 	bne	r2,zero,825d4 <get_home_directory_cluster_for_file+0x4c0>
        {
            // Directory has been located.
            result = true;
   825cc:	00800044 	movi	r2,1
   825d0:	e0bff715 	stw	r2,-36(fp)
    int location, index;
    int start_location = 0;
    
    /* Get Next Directory. */
    location = get_dir_divider_location( file_name );
    while (location > 0)
   825d4:	e0bff517 	ldw	r2,-44(fp)
   825d8:	10800048 	cmpgei	r2,r2,1
   825dc:	103edb1e 	bne	r2,zero,8214c <get_home_directory_cluster_for_file+0x38>
            // Directory has been located.
            result = true;
        }
    }
    
    *home_directory_cluster = home_dir_cluster;
   825e0:	e0fffd17 	ldw	r3,-12(fp)
   825e4:	e0bff617 	ldw	r2,-40(fp)
   825e8:	18800015 	stw	r2,0(r3)
    if (home_dir_cluster == 0)
   825ec:	e0bff617 	ldw	r2,-40(fp)
   825f0:	1004c03a 	cmpne	r2,r2,zero
   825f4:	1000041e 	bne	r2,zero,82608 <get_home_directory_cluster_for_file+0x4f4>
    {
        file_record->file_record_cluster = 0; // Home directory is the root directory.
   825f8:	e0bffe17 	ldw	r2,-8(fp)
   825fc:	10000a15 	stw	zero,40(r2)
		result = true;
   82600:	00800044 	movi	r2,1
   82604:	e0bff715 	stw	r2,-36(fp)
    }
    return result;
   82608:	e0bff717 	ldw	r2,-36(fp)
   8260c:	e0bfff15 	stw	r2,-4(fp)
   82610:	e0bfff17 	ldw	r2,-4(fp)
}
   82614:	e037883a 	mov	sp,fp
   82618:	dfc00117 	ldw	ra,4(sp)
   8261c:	df000017 	ldw	fp,0(sp)
   82620:	dec00204 	addi	sp,sp,8
   82624:	f800283a 	ret

00082628 <find_file_in_directory>:


bool find_file_in_directory(int directory_start_cluster, char *file_name, t_file_record *file_record)
// Given a cluster and a file name, check if the file already exists. Return the file record if the file is found.
{
   82628:	deffe704 	addi	sp,sp,-100
   8262c:	dfc01815 	stw	ra,96(sp)
   82630:	df001715 	stw	fp,92(sp)
   82634:	df001704 	addi	fp,sp,92
   82638:	e13ffc15 	stw	r4,-16(fp)
   8263c:	e17ffd15 	stw	r5,-12(fp)
   82640:	e1bffe15 	stw	r6,-8(fp)
    int location = get_dir_divider_location( file_name );
   82644:	e13ffd17 	ldw	r4,-12(fp)
   82648:	0081d680 	call	81d68 <get_dir_divider_location>
   8264c:	e0bff715 	stw	r2,-36(fp)
    int last_dir_separator = 0;
   82650:	e03ff615 	stw	zero,-40(fp)
    char name[8] = { ' ', ' ', ' ', ' ', ' ', ' ', ' ', ' ' };
   82654:	00800804 	movi	r2,32
   82658:	e0bff805 	stb	r2,-32(fp)
   8265c:	00800804 	movi	r2,32
   82660:	e0bff845 	stb	r2,-31(fp)
   82664:	00800804 	movi	r2,32
   82668:	e0bff885 	stb	r2,-30(fp)
   8266c:	00800804 	movi	r2,32
   82670:	e0bff8c5 	stb	r2,-29(fp)
   82674:	00800804 	movi	r2,32
   82678:	e0bff905 	stb	r2,-28(fp)
   8267c:	00800804 	movi	r2,32
   82680:	e0bff945 	stb	r2,-27(fp)
   82684:	00800804 	movi	r2,32
   82688:	e0bff985 	stb	r2,-26(fp)
   8268c:	00800804 	movi	r2,32
   82690:	e0bff9c5 	stb	r2,-25(fp)
    char extension[3] = { ' ', ' ', ' ' };
   82694:	00800804 	movi	r2,32
   82698:	e0bffa05 	stb	r2,-24(fp)
   8269c:	00800804 	movi	r2,32
   826a0:	e0bffa45 	stb	r2,-23(fp)
   826a4:	00800804 	movi	r2,32
   826a8:	e0bffa85 	stb	r2,-22(fp)
    int ext_index = -1;
   826ac:	00bfffc4 	movi	r2,-1
   826b0:	e0bff515 	stw	r2,-44(fp)
    int cluster = directory_start_cluster;
   826b4:	e0bffc17 	ldw	r2,-16(fp)
   826b8:	e0bff415 	stw	r2,-48(fp)
    int index;
	int length = strlen(file_name);
   826bc:	e13ffd17 	ldw	r4,-12(fp)
   826c0:	0085bb40 	call	85bb4 <strlen>
   826c4:	e0bff215 	stw	r2,-56(fp)
    bool result = false;
   826c8:	e03ff115 	stw	zero,-60(fp)
    
    // Skip through all directory separators.
    while (location > 0)
   826cc:	00000b06 	br	826fc <find_file_in_directory+0xd4>
    {
        last_dir_separator = last_dir_separator+location+1;
   826d0:	e0fff617 	ldw	r3,-40(fp)
   826d4:	e0bff717 	ldw	r2,-36(fp)
   826d8:	1885883a 	add	r2,r3,r2
   826dc:	10800044 	addi	r2,r2,1
   826e0:	e0bff615 	stw	r2,-40(fp)
        location = get_dir_divider_location( &(file_name[last_dir_separator]) );
   826e4:	e0bff617 	ldw	r2,-40(fp)
   826e8:	1007883a 	mov	r3,r2
   826ec:	e0bffd17 	ldw	r2,-12(fp)
   826f0:	1889883a 	add	r4,r3,r2
   826f4:	0081d680 	call	81d68 <get_dir_divider_location>
   826f8:	e0bff715 	stw	r2,-36(fp)
    int index;
	int length = strlen(file_name);
    bool result = false;
    
    // Skip through all directory separators.
    while (location > 0)
   826fc:	e0bff717 	ldw	r2,-36(fp)
   82700:	10800048 	cmpgei	r2,r2,1
   82704:	103ff21e 	bne	r2,zero,826d0 <find_file_in_directory+0xa8>
        last_dir_separator = last_dir_separator+location+1;
        location = get_dir_divider_location( &(file_name[last_dir_separator]) );
    }
        
    // Get the name of the file in name/extension format.
    for (index = last_dir_separator; index < length; index++)
   82708:	e0bff617 	ldw	r2,-40(fp)
   8270c:	e0bff315 	stw	r2,-52(fp)
   82710:	00002b06 	br	827c0 <find_file_in_directory+0x198>
    {
        if (file_name[index] == '.')
   82714:	e0bff317 	ldw	r2,-52(fp)
   82718:	1007883a 	mov	r3,r2
   8271c:	e0bffd17 	ldw	r2,-12(fp)
   82720:	1885883a 	add	r2,r3,r2
   82724:	10800003 	ldbu	r2,0(r2)
   82728:	10803fcc 	andi	r2,r2,255
   8272c:	1080201c 	xori	r2,r2,128
   82730:	10bfe004 	addi	r2,r2,-128
   82734:	10800b98 	cmpnei	r2,r2,46
   82738:	1000031e 	bne	r2,zero,82748 <find_file_in_directory+0x120>
        {
            ext_index = index;
   8273c:	e0bff317 	ldw	r2,-52(fp)
   82740:	e0bff515 	stw	r2,-44(fp)
   82744:	00001b06 	br	827b4 <find_file_in_directory+0x18c>
        }
        else if (ext_index < 0)
   82748:	e0bff517 	ldw	r2,-44(fp)
   8274c:	1004403a 	cmpge	r2,r2,zero
   82750:	10000c1e 	bne	r2,zero,82784 <find_file_in_directory+0x15c>
        {
            name[index-last_dir_separator] = file_name[index];
   82754:	e0fff317 	ldw	r3,-52(fp)
   82758:	e0bff617 	ldw	r2,-40(fp)
   8275c:	1889c83a 	sub	r4,r3,r2
   82760:	e0bff317 	ldw	r2,-52(fp)
   82764:	1007883a 	mov	r3,r2
   82768:	e0bffd17 	ldw	r2,-12(fp)
   8276c:	1885883a 	add	r2,r3,r2
   82770:	10c00003 	ldbu	r3,0(r2)
   82774:	e0bff804 	addi	r2,fp,-32
   82778:	1105883a 	add	r2,r2,r4
   8277c:	10c00005 	stb	r3,0(r2)
   82780:	00000c06 	br	827b4 <find_file_in_directory+0x18c>
        }
        else
        {
            extension[index-ext_index-1] = file_name[index];
   82784:	e0fff317 	ldw	r3,-52(fp)
   82788:	e0bff517 	ldw	r2,-44(fp)
   8278c:	1885c83a 	sub	r2,r3,r2
   82790:	113fffc4 	addi	r4,r2,-1
   82794:	e0bff317 	ldw	r2,-52(fp)
   82798:	1007883a 	mov	r3,r2
   8279c:	e0bffd17 	ldw	r2,-12(fp)
   827a0:	1885883a 	add	r2,r3,r2
   827a4:	10c00003 	ldbu	r3,0(r2)
   827a8:	e0bffa04 	addi	r2,fp,-24
   827ac:	1105883a 	add	r2,r2,r4
   827b0:	10c00005 	stb	r3,0(r2)
        last_dir_separator = last_dir_separator+location+1;
        location = get_dir_divider_location( &(file_name[last_dir_separator]) );
    }
        
    // Get the name of the file in name/extension format.
    for (index = last_dir_separator; index < length; index++)
   827b4:	e0bff317 	ldw	r2,-52(fp)
   827b8:	10800044 	addi	r2,r2,1
   827bc:	e0bff315 	stw	r2,-52(fp)
   827c0:	e0fff317 	ldw	r3,-52(fp)
   827c4:	e0bff217 	ldw	r2,-56(fp)
   827c8:	18bfd216 	blt	r3,r2,82714 <find_file_in_directory+0xec>
            extension[index-ext_index-1] = file_name[index];
        }
    }

    // Look for the file.
    if (directory_start_cluster == 0)
   827cc:	e0bffc17 	ldw	r2,-16(fp)
   827d0:	1004c03a 	cmpne	r2,r2,zero
   827d4:	1000441e 	bne	r2,zero,828e8 <find_file_in_directory+0x2c0>
    {
        /* We are in the root directory. Scan the directory (of predefined size) and see if you can find the specified file. */
        int max_root_dir_sectors = ((32*boot_sector_data.max_number_of_dir_entires) / boot_sector_data.sector_size_in_bytes);
   827d8:	00800374 	movhi	r2,13
   827dc:	10b82004 	addi	r2,r2,-8064
   827e0:	1080050b 	ldhu	r2,20(r2)
   827e4:	10bfffcc 	andi	r2,r2,65535
   827e8:	1008917a 	slli	r4,r2,5
   827ec:	00800374 	movhi	r2,13
   827f0:	10b82004 	addi	r2,r2,-8064
   827f4:	1080030b 	ldhu	r2,12(r2)
   827f8:	117fffcc 	andi	r5,r2,65535
   827fc:	00858ac0 	call	858ac <__divsi3>
   82800:	e0bff015 	stw	r2,-64(fp)
        int sector_index;
        
        for (sector_index = 0; sector_index < max_root_dir_sectors; sector_index++)
   82804:	e03fef15 	stw	zero,-68(fp)
   82808:	00003306 	br	828d8 <find_file_in_directory+0x2b0>
        {
            if (Read_Sector_Data(   sector_index + boot_sector_data.root_directory_sector_offset,
   8280c:	00800374 	movhi	r2,13
   82810:	10b82004 	addi	r2,r2,-8064
   82814:	10c01317 	ldw	r3,76(r2)
   82818:	e0bfef17 	ldw	r2,-68(fp)
   8281c:	1885883a 	add	r2,r3,r2
   82820:	1009883a 	mov	r4,r2
   82824:	d166c017 	ldw	r5,-25856(gp)
   82828:	0080c0c0 	call	80c0c <Read_Sector_Data>
   8282c:	1005003a 	cmpeq	r2,r2,zero
   82830:	10008e1e 	bne	r2,zero,82a6c <find_file_in_directory+0x444>
                                    fat_partition_offset_in_512_byte_sectors))
            {
                int file_counter;
                
                for (file_counter = 0; file_counter < 16; file_counter++)
   82834:	e03fee15 	stw	zero,-72(fp)
   82838:	00001e06 	br	828b4 <find_file_in_directory+0x28c>
                {
                    // Read file record.
                    Read_File_Record_At_Offset(file_counter*32, file_record, 0, sector_index);
   8283c:	e0bfee17 	ldw	r2,-72(fp)
   82840:	1008917a 	slli	r4,r2,5
   82844:	e1ffef17 	ldw	r7,-68(fp)
   82848:	e17ffe17 	ldw	r5,-8(fp)
   8284c:	000d883a 	mov	r6,zero
   82850:	0080fd00 	call	80fd0 <Read_File_Record_At_Offset>
                    if ((file_record->name[0] != 0xe5) && (file_record->name[0] != 0x00))
   82854:	e0bffe17 	ldw	r2,-8(fp)
   82858:	10800003 	ldbu	r2,0(r2)
   8285c:	10803fcc 	andi	r2,r2,255
   82860:	10803960 	cmpeqi	r2,r2,229
   82864:	1000101e 	bne	r2,zero,828a8 <find_file_in_directory+0x280>
   82868:	e0bffe17 	ldw	r2,-8(fp)
   8286c:	10800003 	ldbu	r2,0(r2)
   82870:	10803fcc 	andi	r2,r2,255
   82874:	1005003a 	cmpeq	r2,r2,zero
   82878:	10000b1e 	bne	r2,zero,828a8 <find_file_in_directory+0x280>
                    {
                        bool match = match_file_record_to_name_ext(file_record, name, extension);
   8287c:	e17ff804 	addi	r5,fp,-32
   82880:	e1bffa04 	addi	r6,fp,-24
   82884:	e13ffe17 	ldw	r4,-8(fp)
   82888:	0081e280 	call	81e28 <match_file_record_to_name_ext>
   8288c:	e0bfed15 	stw	r2,-76(fp)

                        if (match)
   82890:	e0bfed17 	ldw	r2,-76(fp)
   82894:	1005003a 	cmpeq	r2,r2,zero
   82898:	1000031e 	bne	r2,zero,828a8 <find_file_in_directory+0x280>
                        {
                            result = true;
   8289c:	00800044 	movi	r2,1
   828a0:	e0bff115 	stw	r2,-60(fp)
                            break;
   828a4:	00000606 	br	828c0 <find_file_in_directory+0x298>
            if (Read_Sector_Data(   sector_index + boot_sector_data.root_directory_sector_offset,
                                    fat_partition_offset_in_512_byte_sectors))
            {
                int file_counter;
                
                for (file_counter = 0; file_counter < 16; file_counter++)
   828a8:	e0bfee17 	ldw	r2,-72(fp)
   828ac:	10800044 	addi	r2,r2,1
   828b0:	e0bfee15 	stw	r2,-72(fp)
   828b4:	e0bfee17 	ldw	r2,-72(fp)
   828b8:	10800410 	cmplti	r2,r2,16
   828bc:	103fdf1e 	bne	r2,zero,8283c <find_file_in_directory+0x214>
            }
            else
            {
                break;
            }
            if (result)
   828c0:	e0bff117 	ldw	r2,-60(fp)
   828c4:	1004c03a 	cmpne	r2,r2,zero
   828c8:	1000681e 	bne	r2,zero,82a6c <find_file_in_directory+0x444>
    {
        /* We are in the root directory. Scan the directory (of predefined size) and see if you can find the specified file. */
        int max_root_dir_sectors = ((32*boot_sector_data.max_number_of_dir_entires) / boot_sector_data.sector_size_in_bytes);
        int sector_index;
        
        for (sector_index = 0; sector_index < max_root_dir_sectors; sector_index++)
   828cc:	e0bfef17 	ldw	r2,-68(fp)
   828d0:	10800044 	addi	r2,r2,1
   828d4:	e0bfef15 	stw	r2,-68(fp)
   828d8:	e0ffef17 	ldw	r3,-68(fp)
   828dc:	e0bff017 	ldw	r2,-64(fp)
   828e0:	18bfca16 	blt	r3,r2,8280c <find_file_in_directory+0x1e4>
   828e4:	00006106 	br	82a6c <find_file_in_directory+0x444>
        }
    }
    else
    {          
        do {
            int start_sector = ( cluster - 2 ) * ( boot_sector_data.sectors_per_cluster ) + boot_sector_data.data_sector_offset;
   828e8:	e0bff417 	ldw	r2,-48(fp)
   828ec:	113fff84 	addi	r4,r2,-2
   828f0:	00800374 	movhi	r2,13
   828f4:	10b82004 	addi	r2,r2,-8064
   828f8:	10800383 	ldbu	r2,14(r2)
   828fc:	11403fcc 	andi	r5,r2,255
   82900:	008597c0 	call	8597c <__mulsi3>
   82904:	1007883a 	mov	r3,r2
   82908:	00800374 	movhi	r2,13
   8290c:	10b82004 	addi	r2,r2,-8064
   82910:	10801417 	ldw	r2,80(r2)
   82914:	1885883a 	add	r2,r3,r2
   82918:	e0bfec15 	stw	r2,-80(fp)
            int sector_index;
            
            for (sector_index = 0; sector_index < boot_sector_data.sectors_per_cluster; sector_index++)
   8291c:	e03feb15 	stw	zero,-84(fp)
   82920:	00003006 	br	829e4 <find_file_in_directory+0x3bc>
            {
                if (Read_Sector_Data(sector_index + start_sector, fat_partition_offset_in_512_byte_sectors))
   82924:	e0ffeb17 	ldw	r3,-84(fp)
   82928:	e0bfec17 	ldw	r2,-80(fp)
   8292c:	1889883a 	add	r4,r3,r2
   82930:	d166c017 	ldw	r5,-25856(gp)
   82934:	0080c0c0 	call	80c0c <Read_Sector_Data>
   82938:	1005003a 	cmpeq	r2,r2,zero
   8293c:	10002f1e 	bne	r2,zero,829fc <find_file_in_directory+0x3d4>
                {
                    int file_counter;
                    
                    for (file_counter = 0; file_counter < 16; file_counter++)
   82940:	e03fea15 	stw	zero,-88(fp)
   82944:	00001e06 	br	829c0 <find_file_in_directory+0x398>
                    {
                        // Read file record.
                        Read_File_Record_At_Offset(file_counter*32, file_record, cluster, sector_index);
   82948:	e0bfea17 	ldw	r2,-88(fp)
   8294c:	1008917a 	slli	r4,r2,5
   82950:	e1bff417 	ldw	r6,-48(fp)
   82954:	e1ffeb17 	ldw	r7,-84(fp)
   82958:	e17ffe17 	ldw	r5,-8(fp)
   8295c:	0080fd00 	call	80fd0 <Read_File_Record_At_Offset>
                        if ((file_record->name[0] != 0xe5) && (file_record->name[0] != 0x00))
   82960:	e0bffe17 	ldw	r2,-8(fp)
   82964:	10800003 	ldbu	r2,0(r2)
   82968:	10803fcc 	andi	r2,r2,255
   8296c:	10803960 	cmpeqi	r2,r2,229
   82970:	1000101e 	bne	r2,zero,829b4 <find_file_in_directory+0x38c>
   82974:	e0bffe17 	ldw	r2,-8(fp)
   82978:	10800003 	ldbu	r2,0(r2)
   8297c:	10803fcc 	andi	r2,r2,255
   82980:	1005003a 	cmpeq	r2,r2,zero
   82984:	10000b1e 	bne	r2,zero,829b4 <find_file_in_directory+0x38c>
                        {
                            bool match = match_file_record_to_name_ext(file_record, name, extension);
   82988:	e17ff804 	addi	r5,fp,-32
   8298c:	e1bffa04 	addi	r6,fp,-24
   82990:	e13ffe17 	ldw	r4,-8(fp)
   82994:	0081e280 	call	81e28 <match_file_record_to_name_ext>
   82998:	e0bfe915 	stw	r2,-92(fp)

                            if (match)
   8299c:	e0bfe917 	ldw	r2,-92(fp)
   829a0:	1005003a 	cmpeq	r2,r2,zero
   829a4:	1000031e 	bne	r2,zero,829b4 <find_file_in_directory+0x38c>
                            {                               
                                result = true;
   829a8:	00800044 	movi	r2,1
   829ac:	e0bff115 	stw	r2,-60(fp)
                                break;
   829b0:	00000606 	br	829cc <find_file_in_directory+0x3a4>
            {
                if (Read_Sector_Data(sector_index + start_sector, fat_partition_offset_in_512_byte_sectors))
                {
                    int file_counter;
                    
                    for (file_counter = 0; file_counter < 16; file_counter++)
   829b4:	e0bfea17 	ldw	r2,-88(fp)
   829b8:	10800044 	addi	r2,r2,1
   829bc:	e0bfea15 	stw	r2,-88(fp)
   829c0:	e0bfea17 	ldw	r2,-88(fp)
   829c4:	10800410 	cmplti	r2,r2,16
   829c8:	103fdf1e 	bne	r2,zero,82948 <find_file_in_directory+0x320>
                }
                else
                {
                    break;
                }
                if (result)
   829cc:	e0bff117 	ldw	r2,-60(fp)
   829d0:	1004c03a 	cmpne	r2,r2,zero
   829d4:	1000091e 	bne	r2,zero,829fc <find_file_in_directory+0x3d4>
    {          
        do {
            int start_sector = ( cluster - 2 ) * ( boot_sector_data.sectors_per_cluster ) + boot_sector_data.data_sector_offset;
            int sector_index;
            
            for (sector_index = 0; sector_index < boot_sector_data.sectors_per_cluster; sector_index++)
   829d8:	e0bfeb17 	ldw	r2,-84(fp)
   829dc:	10800044 	addi	r2,r2,1
   829e0:	e0bfeb15 	stw	r2,-84(fp)
   829e4:	00800374 	movhi	r2,13
   829e8:	10b82004 	addi	r2,r2,-8064
   829ec:	10800383 	ldbu	r2,14(r2)
   829f0:	10c03fcc 	andi	r3,r2,255
   829f4:	e0bfeb17 	ldw	r2,-84(fp)
   829f8:	10ffca16 	blt	r2,r3,82924 <find_file_in_directory+0x2fc>
                    break;
                }
            }
            // If this is the end of the cluster and the file has not been found, then see if there is another cluster
            // that holds data for the current directory.
            if (result == false)
   829fc:	e0bff117 	ldw	r2,-60(fp)
   82a00:	1004c03a 	cmpne	r2,r2,zero
   82a04:	1000131e 	bne	r2,zero,82a54 <find_file_in_directory+0x42c>
            {
				unsigned short int new_cluster;

				if (get_cluster_flag(cluster, &new_cluster))
   82a08:	e13ff417 	ldw	r4,-48(fp)
   82a0c:	e17ffb04 	addi	r5,fp,-20
   82a10:	0080cfc0 	call	80cfc <get_cluster_flag>
   82a14:	1005003a 	cmpeq	r2,r2,zero
   82a18:	10000c1e 	bne	r2,zero,82a4c <find_file_in_directory+0x424>
				{
					// The directory needs to be expanded to store more files.
					if ((new_cluster & 0x0000fff8) == 0x0000fff8)
   82a1c:	e0bffb0b 	ldhu	r2,-20(fp)
   82a20:	10bfffcc 	andi	r2,r2,65535
   82a24:	10fffe0c 	andi	r3,r2,65528
   82a28:	00bffe14 	movui	r2,65528
   82a2c:	1880021e 	bne	r3,r2,82a38 <find_file_in_directory+0x410>
					{
						return false;
   82a30:	e03fff15 	stw	zero,-4(fp)
   82a34:	00000f06 	br	82a74 <find_file_in_directory+0x44c>
					}
					cluster = (new_cluster & 0x0000fff8);
   82a38:	e0bffb0b 	ldhu	r2,-20(fp)
   82a3c:	10bfffcc 	andi	r2,r2,65535
   82a40:	10bffe0c 	andi	r2,r2,65528
   82a44:	e0bff415 	stw	r2,-48(fp)
   82a48:	00000206 	br	82a54 <find_file_in_directory+0x42c>
				}
				else
                {
                    // Directory path is invalid.                 
                    return false;
   82a4c:	e03fff15 	stw	zero,-4(fp)
   82a50:	00000806 	br	82a74 <find_file_in_directory+0x44c>
                }
            }              
        } while ((cluster < 0x0000fff8) && (result == false));
   82a54:	e0fff417 	ldw	r3,-48(fp)
   82a58:	00bffdd4 	movui	r2,65527
   82a5c:	10c00316 	blt	r2,r3,82a6c <find_file_in_directory+0x444>
   82a60:	e0bff117 	ldw	r2,-60(fp)
   82a64:	1005003a 	cmpeq	r2,r2,zero
   82a68:	103f9f1e 	bne	r2,zero,828e8 <find_file_in_directory+0x2c0>
    }
    
    return result;   
   82a6c:	e0bff117 	ldw	r2,-60(fp)
   82a70:	e0bfff15 	stw	r2,-4(fp)
   82a74:	e0bfff17 	ldw	r2,-4(fp)
}
   82a78:	e037883a 	mov	sp,fp
   82a7c:	dfc00117 	ldw	ra,4(sp)
   82a80:	df000017 	ldw	fp,0(sp)
   82a84:	dec00204 	addi	sp,sp,8
   82a88:	f800283a 	ret

00082a8c <find_first_empty_cluster>:


bool find_first_empty_cluster(unsigned int *cluster_number)
// Find the first empty cluster. It will be marked by a 0 entry in the File Allocation Table.
{
   82a8c:	defff504 	addi	sp,sp,-44
   82a90:	dfc00a15 	stw	ra,40(sp)
   82a94:	df000915 	stw	fp,36(sp)
   82a98:	df000904 	addi	fp,sp,36
   82a9c:	e13fff15 	stw	r4,-4(fp)
    unsigned int sector = boot_sector_data.first_fat_sector_offset;
   82aa0:	00800374 	movhi	r2,13
   82aa4:	10b82004 	addi	r2,r2,-8064
   82aa8:	10801117 	ldw	r2,68(r2)
   82aac:	e0bffe15 	stw	r2,-8(fp)
    unsigned int cluster_index = 2;
   82ab0:	00800084 	movi	r2,2
   82ab4:	e0bffd15 	stw	r2,-12(fp)
    short int cluster = -1;
   82ab8:	00bfffc4 	movi	r2,-1
   82abc:	e0bffc0d 	sth	r2,-16(fp)
    bool result = false;
   82ac0:	e03ffb15 	stw	zero,-20(fp)
	unsigned max_cluster_index = 0;
   82ac4:	e03ffa15 	stw	zero,-24(fp)
	unsigned int non_data_sectors = boot_sector_data.data_sector_offset;
   82ac8:	00800374 	movhi	r2,13
   82acc:	10b82004 	addi	r2,r2,-8064
   82ad0:	10801417 	ldw	r2,80(r2)
   82ad4:	e0bff915 	stw	r2,-28(fp)
	unsigned int less_than_32 = boot_sector_data.number_of_sectors_in_partition;
   82ad8:	00800374 	movhi	r2,13
   82adc:	10b82004 	addi	r2,r2,-8064
   82ae0:	1080058b 	ldhu	r2,22(r2)
   82ae4:	10bfffcc 	andi	r2,r2,65535
   82ae8:	e0bff815 	stw	r2,-32(fp)
	unsigned int greater_than_32 = boot_sector_data.total_sector_count_if_above_32MB;
   82aec:	00800374 	movhi	r2,13
   82af0:	10b82004 	addi	r2,r2,-8064
   82af4:	10800917 	ldw	r2,36(r2)
   82af8:	e0bff715 	stw	r2,-36(fp)

	if (less_than_32 > greater_than_32)
   82afc:	e0fff817 	ldw	r3,-32(fp)
   82b00:	e0bff717 	ldw	r2,-36(fp)
   82b04:	10c00b2e 	bgeu	r2,r3,82b34 <find_first_empty_cluster+0xa8>
	{
		max_cluster_index = ((less_than_32 - non_data_sectors) / boot_sector_data.sectors_per_cluster) + 1;
   82b08:	e0fff817 	ldw	r3,-32(fp)
   82b0c:	e0bff917 	ldw	r2,-28(fp)
   82b10:	1889c83a 	sub	r4,r3,r2
   82b14:	00800374 	movhi	r2,13
   82b18:	10b82004 	addi	r2,r2,-8064
   82b1c:	10800383 	ldbu	r2,14(r2)
   82b20:	11403fcc 	andi	r5,r2,255
   82b24:	008596c0 	call	8596c <__udivsi3>
   82b28:	10800044 	addi	r2,r2,1
   82b2c:	e0bffa15 	stw	r2,-24(fp)
   82b30:	00002506 	br	82bc8 <find_first_empty_cluster+0x13c>
	}
	else
	{
		max_cluster_index = ((greater_than_32 - non_data_sectors) / boot_sector_data.sectors_per_cluster) + 1;
   82b34:	e0fff717 	ldw	r3,-36(fp)
   82b38:	e0bff917 	ldw	r2,-28(fp)
   82b3c:	1889c83a 	sub	r4,r3,r2
   82b40:	00800374 	movhi	r2,13
   82b44:	10b82004 	addi	r2,r2,-8064
   82b48:	10800383 	ldbu	r2,14(r2)
   82b4c:	11403fcc 	andi	r5,r2,255
   82b50:	008596c0 	call	8596c <__udivsi3>
   82b54:	10800044 	addi	r2,r2,1
   82b58:	e0bffa15 	stw	r2,-24(fp)
	}
    // Find an empty cluster for the file.
    while (sector != boot_sector_data.second_fat_sector_offset)
   82b5c:	00001a06 	br	82bc8 <find_first_empty_cluster+0x13c>
    {
        if (Read_Sector_Data( sector, fat_partition_offset_in_512_byte_sectors))
   82b60:	e13ffe17 	ldw	r4,-8(fp)
   82b64:	d166c017 	ldw	r5,-25856(gp)
   82b68:	0080c0c0 	call	80c0c <Read_Sector_Data>
   82b6c:	1005003a 	cmpeq	r2,r2,zero
   82b70:	10000f1e 	bne	r2,zero,82bb0 <find_first_empty_cluster+0x124>
        {
            do {
                cluster = (*((volatile unsigned short int *)SD_CARD_BUFFER(SD_CARD_0_BASE, 2*(cluster_index % 256))));
   82b74:	e0bffd17 	ldw	r2,-12(fp)
   82b78:	10803fcc 	andi	r2,r2,255
   82b7c:	1085883a 	add	r2,r2,r2
   82b80:	1080000b 	ldhu	r2,0(r2)
   82b84:	e0bffc0d 	sth	r2,-16(fp)
                if (cluster == 0)
   82b88:	e0bffc0f 	ldh	r2,-16(fp)
   82b8c:	1005003a 	cmpeq	r2,r2,zero
   82b90:	1000071e 	bne	r2,zero,82bb0 <find_first_empty_cluster+0x124>
                    // Free cluster found.
                    break;
                }
                else
                {
                    cluster_index++;
   82b94:	e0bffd17 	ldw	r2,-12(fp)
   82b98:	10800044 	addi	r2,r2,1
   82b9c:	e0bffd15 	stw	r2,-12(fp)
                } 
            } while ((cluster_index % 256) != 0);
   82ba0:	e0bffd17 	ldw	r2,-12(fp)
   82ba4:	10803fcc 	andi	r2,r2,255
   82ba8:	1004c03a 	cmpne	r2,r2,zero
   82bac:	103ff11e 	bne	r2,zero,82b74 <find_first_empty_cluster+0xe8>
        }
        if (cluster == 0)
   82bb0:	e0bffc0f 	ldh	r2,-16(fp)
   82bb4:	1005003a 	cmpeq	r2,r2,zero
   82bb8:	1000081e 	bne	r2,zero,82bdc <find_first_empty_cluster+0x150>
        {
            break;
        }
        sector++;
   82bbc:	e0bffe17 	ldw	r2,-8(fp)
   82bc0:	10800044 	addi	r2,r2,1
   82bc4:	e0bffe15 	stw	r2,-8(fp)
	else
	{
		max_cluster_index = ((greater_than_32 - non_data_sectors) / boot_sector_data.sectors_per_cluster) + 1;
	}
    // Find an empty cluster for the file.
    while (sector != boot_sector_data.second_fat_sector_offset)
   82bc8:	00800374 	movhi	r2,13
   82bcc:	10b82004 	addi	r2,r2,-8064
   82bd0:	10c01217 	ldw	r3,72(r2)
   82bd4:	e0bffe17 	ldw	r2,-8(fp)
   82bd8:	18bfe11e 	bne	r3,r2,82b60 <find_first_empty_cluster+0xd4>
        {
            break;
        }
        sector++;
    }
    if ((cluster == 0) && (cluster <= max_cluster_index))
   82bdc:	e0bffc0f 	ldh	r2,-16(fp)
   82be0:	1004c03a 	cmpne	r2,r2,zero
   82be4:	1000081e 	bne	r2,zero,82c08 <find_first_empty_cluster+0x17c>
   82be8:	e0fffc0f 	ldh	r3,-16(fp)
   82bec:	e0bffa17 	ldw	r2,-24(fp)
   82bf0:	10c00536 	bltu	r2,r3,82c08 <find_first_empty_cluster+0x17c>
    {
        *cluster_number = cluster_index;
   82bf4:	e0bfff17 	ldw	r2,-4(fp)
   82bf8:	e0fffd17 	ldw	r3,-12(fp)
   82bfc:	10c00015 	stw	r3,0(r2)
		result = true;
   82c00:	00800044 	movi	r2,1
   82c04:	e0bffb15 	stw	r2,-20(fp)
    }
    return result;
   82c08:	e0bffb17 	ldw	r2,-20(fp)
}
   82c0c:	e037883a 	mov	sp,fp
   82c10:	dfc00117 	ldw	ra,4(sp)
   82c14:	df000017 	ldw	fp,0(sp)
   82c18:	dec00204 	addi	sp,sp,8
   82c1c:	f800283a 	ret

00082c20 <find_first_empty_record_in_a_subdirectory>:


int find_first_empty_record_in_a_subdirectory(int start_cluster_index)
// Search for a free spot in a subdirectory. Return an encoded location for the file record.
{
   82c20:	defff404 	addi	sp,sp,-48
   82c24:	dfc00b15 	stw	ra,44(sp)
   82c28:	df000a15 	stw	fp,40(sp)
   82c2c:	df000a04 	addi	fp,sp,40
   82c30:	e13ffe15 	stw	r4,-8(fp)
    int result = -1;
   82c34:	00bfffc4 	movi	r2,-1
   82c38:	e0bffb15 	stw	r2,-20(fp)
    int cluster = start_cluster_index;
   82c3c:	e0bffe17 	ldw	r2,-8(fp)
   82c40:	e0bffa15 	stw	r2,-24(fp)
    do {
        int start_sector = ( cluster - 2 ) * ( boot_sector_data.sectors_per_cluster ) + boot_sector_data.data_sector_offset;
   82c44:	e0bffa17 	ldw	r2,-24(fp)
   82c48:	113fff84 	addi	r4,r2,-2
   82c4c:	00800374 	movhi	r2,13
   82c50:	10b82004 	addi	r2,r2,-8064
   82c54:	10800383 	ldbu	r2,14(r2)
   82c58:	11403fcc 	andi	r5,r2,255
   82c5c:	008597c0 	call	8597c <__mulsi3>
   82c60:	1007883a 	mov	r3,r2
   82c64:	00800374 	movhi	r2,13
   82c68:	10b82004 	addi	r2,r2,-8064
   82c6c:	10801417 	ldw	r2,80(r2)
   82c70:	1885883a 	add	r2,r3,r2
   82c74:	e0bff915 	stw	r2,-28(fp)
        int sector_index;
        
        for (sector_index = 0; sector_index < boot_sector_data.sectors_per_cluster; sector_index++)
   82c78:	e03ff815 	stw	zero,-32(fp)
   82c7c:	00002806 	br	82d20 <find_first_empty_record_in_a_subdirectory+0x100>
        {
            if (Read_Sector_Data(sector_index + start_sector, fat_partition_offset_in_512_byte_sectors))
   82c80:	e0fff817 	ldw	r3,-32(fp)
   82c84:	e0bff917 	ldw	r2,-28(fp)
   82c88:	1889883a 	add	r4,r3,r2
   82c8c:	d166c017 	ldw	r5,-25856(gp)
   82c90:	0080c0c0 	call	80c0c <Read_Sector_Data>
   82c94:	1005003a 	cmpeq	r2,r2,zero
   82c98:	1000271e 	bne	r2,zero,82d38 <find_first_empty_record_in_a_subdirectory+0x118>
            {
                int file_counter;
                
                for (file_counter = 0; file_counter < 16; file_counter++)
   82c9c:	e03ff715 	stw	zero,-36(fp)
   82ca0:	00001906 	br	82d08 <find_first_empty_record_in_a_subdirectory+0xe8>
                {
                    unsigned short int leading_char;
                    
                    // Read file record.
                    leading_char = (*((volatile unsigned char *)SD_CARD_BUFFER(SD_CARD_0_BASE, file_counter*32)));
   82ca4:	e0bff717 	ldw	r2,-36(fp)
   82ca8:	1004917a 	slli	r2,r2,5
   82cac:	10800003 	ldbu	r2,0(r2)
   82cb0:	10803fcc 	andi	r2,r2,255
   82cb4:	e0bff60d 	sth	r2,-40(fp)
                    if ((leading_char == 0x00e5) || (leading_char == 0))
   82cb8:	e0bff60b 	ldhu	r2,-40(fp)
   82cbc:	10803960 	cmpeqi	r2,r2,229
   82cc0:	1000031e 	bne	r2,zero,82cd0 <find_first_empty_record_in_a_subdirectory+0xb0>
   82cc4:	e0bff60b 	ldhu	r2,-40(fp)
   82cc8:	1004c03a 	cmpne	r2,r2,zero
   82ccc:	10000b1e 	bne	r2,zero,82cfc <find_first_empty_record_in_a_subdirectory+0xdc>
                    {
                        result = (cluster) | ((sector_index*16 + file_counter) << 16);
   82cd0:	e0bff817 	ldw	r2,-32(fp)
   82cd4:	1006913a 	slli	r3,r2,4
   82cd8:	e0bff717 	ldw	r2,-36(fp)
   82cdc:	1885883a 	add	r2,r3,r2
   82ce0:	1006943a 	slli	r3,r2,16
   82ce4:	e0bffa17 	ldw	r2,-24(fp)
   82ce8:	1884b03a 	or	r2,r3,r2
   82cec:	e0bffb15 	stw	r2,-20(fp)
                        return result;
   82cf0:	e0bffb17 	ldw	r2,-20(fp)
   82cf4:	e0bfff15 	stw	r2,-4(fp)
   82cf8:	00005206 	br	82e44 <find_first_empty_record_in_a_subdirectory+0x224>
        {
            if (Read_Sector_Data(sector_index + start_sector, fat_partition_offset_in_512_byte_sectors))
            {
                int file_counter;
                
                for (file_counter = 0; file_counter < 16; file_counter++)
   82cfc:	e0bff717 	ldw	r2,-36(fp)
   82d00:	10800044 	addi	r2,r2,1
   82d04:	e0bff715 	stw	r2,-36(fp)
   82d08:	e0bff717 	ldw	r2,-36(fp)
   82d0c:	10800410 	cmplti	r2,r2,16
   82d10:	103fe41e 	bne	r2,zero,82ca4 <find_first_empty_record_in_a_subdirectory+0x84>
    int cluster = start_cluster_index;
    do {
        int start_sector = ( cluster - 2 ) * ( boot_sector_data.sectors_per_cluster ) + boot_sector_data.data_sector_offset;
        int sector_index;
        
        for (sector_index = 0; sector_index < boot_sector_data.sectors_per_cluster; sector_index++)
   82d14:	e0bff817 	ldw	r2,-32(fp)
   82d18:	10800044 	addi	r2,r2,1
   82d1c:	e0bff815 	stw	r2,-32(fp)
   82d20:	00800374 	movhi	r2,13
   82d24:	10b82004 	addi	r2,r2,-8064
   82d28:	10800383 	ldbu	r2,14(r2)
   82d2c:	10c03fcc 	andi	r3,r2,255
   82d30:	e0bff817 	ldw	r2,-32(fp)
   82d34:	10ffd216 	blt	r2,r3,82c80 <find_first_empty_record_in_a_subdirectory+0x60>
                break;
            }
        }
        // If this is the end of the cluster and the file has not been found, then see if there is another cluster
        // that holds data for the current directory.
        if (result < 0)
   82d38:	e0bffb17 	ldw	r2,-20(fp)
   82d3c:	1004403a 	cmpge	r2,r2,zero
   82d40:	1000381e 	bne	r2,zero,82e24 <find_first_empty_record_in_a_subdirectory+0x204>
        {
			unsigned short int new_cluster;
			if (get_cluster_flag(cluster, &new_cluster))
   82d44:	e13ffa17 	ldw	r4,-24(fp)
   82d48:	e17ffc04 	addi	r5,fp,-16
   82d4c:	0080cfc0 	call	80cfc <get_cluster_flag>
   82d50:	1005003a 	cmpeq	r2,r2,zero
   82d54:	1000311e 	bne	r2,zero,82e1c <find_first_empty_record_in_a_subdirectory+0x1fc>
			{
                // The directory needs to be expanded to store more files.
				if ((new_cluster & 0x0000fff8) == 0x0000fff8)
   82d58:	e0bffc0b 	ldhu	r2,-16(fp)
   82d5c:	10bfffcc 	andi	r2,r2,65535
   82d60:	10fffe0c 	andi	r3,r2,65528
   82d64:	00bffe14 	movui	r2,65528
   82d68:	18802e1e 	bne	r3,r2,82e24 <find_first_empty_record_in_a_subdirectory+0x204>
				{
					int new_dir_cluster; 
					if (find_first_empty_cluster(&new_dir_cluster))
   82d6c:	e13ffd04 	addi	r4,fp,-12
   82d70:	0082a8c0 	call	82a8c <find_first_empty_cluster>
   82d74:	1005003a 	cmpeq	r2,r2,zero
   82d78:	1000231e 	bne	r2,zero,82e08 <find_first_empty_record_in_a_subdirectory+0x1e8>
					{
						// Add the new cluster to the linked list of the given directory.
						if (mark_cluster(cluster, ((short int) (new_dir_cluster)), true) &&
   82d7c:	e13ffa17 	ldw	r4,-24(fp)
   82d80:	e0bffd17 	ldw	r2,-12(fp)
   82d84:	117fffcc 	andi	r5,r2,65535
   82d88:	2960001c 	xori	r5,r5,32768
   82d8c:	29600004 	addi	r5,r5,-32768
   82d90:	01800044 	movi	r6,1
   82d94:	0080da00 	call	80da0 <mark_cluster>
   82d98:	1005003a 	cmpeq	r2,r2,zero
   82d9c:	10001a1e 	bne	r2,zero,82e08 <find_first_empty_record_in_a_subdirectory+0x1e8>
   82da0:	e0bffd17 	ldw	r2,-12(fp)
   82da4:	1009883a 	mov	r4,r2
   82da8:	017fffc4 	movi	r5,-1
   82dac:	01800044 	movi	r6,1
   82db0:	0080da00 	call	80da0 <mark_cluster>
   82db4:	1005003a 	cmpeq	r2,r2,zero
   82db8:	1000131e 	bne	r2,zero,82e08 <find_first_empty_record_in_a_subdirectory+0x1e8>
   82dbc:	e13ffa17 	ldw	r4,-24(fp)
   82dc0:	e0bffd17 	ldw	r2,-12(fp)
   82dc4:	117fffcc 	andi	r5,r2,65535
   82dc8:	2960001c 	xori	r5,r5,32768
   82dcc:	29600004 	addi	r5,r5,-32768
   82dd0:	000d883a 	mov	r6,zero
   82dd4:	0080da00 	call	80da0 <mark_cluster>
   82dd8:	1005003a 	cmpeq	r2,r2,zero
   82ddc:	10000a1e 	bne	r2,zero,82e08 <find_first_empty_record_in_a_subdirectory+0x1e8>
   82de0:	e0bffd17 	ldw	r2,-12(fp)
   82de4:	1009883a 	mov	r4,r2
   82de8:	017fffc4 	movi	r5,-1
   82dec:	000d883a 	mov	r6,zero
   82df0:	0080da00 	call	80da0 <mark_cluster>
   82df4:	1005003a 	cmpeq	r2,r2,zero
   82df8:	1000031e 	bne	r2,zero,82e08 <find_first_empty_record_in_a_subdirectory+0x1e8>
							mark_cluster(new_dir_cluster, ((short int) (0xffff)), true) &&
							mark_cluster(cluster, ((short int) (new_dir_cluster)), false) &&
							mark_cluster(new_dir_cluster, ((short int) (0xffff)), false))
						{
							Save_Modified_Sector();
   82dfc:	0080bbc0 	call	80bbc <Save_Modified_Sector>
							// The new file will begin at the first entry of the directory.
							result = new_dir_cluster;                           
   82e00:	e0bffd17 	ldw	r2,-12(fp)
   82e04:	e0bffb15 	stw	r2,-20(fp)
						}
					}
					cluster = (new_cluster & 0x0000fff8);
   82e08:	e0bffc0b 	ldhu	r2,-16(fp)
   82e0c:	10bfffcc 	andi	r2,r2,65535
   82e10:	10bffe0c 	andi	r2,r2,65528
   82e14:	e0bffa15 	stw	r2,-24(fp)
   82e18:	00000206 	br	82e24 <find_first_empty_record_in_a_subdirectory+0x204>
				}
			}
			else
			{
				// Error encountered.                 
				result = -1;
   82e1c:	00bfffc4 	movi	r2,-1
   82e20:	e0bffb15 	stw	r2,-20(fp)
			}
        }              
    } while ((cluster < 0x0000fff8) && (result == -1)); 
   82e24:	e0fffa17 	ldw	r3,-24(fp)
   82e28:	00bffdd4 	movui	r2,65527
   82e2c:	10c00316 	blt	r2,r3,82e3c <find_first_empty_record_in_a_subdirectory+0x21c>
   82e30:	e0bffb17 	ldw	r2,-20(fp)
   82e34:	10bfffe0 	cmpeqi	r2,r2,-1
   82e38:	103f821e 	bne	r2,zero,82c44 <find_first_empty_record_in_a_subdirectory+0x24>
    return result; 
   82e3c:	e0bffb17 	ldw	r2,-20(fp)
   82e40:	e0bfff15 	stw	r2,-4(fp)
   82e44:	e0bfff17 	ldw	r2,-4(fp)
}
   82e48:	e037883a 	mov	sp,fp
   82e4c:	dfc00117 	ldw	ra,4(sp)
   82e50:	df000017 	ldw	fp,0(sp)
   82e54:	dec00204 	addi	sp,sp,8
   82e58:	f800283a 	ret

00082e5c <find_first_empty_record_in_root_directory>:


int find_first_empty_record_in_root_directory()
// Find a first unused record location to use. Return -1 if none is found.
{
   82e5c:	defff804 	addi	sp,sp,-32
   82e60:	dfc00715 	stw	ra,28(sp)
   82e64:	df000615 	stw	fp,24(sp)
   82e68:	df000604 	addi	fp,sp,24
    int max_root_dir_sectors = ((32*boot_sector_data.max_number_of_dir_entires) / boot_sector_data.sector_size_in_bytes);
   82e6c:	00800374 	movhi	r2,13
   82e70:	10b82004 	addi	r2,r2,-8064
   82e74:	1080050b 	ldhu	r2,20(r2)
   82e78:	10bfffcc 	andi	r2,r2,65535
   82e7c:	1008917a 	slli	r4,r2,5
   82e80:	00800374 	movhi	r2,13
   82e84:	10b82004 	addi	r2,r2,-8064
   82e88:	1080030b 	ldhu	r2,12(r2)
   82e8c:	117fffcc 	andi	r5,r2,65535
   82e90:	00858ac0 	call	858ac <__divsi3>
   82e94:	e0bffe15 	stw	r2,-8(fp)
    int sector_index;
    int result = -1;
   82e98:	00bfffc4 	movi	r2,-1
   82e9c:	e0bffc15 	stw	r2,-16(fp)
    
    for (sector_index = 0; sector_index < max_root_dir_sectors; sector_index++)
   82ea0:	e03ffd15 	stw	zero,-12(fp)
   82ea4:	00002906 	br	82f4c <find_first_empty_record_in_root_directory+0xf0>
    {
        if (Read_Sector_Data(   sector_index + boot_sector_data.root_directory_sector_offset,
   82ea8:	00800374 	movhi	r2,13
   82eac:	10b82004 	addi	r2,r2,-8064
   82eb0:	10c01317 	ldw	r3,76(r2)
   82eb4:	e0bffd17 	ldw	r2,-12(fp)
   82eb8:	1885883a 	add	r2,r3,r2
   82ebc:	1009883a 	mov	r4,r2
   82ec0:	d166c017 	ldw	r5,-25856(gp)
   82ec4:	0080c0c0 	call	80c0c <Read_Sector_Data>
   82ec8:	1005003a 	cmpeq	r2,r2,zero
   82ecc:	1000221e 	bne	r2,zero,82f58 <find_first_empty_record_in_root_directory+0xfc>
                                fat_partition_offset_in_512_byte_sectors))
        {
            int file_counter;
            
            for (file_counter = 0; file_counter < 16; file_counter++)
   82ed0:	e03ffb15 	stw	zero,-20(fp)
   82ed4:	00001706 	br	82f34 <find_first_empty_record_in_root_directory+0xd8>
            {
                unsigned short int leading_char;
                
                // Read first character of the file record.
                leading_char = (*((volatile unsigned char *)SD_CARD_BUFFER(SD_CARD_0_BASE, file_counter*32)));
   82ed8:	e0bffb17 	ldw	r2,-20(fp)
   82edc:	1004917a 	slli	r2,r2,5
   82ee0:	10800003 	ldbu	r2,0(r2)
   82ee4:	10803fcc 	andi	r2,r2,255
   82ee8:	e0bffa0d 	sth	r2,-24(fp)
                if ((leading_char == 0x00e5) || (leading_char == 0))
   82eec:	e0bffa0b 	ldhu	r2,-24(fp)
   82ef0:	10803960 	cmpeqi	r2,r2,229
   82ef4:	1000031e 	bne	r2,zero,82f04 <find_first_empty_record_in_root_directory+0xa8>
   82ef8:	e0bffa0b 	ldhu	r2,-24(fp)
   82efc:	1004c03a 	cmpne	r2,r2,zero
   82f00:	1000091e 	bne	r2,zero,82f28 <find_first_empty_record_in_root_directory+0xcc>
                {
                    result = (sector_index*16 + file_counter) << 16;
   82f04:	e0bffd17 	ldw	r2,-12(fp)
   82f08:	1006913a 	slli	r3,r2,4
   82f0c:	e0bffb17 	ldw	r2,-20(fp)
   82f10:	1885883a 	add	r2,r3,r2
   82f14:	1004943a 	slli	r2,r2,16
   82f18:	e0bffc15 	stw	r2,-16(fp)
                    return result;
   82f1c:	e0bffc17 	ldw	r2,-16(fp)
   82f20:	e0bfff15 	stw	r2,-4(fp)
   82f24:	00000e06 	br	82f60 <find_first_empty_record_in_root_directory+0x104>
        if (Read_Sector_Data(   sector_index + boot_sector_data.root_directory_sector_offset,
                                fat_partition_offset_in_512_byte_sectors))
        {
            int file_counter;
            
            for (file_counter = 0; file_counter < 16; file_counter++)
   82f28:	e0bffb17 	ldw	r2,-20(fp)
   82f2c:	10800044 	addi	r2,r2,1
   82f30:	e0bffb15 	stw	r2,-20(fp)
   82f34:	e0bffb17 	ldw	r2,-20(fp)
   82f38:	10800410 	cmplti	r2,r2,16
   82f3c:	103fe61e 	bne	r2,zero,82ed8 <find_first_empty_record_in_root_directory+0x7c>
{
    int max_root_dir_sectors = ((32*boot_sector_data.max_number_of_dir_entires) / boot_sector_data.sector_size_in_bytes);
    int sector_index;
    int result = -1;
    
    for (sector_index = 0; sector_index < max_root_dir_sectors; sector_index++)
   82f40:	e0bffd17 	ldw	r2,-12(fp)
   82f44:	10800044 	addi	r2,r2,1
   82f48:	e0bffd15 	stw	r2,-12(fp)
   82f4c:	e0fffd17 	ldw	r3,-12(fp)
   82f50:	e0bffe17 	ldw	r2,-8(fp)
   82f54:	18bfd416 	blt	r3,r2,82ea8 <find_first_empty_record_in_root_directory+0x4c>
        else
        {
            break;
        }
    }
    return result;
   82f58:	e0bffc17 	ldw	r2,-16(fp)
   82f5c:	e0bfff15 	stw	r2,-4(fp)
   82f60:	e0bfff17 	ldw	r2,-4(fp)
}
   82f64:	e037883a 	mov	sp,fp
   82f68:	dfc00117 	ldw	ra,4(sp)
   82f6c:	df000017 	ldw	fp,0(sp)
   82f70:	dec00204 	addi	sp,sp,8
   82f74:	f800283a 	ret

00082f78 <convert_filename_to_name_extension>:

void convert_filename_to_name_extension(char *filename, char *name, char *extension)
// This function converts the file name into a name . extension format.
{
   82f78:	defffa04 	addi	sp,sp,-24
   82f7c:	df000515 	stw	fp,20(sp)
   82f80:	df000504 	addi	fp,sp,20
   82f84:	e13ffd15 	stw	r4,-12(fp)
   82f88:	e17ffe15 	stw	r5,-8(fp)
   82f8c:	e1bfff15 	stw	r6,-4(fp)
    int counter;
    int local = 0;
   82f90:	e03ffb15 	stw	zero,-20(fp)
    
    for(counter = 0; counter < 8; counter++)
   82f94:	e03ffc15 	stw	zero,-16(fp)
   82f98:	00002b06 	br	83048 <convert_filename_to_name_extension+0xd0>
    {
        if (filename[local] != '.')
   82f9c:	e0bffb17 	ldw	r2,-20(fp)
   82fa0:	1007883a 	mov	r3,r2
   82fa4:	e0bffd17 	ldw	r2,-12(fp)
   82fa8:	1885883a 	add	r2,r3,r2
   82fac:	10800003 	ldbu	r2,0(r2)
   82fb0:	10803fcc 	andi	r2,r2,255
   82fb4:	1080201c 	xori	r2,r2,128
   82fb8:	10bfe004 	addi	r2,r2,-128
   82fbc:	10800ba0 	cmpeqi	r2,r2,46
   82fc0:	1000181e 	bne	r2,zero,83024 <convert_filename_to_name_extension+0xac>
        {
            name[counter] = filename[local];
   82fc4:	e0bffc17 	ldw	r2,-16(fp)
   82fc8:	1007883a 	mov	r3,r2
   82fcc:	e0bffe17 	ldw	r2,-8(fp)
   82fd0:	1889883a 	add	r4,r3,r2
   82fd4:	e0bffb17 	ldw	r2,-20(fp)
   82fd8:	1007883a 	mov	r3,r2
   82fdc:	e0bffd17 	ldw	r2,-12(fp)
   82fe0:	1885883a 	add	r2,r3,r2
   82fe4:	10800003 	ldbu	r2,0(r2)
   82fe8:	20800005 	stb	r2,0(r4)
            if (filename[local] != 0) local++;
   82fec:	e0bffb17 	ldw	r2,-20(fp)
   82ff0:	1007883a 	mov	r3,r2
   82ff4:	e0bffd17 	ldw	r2,-12(fp)
   82ff8:	1885883a 	add	r2,r3,r2
   82ffc:	10800003 	ldbu	r2,0(r2)
   83000:	10803fcc 	andi	r2,r2,255
   83004:	1080201c 	xori	r2,r2,128
   83008:	10bfe004 	addi	r2,r2,-128
   8300c:	1005003a 	cmpeq	r2,r2,zero
   83010:	10000a1e 	bne	r2,zero,8303c <convert_filename_to_name_extension+0xc4>
   83014:	e0bffb17 	ldw	r2,-20(fp)
   83018:	10800044 	addi	r2,r2,1
   8301c:	e0bffb15 	stw	r2,-20(fp)
   83020:	00000606 	br	8303c <convert_filename_to_name_extension+0xc4>
        }
        else
        {
            name[counter] = ' ';
   83024:	e0bffc17 	ldw	r2,-16(fp)
   83028:	1007883a 	mov	r3,r2
   8302c:	e0bffe17 	ldw	r2,-8(fp)
   83030:	1887883a 	add	r3,r3,r2
   83034:	00800804 	movi	r2,32
   83038:	18800005 	stb	r2,0(r3)
// This function converts the file name into a name . extension format.
{
    int counter;
    int local = 0;
    
    for(counter = 0; counter < 8; counter++)
   8303c:	e0bffc17 	ldw	r2,-16(fp)
   83040:	10800044 	addi	r2,r2,1
   83044:	e0bffc15 	stw	r2,-16(fp)
   83048:	e0bffc17 	ldw	r2,-16(fp)
   8304c:	10800210 	cmplti	r2,r2,8
   83050:	103fd21e 	bne	r2,zero,82f9c <convert_filename_to_name_extension+0x24>
        else
        {
            name[counter] = ' ';
        }
    }
    if (filename[local] == '.') local++;
   83054:	e0bffb17 	ldw	r2,-20(fp)
   83058:	1007883a 	mov	r3,r2
   8305c:	e0bffd17 	ldw	r2,-12(fp)
   83060:	1885883a 	add	r2,r3,r2
   83064:	10800003 	ldbu	r2,0(r2)
   83068:	10803fcc 	andi	r2,r2,255
   8306c:	1080201c 	xori	r2,r2,128
   83070:	10bfe004 	addi	r2,r2,-128
   83074:	10800b98 	cmpnei	r2,r2,46
   83078:	1000031e 	bne	r2,zero,83088 <convert_filename_to_name_extension+0x110>
   8307c:	e0bffb17 	ldw	r2,-20(fp)
   83080:	10800044 	addi	r2,r2,1
   83084:	e0bffb15 	stw	r2,-20(fp)
    for(counter = 0; counter < 3; counter++)
   83088:	e03ffc15 	stw	zero,-16(fp)
   8308c:	00002106 	br	83114 <convert_filename_to_name_extension+0x19c>
    {
        if (filename[local] != 0)
   83090:	e0bffb17 	ldw	r2,-20(fp)
   83094:	1007883a 	mov	r3,r2
   83098:	e0bffd17 	ldw	r2,-12(fp)
   8309c:	1885883a 	add	r2,r3,r2
   830a0:	10800003 	ldbu	r2,0(r2)
   830a4:	10803fcc 	andi	r2,r2,255
   830a8:	1080201c 	xori	r2,r2,128
   830ac:	10bfe004 	addi	r2,r2,-128
   830b0:	1005003a 	cmpeq	r2,r2,zero
   830b4:	10000e1e 	bne	r2,zero,830f0 <convert_filename_to_name_extension+0x178>
        {
            extension[counter] = filename[local];
   830b8:	e0bffc17 	ldw	r2,-16(fp)
   830bc:	1007883a 	mov	r3,r2
   830c0:	e0bfff17 	ldw	r2,-4(fp)
   830c4:	1889883a 	add	r4,r3,r2
   830c8:	e0bffb17 	ldw	r2,-20(fp)
   830cc:	1007883a 	mov	r3,r2
   830d0:	e0bffd17 	ldw	r2,-12(fp)
   830d4:	1885883a 	add	r2,r3,r2
   830d8:	10800003 	ldbu	r2,0(r2)
   830dc:	20800005 	stb	r2,0(r4)
            local++;
   830e0:	e0bffb17 	ldw	r2,-20(fp)
   830e4:	10800044 	addi	r2,r2,1
   830e8:	e0bffb15 	stw	r2,-20(fp)
   830ec:	00000606 	br	83108 <convert_filename_to_name_extension+0x190>
        }
        else
        {
            extension[counter] = ' ';
   830f0:	e0bffc17 	ldw	r2,-16(fp)
   830f4:	1007883a 	mov	r3,r2
   830f8:	e0bfff17 	ldw	r2,-4(fp)
   830fc:	1887883a 	add	r3,r3,r2
   83100:	00800804 	movi	r2,32
   83104:	18800005 	stb	r2,0(r3)
        {
            name[counter] = ' ';
        }
    }
    if (filename[local] == '.') local++;
    for(counter = 0; counter < 3; counter++)
   83108:	e0bffc17 	ldw	r2,-16(fp)
   8310c:	10800044 	addi	r2,r2,1
   83110:	e0bffc15 	stw	r2,-16(fp)
   83114:	e0bffc17 	ldw	r2,-16(fp)
   83118:	108000d0 	cmplti	r2,r2,3
   8311c:	103fdc1e 	bne	r2,zero,83090 <convert_filename_to_name_extension+0x118>
        {
            extension[counter] = ' ';
        }
    }

}
   83120:	e037883a 	mov	sp,fp
   83124:	df000017 	ldw	fp,0(sp)
   83128:	dec00104 	addi	sp,sp,4
   8312c:	f800283a 	ret

00083130 <create_file>:

bool create_file(char *name, t_file_record *file_record, t_file_record *home_dir)
// Create a file in a given directory. Expand the directory if needed.
{
   83130:	defff204 	addi	sp,sp,-56
   83134:	dfc00d15 	stw	ra,52(sp)
   83138:	df000c15 	stw	fp,48(sp)
   8313c:	dc000b15 	stw	r16,44(sp)
   83140:	df000b04 	addi	fp,sp,44
   83144:	e13ffb15 	stw	r4,-20(fp)
   83148:	e17ffc15 	stw	r5,-16(fp)
   8314c:	e1bffd15 	stw	r6,-12(fp)
    unsigned int cluster_number;
    bool result = false;
   83150:	e03ff915 	stw	zero,-28(fp)
    
    if (find_first_empty_cluster(&cluster_number))
   83154:	e13ffa04 	addi	r4,fp,-24
   83158:	0082a8c0 	call	82a8c <find_first_empty_cluster>
   8315c:	1005003a 	cmpeq	r2,r2,zero
   83160:	1000a71e 	bne	r2,zero,83400 <create_file+0x2d0>
    {
        int record_index;
        
        if (home_dir->file_record_cluster == 0)
   83164:	e0bffd17 	ldw	r2,-12(fp)
   83168:	10800a17 	ldw	r2,40(r2)
   8316c:	1004c03a 	cmpne	r2,r2,zero
   83170:	1000031e 	bne	r2,zero,83180 <create_file+0x50>
        {
            // Put a file in the root directory.
            record_index = find_first_empty_record_in_root_directory();
   83174:	0082e5c0 	call	82e5c <find_first_empty_record_in_root_directory>
   83178:	e0bff815 	stw	r2,-32(fp)
   8317c:	00000506 	br	83194 <create_file+0x64>
        }
        else
        {
            // Put a file in a subdirectory.
            record_index = find_first_empty_record_in_a_subdirectory(home_dir->start_cluster_index);           
   83180:	e0bffd17 	ldw	r2,-12(fp)
   83184:	1080058b 	ldhu	r2,22(r2)
   83188:	113fffcc 	andi	r4,r2,65535
   8318c:	0082c200 	call	82c20 <find_first_empty_record_in_a_subdirectory>
   83190:	e0bff815 	stw	r2,-32(fp)
        }
        if (record_index >= 0)
   83194:	e0bff817 	ldw	r2,-32(fp)
   83198:	1004803a 	cmplt	r2,r2,zero
   8319c:	1000981e 	bne	r2,zero,83400 <create_file+0x2d0>
        {   
            unsigned int file_record_sector;
            int location = get_dir_divider_location( name );
   831a0:	e13ffb17 	ldw	r4,-20(fp)
   831a4:	0081d680 	call	81d68 <get_dir_divider_location>
   831a8:	e0bff615 	stw	r2,-40(fp)
            int last_dir_separator = 0;
   831ac:	e03ff515 	stw	zero,-44(fp)

            // Skip through all directory separators.
            while (location > 0)
   831b0:	00000b06 	br	831e0 <create_file+0xb0>
            {
                last_dir_separator = last_dir_separator+location+1;
   831b4:	e0fff517 	ldw	r3,-44(fp)
   831b8:	e0bff617 	ldw	r2,-40(fp)
   831bc:	1885883a 	add	r2,r3,r2
   831c0:	10800044 	addi	r2,r2,1
   831c4:	e0bff515 	stw	r2,-44(fp)
                location = get_dir_divider_location( &(name[last_dir_separator]) );
   831c8:	e0bff517 	ldw	r2,-44(fp)
   831cc:	1007883a 	mov	r3,r2
   831d0:	e0bffb17 	ldw	r2,-20(fp)
   831d4:	1889883a 	add	r4,r3,r2
   831d8:	0081d680 	call	81d68 <get_dir_divider_location>
   831dc:	e0bff615 	stw	r2,-40(fp)
            unsigned int file_record_sector;
            int location = get_dir_divider_location( name );
            int last_dir_separator = 0;

            // Skip through all directory separators.
            while (location > 0)
   831e0:	e0bff617 	ldw	r2,-40(fp)
   831e4:	10800048 	cmpgei	r2,r2,1
   831e8:	103ff21e 	bne	r2,zero,831b4 <create_file+0x84>
            {
                last_dir_separator = last_dir_separator+location+1;
                location = get_dir_divider_location( &(name[last_dir_separator]) );
            }
            
            convert_filename_to_name_extension(&(name[last_dir_separator]), file_record->name, file_record->extension);
   831ec:	e0bff517 	ldw	r2,-44(fp)
   831f0:	1007883a 	mov	r3,r2
   831f4:	e0bffb17 	ldw	r2,-20(fp)
   831f8:	1889883a 	add	r4,r3,r2
   831fc:	e0bffc17 	ldw	r2,-16(fp)
   83200:	100b883a 	mov	r5,r2
   83204:	e0bffc17 	ldw	r2,-16(fp)
   83208:	10800204 	addi	r2,r2,8
   8320c:	100d883a 	mov	r6,r2
   83210:	0082f780 	call	82f78 <convert_filename_to_name_extension>
                         
            file_record->attributes = 0x20;
   83214:	e0fffc17 	ldw	r3,-16(fp)
   83218:	00800804 	movi	r2,32
   8321c:	188002c5 	stb	r2,11(r3)
            file_record->create_time = 0;
   83220:	e0bffc17 	ldw	r2,-16(fp)
   83224:	1000030d 	sth	zero,12(r2)
            file_record->create_date = (30 << 9) + (1 << 5) + 1;
   83228:	e0fffc17 	ldw	r3,-16(fp)
   8322c:	008f0844 	movi	r2,15393
   83230:	1880038d 	sth	r2,14(r3)
            file_record->last_access_date = (30 << 9) + (1 << 5) + 1;
   83234:	e0fffc17 	ldw	r3,-16(fp)
   83238:	008f0844 	movi	r2,15393
   8323c:	1880040d 	sth	r2,16(r3)
            file_record->last_modified_time = 0;
   83240:	e0bffc17 	ldw	r2,-16(fp)
   83244:	1000048d 	sth	zero,18(r2)
            file_record->last_modified_date = (30 << 9) + (1 << 5) + 1;
   83248:	e0fffc17 	ldw	r3,-16(fp)
   8324c:	008f0844 	movi	r2,15393
   83250:	1880050d 	sth	r2,20(r3)
            file_record->start_cluster_index = cluster_number;
   83254:	e0bffa17 	ldw	r2,-24(fp)
   83258:	1007883a 	mov	r3,r2
   8325c:	e0bffc17 	ldw	r2,-16(fp)
   83260:	10c0058d 	sth	r3,22(r2)
            file_record->file_size_in_bytes = 0;
   83264:	e0bffc17 	ldw	r2,-16(fp)
   83268:	10000615 	stw	zero,24(r2)
            file_record->current_cluster_index = cluster_number;
   8326c:	e0fffa17 	ldw	r3,-24(fp)
   83270:	e0bffc17 	ldw	r2,-16(fp)
   83274:	10c00715 	stw	r3,28(r2)
            file_record->current_sector_in_cluster = 0;
   83278:	e0bffc17 	ldw	r2,-16(fp)
   8327c:	10000815 	stw	zero,32(r2)
            file_record->current_byte_position = 0;
   83280:	e0bffc17 	ldw	r2,-16(fp)
   83284:	10000915 	stw	zero,36(r2)
            file_record->file_record_cluster = record_index & 0x0000ffff;
   83288:	e0bff817 	ldw	r2,-32(fp)
   8328c:	10ffffcc 	andi	r3,r2,65535
   83290:	e0bffc17 	ldw	r2,-16(fp)
   83294:	10c00a15 	stw	r3,40(r2)
            file_record->file_record_sector_in_cluster = ((record_index >> 16) & 0x0000ffff) / 16;
   83298:	e0bff817 	ldw	r2,-32(fp)
   8329c:	1005d43a 	srai	r2,r2,16
   832a0:	10bfffcc 	andi	r2,r2,65535
   832a4:	e0bfff15 	stw	r2,-4(fp)
   832a8:	e0ffff17 	ldw	r3,-4(fp)
   832ac:	1804403a 	cmpge	r2,r3,zero
   832b0:	1000031e 	bne	r2,zero,832c0 <create_file+0x190>
   832b4:	e0bfff17 	ldw	r2,-4(fp)
   832b8:	108003c4 	addi	r2,r2,15
   832bc:	e0bfff15 	stw	r2,-4(fp)
   832c0:	e0ffff17 	ldw	r3,-4(fp)
   832c4:	1805d13a 	srai	r2,r3,4
   832c8:	1007883a 	mov	r3,r2
   832cc:	e0bffc17 	ldw	r2,-16(fp)
   832d0:	10c00b15 	stw	r3,44(r2)
            file_record->file_record_offset = (((record_index >> 16) & 0x0000ffff) % 16)*32;   
   832d4:	e0bff817 	ldw	r2,-32(fp)
   832d8:	1005d43a 	srai	r2,r2,16
   832dc:	108003cc 	andi	r2,r2,15
   832e0:	1004917a 	slli	r2,r2,5
   832e4:	1007883a 	mov	r3,r2
   832e8:	e0bffc17 	ldw	r2,-16(fp)
   832ec:	10c00c0d 	sth	r3,48(r2)
            file_record->home_directory_cluster = home_dir->start_cluster_index;
   832f0:	e0bffd17 	ldw	r2,-12(fp)
   832f4:	1080058b 	ldhu	r2,22(r2)
   832f8:	10ffffcc 	andi	r3,r2,65535
   832fc:	e0bffc17 	ldw	r2,-16(fp)
   83300:	10c00d15 	stw	r3,52(r2)
            file_record->in_use = true;
   83304:	e0fffc17 	ldw	r3,-16(fp)
   83308:	00800044 	movi	r2,1
   8330c:	18800f15 	stw	r2,60(r3)
            file_record->modified = true;
   83310:	e0fffc17 	ldw	r3,-16(fp)
   83314:	00800044 	movi	r2,1
   83318:	18800e15 	stw	r2,56(r3)
            // Now write the record at the specified location.
            file_record_sector = (file_record->file_record_cluster == 0) ? 
   8331c:	e0bffc17 	ldw	r2,-16(fp)
   83320:	10800a17 	ldw	r2,40(r2)
   83324:	1004c03a 	cmpne	r2,r2,zero
   83328:	1000081e 	bne	r2,zero,8334c <create_file+0x21c>
   8332c:	00800374 	movhi	r2,13
   83330:	10b82004 	addi	r2,r2,-8064
   83334:	10c01317 	ldw	r3,76(r2)
   83338:	e0bffc17 	ldw	r2,-16(fp)
   8333c:	10800b17 	ldw	r2,44(r2)
   83340:	1887883a 	add	r3,r3,r2
   83344:	e0fffe15 	stw	r3,-8(fp)
   83348:	00001006 	br	8338c <create_file+0x25c>
   8334c:	00800374 	movhi	r2,13
   83350:	10b82004 	addi	r2,r2,-8064
   83354:	14001417 	ldw	r16,80(r2)
   83358:	e0bffc17 	ldw	r2,-16(fp)
   8335c:	10800a17 	ldw	r2,40(r2)
   83360:	113fff84 	addi	r4,r2,-2
   83364:	00800374 	movhi	r2,13
   83368:	10b82004 	addi	r2,r2,-8064
   8336c:	10800383 	ldbu	r2,14(r2)
   83370:	11403fcc 	andi	r5,r2,255
   83374:	008597c0 	call	8597c <__mulsi3>
   83378:	8087883a 	add	r3,r16,r2
   8337c:	e0bffc17 	ldw	r2,-16(fp)
   83380:	10800b17 	ldw	r2,44(r2)
   83384:	1887883a 	add	r3,r3,r2
   83388:	e0fffe15 	stw	r3,-8(fp)
   8338c:	e0bffe17 	ldw	r2,-8(fp)
   83390:	e0bff715 	stw	r2,-36(fp)
                                    (boot_sector_data.root_directory_sector_offset + file_record->file_record_sector_in_cluster):  
                                    (boot_sector_data.data_sector_offset + (file_record->file_record_cluster-2)*boot_sector_data.sectors_per_cluster +
                                     file_record->file_record_sector_in_cluster);

			if (Read_Sector_Data(file_record_sector, fat_partition_offset_in_512_byte_sectors))
   83394:	e13ff717 	ldw	r4,-36(fp)
   83398:	d166c017 	ldw	r5,-25856(gp)
   8339c:	0080c0c0 	call	80c0c <Read_Sector_Data>
   833a0:	1005003a 	cmpeq	r2,r2,zero
   833a4:	1000161e 	bne	r2,zero,83400 <create_file+0x2d0>
            {
                if (Write_File_Record_At_Offset(file_record->file_record_offset, file_record))
   833a8:	e0bffc17 	ldw	r2,-16(fp)
   833ac:	10800c0b 	ldhu	r2,48(r2)
   833b0:	113fffcc 	andi	r4,r2,65535
   833b4:	2120001c 	xori	r4,r4,32768
   833b8:	21200004 	addi	r4,r4,-32768
   833bc:	e17ffc17 	ldw	r5,-16(fp)
   833c0:	00811980 	call	81198 <Write_File_Record_At_Offset>
   833c4:	1005003a 	cmpeq	r2,r2,zero
   833c8:	10000d1e 	bne	r2,zero,83400 <create_file+0x2d0>
                {
                    Save_Modified_Sector();
   833cc:	0080bbc0 	call	80bbc <Save_Modified_Sector>
                    // Mark the first cluster of the file as the last cluster at first.
                    mark_cluster(cluster_number, ((short int) (0xffff)), true);
   833d0:	e13ffa17 	ldw	r4,-24(fp)
   833d4:	017fffc4 	movi	r5,-1
   833d8:	01800044 	movi	r6,1
   833dc:	0080da00 	call	80da0 <mark_cluster>
                    if (mark_cluster(cluster_number, ((short int) (0xffff)), false))
   833e0:	e13ffa17 	ldw	r4,-24(fp)
   833e4:	017fffc4 	movi	r5,-1
   833e8:	000d883a 	mov	r6,zero
   833ec:	0080da00 	call	80da0 <mark_cluster>
   833f0:	1005003a 	cmpeq	r2,r2,zero
   833f4:	1000021e 	bne	r2,zero,83400 <create_file+0x2d0>
                    {
                        result = true;
   833f8:	00800044 	movi	r2,1
   833fc:	e0bff915 	stw	r2,-28(fp)
                }
            }
        }

    }
    return result;           
   83400:	e0bff917 	ldw	r2,-28(fp)
}
   83404:	e037883a 	mov	sp,fp
   83408:	dfc00217 	ldw	ra,8(sp)
   8340c:	df000117 	ldw	fp,4(sp)
   83410:	dc000017 	ldw	r16,0(sp)
   83414:	dec00304 	addi	sp,sp,12
   83418:	f800283a 	ret

0008341c <copy_file_record_name_to_string>:


void copy_file_record_name_to_string(t_file_record *file_record, char *file_name)
/* Copy a file name from the file record to a given string */
{
   8341c:	defffb04 	addi	sp,sp,-20
   83420:	df000415 	stw	fp,16(sp)
   83424:	df000404 	addi	fp,sp,16
   83428:	e13ffe15 	stw	r4,-8(fp)
   8342c:	e17fff15 	stw	r5,-4(fp)
	int index;
	int flength = 0;
   83430:	e03ffc15 	stw	zero,-16(fp)

	/* Copy file name.*/
	for (index = 0; index < 8; index++)
   83434:	e03ffd15 	stw	zero,-12(fp)
   83438:	00001606 	br	83494 <copy_file_record_name_to_string+0x78>
	{
		if (file_record->name[index] != ' ')
   8343c:	e0fffd17 	ldw	r3,-12(fp)
   83440:	e0bffe17 	ldw	r2,-8(fp)
   83444:	10c5883a 	add	r2,r2,r3
   83448:	10800003 	ldbu	r2,0(r2)
   8344c:	10803fcc 	andi	r2,r2,255
   83450:	10800820 	cmpeqi	r2,r2,32
   83454:	10000c1e 	bne	r2,zero,83488 <copy_file_record_name_to_string+0x6c>
		{
			file_name[flength] = file_record->name[index];
   83458:	e0bffc17 	ldw	r2,-16(fp)
   8345c:	1007883a 	mov	r3,r2
   83460:	e0bfff17 	ldw	r2,-4(fp)
   83464:	1889883a 	add	r4,r3,r2
   83468:	e0fffd17 	ldw	r3,-12(fp)
   8346c:	e0bffe17 	ldw	r2,-8(fp)
   83470:	10c5883a 	add	r2,r2,r3
   83474:	10800003 	ldbu	r2,0(r2)
   83478:	20800005 	stb	r2,0(r4)
			flength = flength + 1;
   8347c:	e0bffc17 	ldw	r2,-16(fp)
   83480:	10800044 	addi	r2,r2,1
   83484:	e0bffc15 	stw	r2,-16(fp)
{
	int index;
	int flength = 0;

	/* Copy file name.*/
	for (index = 0; index < 8; index++)
   83488:	e0bffd17 	ldw	r2,-12(fp)
   8348c:	10800044 	addi	r2,r2,1
   83490:	e0bffd15 	stw	r2,-12(fp)
   83494:	e0bffd17 	ldw	r2,-12(fp)
   83498:	10800210 	cmplti	r2,r2,8
   8349c:	103fe71e 	bne	r2,zero,8343c <copy_file_record_name_to_string+0x20>
		{
			file_name[flength] = file_record->name[index];
			flength = flength + 1;
		}
	}
	if (file_record->extension[0] != ' ')
   834a0:	e0bffe17 	ldw	r2,-8(fp)
   834a4:	10800203 	ldbu	r2,8(r2)
   834a8:	10803fcc 	andi	r2,r2,255
   834ac:	10800820 	cmpeqi	r2,r2,32
   834b0:	1000261e 	bne	r2,zero,8354c <copy_file_record_name_to_string+0x130>
	{
		file_name[flength] = '.';
   834b4:	e0bffc17 	ldw	r2,-16(fp)
   834b8:	1007883a 	mov	r3,r2
   834bc:	e0bfff17 	ldw	r2,-4(fp)
   834c0:	1887883a 	add	r3,r3,r2
   834c4:	00800b84 	movi	r2,46
   834c8:	18800005 	stb	r2,0(r3)
		flength = flength + 1;
   834cc:	e0bffc17 	ldw	r2,-16(fp)
   834d0:	10800044 	addi	r2,r2,1
   834d4:	e0bffc15 	stw	r2,-16(fp)
		for (index = 0; index < 3; index++)
   834d8:	e03ffd15 	stw	zero,-12(fp)
   834dc:	00001806 	br	83540 <copy_file_record_name_to_string+0x124>
		{
			if (file_record->extension[index] != ' ')
   834e0:	e0fffd17 	ldw	r3,-12(fp)
   834e4:	e0bffe17 	ldw	r2,-8(fp)
   834e8:	1885883a 	add	r2,r3,r2
   834ec:	10800204 	addi	r2,r2,8
   834f0:	10800003 	ldbu	r2,0(r2)
   834f4:	10803fcc 	andi	r2,r2,255
   834f8:	10800820 	cmpeqi	r2,r2,32
   834fc:	10000d1e 	bne	r2,zero,83534 <copy_file_record_name_to_string+0x118>
			{
				file_name[flength] = file_record->extension[index];
   83500:	e0bffc17 	ldw	r2,-16(fp)
   83504:	1007883a 	mov	r3,r2
   83508:	e0bfff17 	ldw	r2,-4(fp)
   8350c:	1889883a 	add	r4,r3,r2
   83510:	e0fffd17 	ldw	r3,-12(fp)
   83514:	e0bffe17 	ldw	r2,-8(fp)
   83518:	1885883a 	add	r2,r3,r2
   8351c:	10800204 	addi	r2,r2,8
   83520:	10800003 	ldbu	r2,0(r2)
   83524:	20800005 	stb	r2,0(r4)
				flength = flength + 1;
   83528:	e0bffc17 	ldw	r2,-16(fp)
   8352c:	10800044 	addi	r2,r2,1
   83530:	e0bffc15 	stw	r2,-16(fp)
	}
	if (file_record->extension[0] != ' ')
	{
		file_name[flength] = '.';
		flength = flength + 1;
		for (index = 0; index < 3; index++)
   83534:	e0bffd17 	ldw	r2,-12(fp)
   83538:	10800044 	addi	r2,r2,1
   8353c:	e0bffd15 	stw	r2,-12(fp)
   83540:	e0bffd17 	ldw	r2,-12(fp)
   83544:	108000d0 	cmplti	r2,r2,3
   83548:	103fe51e 	bne	r2,zero,834e0 <copy_file_record_name_to_string+0xc4>
				file_name[flength] = file_record->extension[index];
				flength = flength + 1;
			}
		}
	}
	file_name[flength] = 0;
   8354c:	e0bffc17 	ldw	r2,-16(fp)
   83550:	1007883a 	mov	r3,r2
   83554:	e0bfff17 	ldw	r2,-4(fp)
   83558:	1885883a 	add	r2,r3,r2
   8355c:	10000005 	stb	zero,0(r2)
}
   83560:	e037883a 	mov	sp,fp
   83564:	df000017 	ldw	fp,0(sp)
   83568:	dec00104 	addi	sp,sp,4
   8356c:	f800283a 	ret

00083570 <sd_card_open_dev>:
// Direct functions
///////////////////////////////////////////////////////////////////////////


void sd_card_open_dev()
{
   83570:	deffff04 	addi	sp,sp,-4
   83574:	df000015 	stw	fp,0(sp)
   83578:	d839883a 	mov	fp,sp
	// for details)
	// alt_up_sd_card_dev *dev = (alt_up_sd_card_dev *) alt_find_dev(name, &alt_dev_list);

	// if (dev != NULL)
	// {
		aux_status_register = ((short int *) SD_CARD_AUX_STATUS(SD_CARD_0_BASE));
   8357c:	00808d04 	movi	r2,564
   83580:	d0a6bb15 	stw	r2,-25876(gp)
		status_register = ((int *) SD_CARD_STATUS(SD_CARD_0_BASE));
   83584:	00808904 	movi	r2,548
   83588:	d0a6bc15 	stw	r2,-25872(gp)
		CSD_register_w0 = ((short int *) SD_CARD_CSD(SD_CARD_0_BASE, 0));
   8358c:	00808404 	movi	r2,528
   83590:	d0a6bd15 	stw	r2,-25868(gp)
		command_register = ((short int *) SD_CARD_COMMAND(SD_CARD_0_BASE));
   83594:	00808c04 	movi	r2,560
   83598:	d0a6be15 	stw	r2,-25864(gp)
		command_argument_register = ((int *) SD_CARD_ARGUMENT(SD_CARD_0_BASE));
   8359c:	00808b04 	movi	r2,556
   835a0:	d0a6bf15 	stw	r2,-25860(gp)
		// device_pointer = dev;
		initialized = false;
   835a4:	d026b915 	stw	zero,-25884(gp)
		is_sd_card_formated_as_FAT16 = false;
   835a8:	d026ba15 	stw	zero,-25880(gp)
		search_data.valid = false;
   835ac:	00800374 	movhi	r2,13
   835b0:	10b81b04 	addi	r2,r2,-8084
   835b4:	10000415 	stw	zero,16(r2)
	// }
	// return dev;
}
   835b8:	e037883a 	mov	sp,fp
   835bc:	df000017 	ldw	fp,0(sp)
   835c0:	dec00104 	addi	sp,sp,4
   835c4:	f800283a 	ret

000835c8 <sd_card_is_Present>:


bool sd_card_is_Present(void)
// Check if there is an SD Card insterted into the SD Card socket.
{
   835c8:	defffe04 	addi	sp,sp,-8
   835cc:	df000115 	stw	fp,4(sp)
   835d0:	df000104 	addi	fp,sp,4
    bool result = false;
   835d4:	e03fff15 	stw	zero,-4(fp)

    if ((*aux_status_register & 0x02) != 0)
   835d8:	d0a6bb17 	ldw	r2,-25876(gp)
   835dc:	1080000b 	ldhu	r2,0(r2)
   835e0:	10bfffcc 	andi	r2,r2,65535
   835e4:	1080008c 	andi	r2,r2,2
   835e8:	1005003a 	cmpeq	r2,r2,zero
   835ec:	1000031e 	bne	r2,zero,835fc <sd_card_is_Present+0x34>
    {
        result = true;
   835f0:	00800044 	movi	r2,1
   835f4:	e0bfff15 	stw	r2,-4(fp)
   835f8:	00000106 	br	83600 <sd_card_is_Present+0x38>
    } else {
		initialized = false;
   835fc:	d026b915 	stw	zero,-25884(gp)
	}
    return result;
   83600:	e0bfff17 	ldw	r2,-4(fp)
}
   83604:	e037883a 	mov	sp,fp
   83608:	df000017 	ldw	fp,0(sp)
   8360c:	dec00104 	addi	sp,sp,4
   83610:	f800283a 	ret

00083614 <sd_card_is_FAT16>:
/* This function reads the SD card data in an effort to determine if the card is formated as a FAT16
 * volume. Please note that FAT12 has a similar format, but will not be supported by this driver.
 * If the card contains a FAT16 volume, the local data structures will be initialized to allow reading and writing
 * to the SD card as though it was a hard drive.
 */
{
   83614:	defffd04 	addi	sp,sp,-12
   83618:	dfc00215 	stw	ra,8(sp)
   8361c:	df000115 	stw	fp,4(sp)
   83620:	df000104 	addi	fp,sp,4
	bool result = false;
   83624:	e03fff15 	stw	zero,-4(fp)

	if (sd_card_is_Present())
   83628:	00835c80 	call	835c8 <sd_card_is_Present>
   8362c:	1005003a 	cmpeq	r2,r2,zero
   83630:	1000151e 	bne	r2,zero,83688 <sd_card_is_FAT16+0x74>
	{
		// Check if an SD Card is in the SD Card slot.
		if ((*aux_status_register & 0x02) != 0)
   83634:	d0a6bb17 	ldw	r2,-25876(gp)
   83638:	1080000b 	ldhu	r2,0(r2)
   8363c:	10bfffcc 	andi	r2,r2,65535
   83640:	1080008c 	andi	r2,r2,2
   83644:	1005003a 	cmpeq	r2,r2,zero
   83648:	10000b1e 	bne	r2,zero,83678 <sd_card_is_FAT16+0x64>
		{
			if (initialized == false)
   8364c:	d0a6b917 	ldw	r2,-25884(gp)
   83650:	1004c03a 	cmpne	r2,r2,zero
   83654:	10000a1e 	bne	r2,zero,83680 <sd_card_is_FAT16+0x6c>
			{
				// Now determine if the card is formatted as FAT 16.
				is_sd_card_formated_as_FAT16 = Look_for_FAT16();
   83658:	00818e40 	call	818e4 <Look_for_FAT16>
   8365c:	d0a6ba15 	stw	r2,-25880(gp)
				initialized = is_sd_card_formated_as_FAT16;
   83660:	d0a6ba17 	ldw	r2,-25880(gp)
   83664:	d0a6b915 	stw	r2,-25884(gp)
				search_data.valid = false;
   83668:	00800374 	movhi	r2,13
   8366c:	10b81b04 	addi	r2,r2,-8084
   83670:	10000415 	stw	zero,16(r2)
   83674:	00000206 	br	83680 <sd_card_is_FAT16+0x6c>
			}
		}
		else
		{
			// If not then you may as well not open the device.
			initialized = false;
   83678:	d026b915 	stw	zero,-25884(gp)
			is_sd_card_formated_as_FAT16 = false;
   8367c:	d026ba15 	stw	zero,-25880(gp)
		}
		result = is_sd_card_formated_as_FAT16;
   83680:	d0a6ba17 	ldw	r2,-25880(gp)
   83684:	e0bfff15 	stw	r2,-4(fp)
	}

	return result;
   83688:	e0bfff17 	ldw	r2,-4(fp)
}
   8368c:	e037883a 	mov	sp,fp
   83690:	dfc00117 	ldw	ra,4(sp)
   83694:	df000017 	ldw	fp,0(sp)
   83698:	dec00204 	addi	sp,sp,8
   8369c:	f800283a 	ret

000836a0 <sd_card_find_first>:
 * "first/sub/." - look through a directory named "sub", that is located within the subdirectory named "first". "first" is located in the root directory.
 * Invalid examples include:
 * "/.", "/////." - this is not the root directory.
 * "/first/." - the first character may not be a '/'.
 */
{
   836a0:	deffea04 	addi	sp,sp,-88
   836a4:	dfc01515 	stw	ra,84(sp)
   836a8:	df001415 	stw	fp,80(sp)
   836ac:	df001404 	addi	fp,sp,80
   836b0:	e13ffe15 	stw	r4,-8(fp)
   836b4:	e17fff15 	stw	r5,-4(fp)
	short int result = 2;
   836b8:	00800084 	movi	r2,2
   836bc:	e0bfec0d 	sth	r2,-80(fp)
	if ((sd_card_is_Present()) && (is_sd_card_formated_as_FAT16))
   836c0:	00835c80 	call	835c8 <sd_card_is_Present>
   836c4:	1005003a 	cmpeq	r2,r2,zero
   836c8:	1000241e 	bne	r2,zero,8375c <sd_card_find_first+0xbc>
   836cc:	d0a6ba17 	ldw	r2,-25880(gp)
   836d0:	1005003a 	cmpeq	r2,r2,zero
   836d4:	1000211e 	bne	r2,zero,8375c <sd_card_find_first+0xbc>
	{
		int home_directory_cluster;
		t_file_record file_record;

		if (get_home_directory_cluster_for_file(directory_to_search_through, &home_directory_cluster, &file_record))
   836d8:	e17fed04 	addi	r5,fp,-76
   836dc:	e1bfee04 	addi	r6,fp,-72
   836e0:	e13ffe17 	ldw	r4,-8(fp)
   836e4:	00821140 	call	82114 <get_home_directory_cluster_for_file>
   836e8:	1005003a 	cmpeq	r2,r2,zero
   836ec:	1000191e 	bne	r2,zero,83754 <sd_card_find_first+0xb4>
		{
			search_data.directory_root_cluster = home_directory_cluster;
   836f0:	e0bfed17 	ldw	r2,-76(fp)
   836f4:	1007883a 	mov	r3,r2
   836f8:	00800374 	movhi	r2,13
   836fc:	10b81b04 	addi	r2,r2,-8084
   83700:	10c00015 	stw	r3,0(r2)
			search_data.current_cluster_index = home_directory_cluster;
   83704:	e0bfed17 	ldw	r2,-76(fp)
   83708:	1007883a 	mov	r3,r2
   8370c:	00800374 	movhi	r2,13
   83710:	10b81b04 	addi	r2,r2,-8084
   83714:	10c00115 	stw	r3,4(r2)
			search_data.current_sector_in_cluster = 0;
   83718:	00800374 	movhi	r2,13
   8371c:	10b81b04 	addi	r2,r2,-8084
   83720:	10000215 	stw	zero,8(r2)
			search_data.file_index_in_sector = -1;
   83724:	00c00374 	movhi	r3,13
   83728:	18f81b04 	addi	r3,r3,-8084
   8372c:	00bfffc4 	movi	r2,-1
   83730:	1880030d 	sth	r2,12(r3)
			search_data.valid = true;
   83734:	00c00374 	movhi	r3,13
   83738:	18f81b04 	addi	r3,r3,-8084
   8373c:	00800044 	movi	r2,1
   83740:	18800415 	stw	r2,16(r3)
			result = sd_card_find_next(file_name);
   83744:	e13fff17 	ldw	r4,-4(fp)
   83748:	00837740 	call	83774 <sd_card_find_next>
   8374c:	e0bfec0d 	sth	r2,-80(fp)
   83750:	00000206 	br	8375c <sd_card_find_first+0xbc>
		}
		else
		{
			result = 1;
   83754:	00800044 	movi	r2,1
   83758:	e0bfec0d 	sth	r2,-80(fp)
		}
	}
	return result;
   8375c:	e0bfec0f 	ldh	r2,-80(fp)
}
   83760:	e037883a 	mov	sp,fp
   83764:	dfc00117 	ldw	ra,4(sp)
   83768:	df000017 	ldw	fp,0(sp)
   8376c:	dec00204 	addi	sp,sp,8
   83770:	f800283a 	ret

00083774 <sd_card_find_next>:
 *		-1 - end of directory.
 *		0 - success
 *		2 - No card or incorrect card format.
 *		3 - find_first has not been called successfully.
 */
{
   83774:	deffe404 	addi	sp,sp,-112
   83778:	dfc01b15 	stw	ra,108(sp)
   8377c:	df001a15 	stw	fp,104(sp)
   83780:	df001a04 	addi	fp,sp,104
   83784:	e13ffe15 	stw	r4,-8(fp)
	short int result = 2;
   83788:	00800084 	movi	r2,2
   8378c:	e0bfed0d 	sth	r2,-76(fp)
	if ((sd_card_is_Present()) && (is_sd_card_formated_as_FAT16))
   83790:	00835c80 	call	835c8 <sd_card_is_Present>
   83794:	1005003a 	cmpeq	r2,r2,zero
   83798:	1000d81e 	bne	r2,zero,83afc <sd_card_find_next+0x388>
   8379c:	d0a6ba17 	ldw	r2,-25880(gp)
   837a0:	1005003a 	cmpeq	r2,r2,zero
   837a4:	1000d51e 	bne	r2,zero,83afc <sd_card_find_next+0x388>
	{
		if (search_data.valid)
   837a8:	00800374 	movhi	r2,13
   837ac:	10b81b04 	addi	r2,r2,-8084
   837b0:	10800417 	ldw	r2,16(r2)
   837b4:	1005003a 	cmpeq	r2,r2,zero
   837b8:	1000ce1e 	bne	r2,zero,83af4 <sd_card_find_next+0x380>
		{
			t_file_record file_record;
			int cluster = search_data.current_cluster_index;
   837bc:	00800374 	movhi	r2,13
   837c0:	10b81b04 	addi	r2,r2,-8084
   837c4:	10800117 	ldw	r2,4(r2)
   837c8:	e0bfec15 	stw	r2,-80(fp)

			if (cluster == 0)
   837cc:	e0bfec17 	ldw	r2,-80(fp)
   837d0:	1004c03a 	cmpne	r2,r2,zero
   837d4:	1000521e 	bne	r2,zero,83920 <sd_card_find_next+0x1ac>
			{
				// Searching through the root directory
				int max_root_dir_sectors = ((32*boot_sector_data.max_number_of_dir_entires) / boot_sector_data.sector_size_in_bytes);
   837d8:	00800374 	movhi	r2,13
   837dc:	10b82004 	addi	r2,r2,-8064
   837e0:	1080050b 	ldhu	r2,20(r2)
   837e4:	10bfffcc 	andi	r2,r2,65535
   837e8:	1008917a 	slli	r4,r2,5
   837ec:	00800374 	movhi	r2,13
   837f0:	10b82004 	addi	r2,r2,-8064
   837f4:	1080030b 	ldhu	r2,12(r2)
   837f8:	117fffcc 	andi	r5,r2,65535
   837fc:	00858ac0 	call	858ac <__divsi3>
   83800:	e0bfeb15 	stw	r2,-84(fp)
				int sector_index = search_data.current_sector_in_cluster;
   83804:	00800374 	movhi	r2,13
   83808:	10b81b04 	addi	r2,r2,-8084
   8380c:	10800217 	ldw	r2,8(r2)
   83810:	e0bfea15 	stw	r2,-88(fp)
				int file_counter = search_data.file_index_in_sector+1;
   83814:	00800374 	movhi	r2,13
   83818:	10b81b04 	addi	r2,r2,-8084
   8381c:	1080030b 	ldhu	r2,12(r2)
   83820:	10bfffcc 	andi	r2,r2,65535
   83824:	10a0001c 	xori	r2,r2,32768
   83828:	10a00004 	addi	r2,r2,-32768
   8382c:	10800044 	addi	r2,r2,1
   83830:	e0bfe915 	stw	r2,-92(fp)
    
				for (sector_index = 0; sector_index < max_root_dir_sectors; sector_index++)
   83834:	e03fea15 	stw	zero,-88(fp)
   83838:	00003306 	br	83908 <sd_card_find_next+0x194>
				{
					if (Read_Sector_Data(   sector_index + boot_sector_data.root_directory_sector_offset,
   8383c:	00800374 	movhi	r2,13
   83840:	10b82004 	addi	r2,r2,-8064
   83844:	10c01317 	ldw	r3,76(r2)
   83848:	e0bfea17 	ldw	r2,-88(fp)
   8384c:	1885883a 	add	r2,r3,r2
   83850:	1009883a 	mov	r4,r2
   83854:	d166c017 	ldw	r5,-25856(gp)
   83858:	0080c0c0 	call	80c0c <Read_Sector_Data>
   8385c:	1005003a 	cmpeq	r2,r2,zero
   83860:	10002c1e 	bne	r2,zero,83914 <sd_card_find_next+0x1a0>
											fat_partition_offset_in_512_byte_sectors))
					{
						for (; file_counter < 16; file_counter++)
   83864:	00002106 	br	838ec <sd_card_find_next+0x178>
						{
							if (Read_File_Record_At_Offset(file_counter*32, &file_record, 0, sector_index))
   83868:	e0bfe917 	ldw	r2,-92(fp)
   8386c:	1008917a 	slli	r4,r2,5
   83870:	e1ffea17 	ldw	r7,-88(fp)
   83874:	e17fee04 	addi	r5,fp,-72
   83878:	000d883a 	mov	r6,zero
   8387c:	0080fd00 	call	80fd0 <Read_File_Record_At_Offset>
   83880:	1005003a 	cmpeq	r2,r2,zero
   83884:	1000161e 	bne	r2,zero,838e0 <sd_card_find_next+0x16c>
							{
								if ((file_record.name[0] != 0) && (file_record.name[0] != 0xe5))
   83888:	e0bfee03 	ldbu	r2,-72(fp)
   8388c:	10803fcc 	andi	r2,r2,255
   83890:	1005003a 	cmpeq	r2,r2,zero
   83894:	1000121e 	bne	r2,zero,838e0 <sd_card_find_next+0x16c>
   83898:	e0bfee03 	ldbu	r2,-72(fp)
   8389c:	10803fcc 	andi	r2,r2,255
   838a0:	10803960 	cmpeqi	r2,r2,229
   838a4:	10000e1e 	bne	r2,zero,838e0 <sd_card_find_next+0x16c>
								{
									/* Update search structure. */
									search_data.file_index_in_sector = file_counter;
   838a8:	e0bfe917 	ldw	r2,-92(fp)
   838ac:	1007883a 	mov	r3,r2
   838b0:	00800374 	movhi	r2,13
   838b4:	10b81b04 	addi	r2,r2,-8084
   838b8:	10c0030d 	sth	r3,12(r2)
									search_data.current_sector_in_cluster = sector_index;
   838bc:	e0ffea17 	ldw	r3,-88(fp)
   838c0:	00800374 	movhi	r2,13
   838c4:	10b81b04 	addi	r2,r2,-8084
   838c8:	10c00215 	stw	r3,8(r2)

									/* Copy file name.*/
									copy_file_record_name_to_string(&file_record, file_name);
   838cc:	e13fee04 	addi	r4,fp,-72
   838d0:	e17ffe17 	ldw	r5,-8(fp)
   838d4:	008341c0 	call	8341c <copy_file_record_name_to_string>
									return 0;
   838d8:	e03fff15 	stw	zero,-4(fp)
   838dc:	00008906 	br	83b04 <sd_card_find_next+0x390>
				for (sector_index = 0; sector_index < max_root_dir_sectors; sector_index++)
				{
					if (Read_Sector_Data(   sector_index + boot_sector_data.root_directory_sector_offset,
											fat_partition_offset_in_512_byte_sectors))
					{
						for (; file_counter < 16; file_counter++)
   838e0:	e0bfe917 	ldw	r2,-92(fp)
   838e4:	10800044 	addi	r2,r2,1
   838e8:	e0bfe915 	stw	r2,-92(fp)
   838ec:	e0bfe917 	ldw	r2,-92(fp)
   838f0:	10800410 	cmplti	r2,r2,16
   838f4:	103fdc1e 	bne	r2,zero,83868 <sd_card_find_next+0xf4>
									copy_file_record_name_to_string(&file_record, file_name);
									return 0;
								}
							}
						}
						file_counter = 0;
   838f8:	e03fe915 	stw	zero,-92(fp)
				// Searching through the root directory
				int max_root_dir_sectors = ((32*boot_sector_data.max_number_of_dir_entires) / boot_sector_data.sector_size_in_bytes);
				int sector_index = search_data.current_sector_in_cluster;
				int file_counter = search_data.file_index_in_sector+1;
    
				for (sector_index = 0; sector_index < max_root_dir_sectors; sector_index++)
   838fc:	e0bfea17 	ldw	r2,-88(fp)
   83900:	10800044 	addi	r2,r2,1
   83904:	e0bfea15 	stw	r2,-88(fp)
   83908:	e0ffea17 	ldw	r3,-88(fp)
   8390c:	e0bfeb17 	ldw	r2,-84(fp)
   83910:	18bfca16 	blt	r3,r2,8383c <sd_card_find_next+0xc8>
					else
					{
						break;
					}
				}
				result = -1;
   83914:	00bfffc4 	movi	r2,-1
   83918:	e0bfed0d 	sth	r2,-76(fp)
   8391c:	00007706 	br	83afc <sd_card_find_next+0x388>
			}
			else
			{
				int file_counter = search_data.file_index_in_sector+1;
   83920:	00800374 	movhi	r2,13
   83924:	10b81b04 	addi	r2,r2,-8084
   83928:	1080030b 	ldhu	r2,12(r2)
   8392c:	10bfffcc 	andi	r2,r2,65535
   83930:	10a0001c 	xori	r2,r2,32768
   83934:	10a00004 	addi	r2,r2,-32768
   83938:	10800044 	addi	r2,r2,1
   8393c:	e0bfe815 	stw	r2,-96(fp)
				do 
				{
					int start_sector = ( cluster - 2 ) * ( boot_sector_data.sectors_per_cluster ) + boot_sector_data.data_sector_offset;
   83940:	e0bfec17 	ldw	r2,-80(fp)
   83944:	113fff84 	addi	r4,r2,-2
   83948:	00800374 	movhi	r2,13
   8394c:	10b82004 	addi	r2,r2,-8064
   83950:	10800383 	ldbu	r2,14(r2)
   83954:	11403fcc 	andi	r5,r2,255
   83958:	008597c0 	call	8597c <__mulsi3>
   8395c:	1007883a 	mov	r3,r2
   83960:	00800374 	movhi	r2,13
   83964:	10b82004 	addi	r2,r2,-8064
   83968:	10801417 	ldw	r2,80(r2)
   8396c:	1885883a 	add	r2,r3,r2
   83970:	e0bfe715 	stw	r2,-100(fp)
					int sector_index;
			        
					for (sector_index = 0; sector_index < boot_sector_data.sectors_per_cluster; sector_index++)
   83974:	e03fe615 	stw	zero,-104(fp)
   83978:	00003406 	br	83a4c <sd_card_find_next+0x2d8>
					{
						if (Read_Sector_Data(sector_index + start_sector, fat_partition_offset_in_512_byte_sectors))
   8397c:	e0ffe617 	ldw	r3,-104(fp)
   83980:	e0bfe717 	ldw	r2,-100(fp)
   83984:	1889883a 	add	r4,r3,r2
   83988:	d166c017 	ldw	r5,-25856(gp)
   8398c:	0080c0c0 	call	80c0c <Read_Sector_Data>
   83990:	1005003a 	cmpeq	r2,r2,zero
   83994:	1000331e 	bne	r2,zero,83a64 <sd_card_find_next+0x2f0>
						{        
							for (; file_counter < 16; file_counter++)
   83998:	00002506 	br	83a30 <sd_card_find_next+0x2bc>
							{
								if (Read_File_Record_At_Offset(file_counter*32, &file_record, cluster, sector_index))
   8399c:	e0bfe817 	ldw	r2,-96(fp)
   839a0:	1008917a 	slli	r4,r2,5
   839a4:	e1bfec17 	ldw	r6,-80(fp)
   839a8:	e1ffe617 	ldw	r7,-104(fp)
   839ac:	e17fee04 	addi	r5,fp,-72
   839b0:	0080fd00 	call	80fd0 <Read_File_Record_At_Offset>
   839b4:	1005003a 	cmpeq	r2,r2,zero
   839b8:	10001a1e 	bne	r2,zero,83a24 <sd_card_find_next+0x2b0>
								{
									if ((file_record.name[0] != 0) && (file_record.name[0] != 0xe5))
   839bc:	e0bfee03 	ldbu	r2,-72(fp)
   839c0:	10803fcc 	andi	r2,r2,255
   839c4:	1005003a 	cmpeq	r2,r2,zero
   839c8:	1000161e 	bne	r2,zero,83a24 <sd_card_find_next+0x2b0>
   839cc:	e0bfee03 	ldbu	r2,-72(fp)
   839d0:	10803fcc 	andi	r2,r2,255
   839d4:	10803960 	cmpeqi	r2,r2,229
   839d8:	1000121e 	bne	r2,zero,83a24 <sd_card_find_next+0x2b0>
									{
										/* Update search structure. */
										search_data.current_cluster_index = cluster;
   839dc:	e0ffec17 	ldw	r3,-80(fp)
   839e0:	00800374 	movhi	r2,13
   839e4:	10b81b04 	addi	r2,r2,-8084
   839e8:	10c00115 	stw	r3,4(r2)
										search_data.file_index_in_sector = file_counter;
   839ec:	e0bfe817 	ldw	r2,-96(fp)
   839f0:	1007883a 	mov	r3,r2
   839f4:	00800374 	movhi	r2,13
   839f8:	10b81b04 	addi	r2,r2,-8084
   839fc:	10c0030d 	sth	r3,12(r2)
										search_data.current_sector_in_cluster = sector_index;
   83a00:	e0ffe617 	ldw	r3,-104(fp)
   83a04:	00800374 	movhi	r2,13
   83a08:	10b81b04 	addi	r2,r2,-8084
   83a0c:	10c00215 	stw	r3,8(r2)

										/* Copy file name.*/
										copy_file_record_name_to_string(&file_record, file_name);
   83a10:	e13fee04 	addi	r4,fp,-72
   83a14:	e17ffe17 	ldw	r5,-8(fp)
   83a18:	008341c0 	call	8341c <copy_file_record_name_to_string>
										return 0;
   83a1c:	e03fff15 	stw	zero,-4(fp)
   83a20:	00003806 	br	83b04 <sd_card_find_next+0x390>
			        
					for (sector_index = 0; sector_index < boot_sector_data.sectors_per_cluster; sector_index++)
					{
						if (Read_Sector_Data(sector_index + start_sector, fat_partition_offset_in_512_byte_sectors))
						{        
							for (; file_counter < 16; file_counter++)
   83a24:	e0bfe817 	ldw	r2,-96(fp)
   83a28:	10800044 	addi	r2,r2,1
   83a2c:	e0bfe815 	stw	r2,-96(fp)
   83a30:	e0bfe817 	ldw	r2,-96(fp)
   83a34:	10800410 	cmplti	r2,r2,16
   83a38:	103fd81e 	bne	r2,zero,8399c <sd_card_find_next+0x228>
										copy_file_record_name_to_string(&file_record, file_name);
										return 0;
									}
								}
							}
							file_counter = 0;
   83a3c:	e03fe815 	stw	zero,-96(fp)
				do 
				{
					int start_sector = ( cluster - 2 ) * ( boot_sector_data.sectors_per_cluster ) + boot_sector_data.data_sector_offset;
					int sector_index;
			        
					for (sector_index = 0; sector_index < boot_sector_data.sectors_per_cluster; sector_index++)
   83a40:	e0bfe617 	ldw	r2,-104(fp)
   83a44:	10800044 	addi	r2,r2,1
   83a48:	e0bfe615 	stw	r2,-104(fp)
   83a4c:	00800374 	movhi	r2,13
   83a50:	10b82004 	addi	r2,r2,-8064
   83a54:	10800383 	ldbu	r2,14(r2)
   83a58:	10c03fcc 	andi	r3,r2,255
   83a5c:	e0bfe617 	ldw	r2,-104(fp)
   83a60:	10ffc616 	blt	r2,r3,8397c <sd_card_find_next+0x208>
							break;
						}
					}
					// If this is the end of the cluster and the file has not been found, then see if there is another cluster
					// that holds data for the current directory.
					if (sector_index >= boot_sector_data.sectors_per_cluster)
   83a64:	00800374 	movhi	r2,13
   83a68:	10b82004 	addi	r2,r2,-8064
   83a6c:	10800383 	ldbu	r2,14(r2)
   83a70:	10c03fcc 	andi	r3,r2,255
   83a74:	e0bfe617 	ldw	r2,-104(fp)
   83a78:	10c01a16 	blt	r2,r3,83ae4 <sd_card_find_next+0x370>
					{
						short int new_cluster;

						if (get_cluster_flag(cluster, &new_cluster))
   83a7c:	e13fec17 	ldw	r4,-80(fp)
   83a80:	e17fed84 	addi	r5,fp,-74
   83a84:	0080cfc0 	call	80cfc <get_cluster_flag>
   83a88:	1005003a 	cmpeq	r2,r2,zero
   83a8c:	1000131e 	bne	r2,zero,83adc <sd_card_find_next+0x368>
						{
							if ((new_cluster & 0x0000fff8) == 0x0000fff8)
   83a90:	e0bfed8b 	ldhu	r2,-74(fp)
   83a94:	10bfffcc 	andi	r2,r2,65535
   83a98:	10a0001c 	xori	r2,r2,32768
   83a9c:	10a00004 	addi	r2,r2,-32768
   83aa0:	10fffe0c 	andi	r3,r2,65528
   83aa4:	00bffe14 	movui	r2,65528
   83aa8:	1880051e 	bne	r3,r2,83ac0 <sd_card_find_next+0x34c>
							{
								result = -1;
   83aac:	00bfffc4 	movi	r2,-1
   83ab0:	e0bfed0d 	sth	r2,-76(fp)
								search_data.valid = false;
   83ab4:	00800374 	movhi	r2,13
   83ab8:	10b81b04 	addi	r2,r2,-8084
   83abc:	10000415 	stw	zero,16(r2)
							}
							cluster = ((new_cluster) & 0x0000fff8);
   83ac0:	e0bfed8b 	ldhu	r2,-74(fp)
   83ac4:	10bfffcc 	andi	r2,r2,65535
   83ac8:	10a0001c 	xori	r2,r2,32768
   83acc:	10a00004 	addi	r2,r2,-32768
   83ad0:	10bffe0c 	andi	r2,r2,65528
   83ad4:	e0bfec15 	stw	r2,-80(fp)
   83ad8:	00000206 	br	83ae4 <sd_card_find_next+0x370>
						}
						else
						{
							// Error encountered.                 
							result = -1;
   83adc:	00bfffc4 	movi	r2,-1
   83ae0:	e0bfed0d 	sth	r2,-76(fp)
						}
					}              
				} while (cluster < 0x0000fff8);
   83ae4:	e0ffec17 	ldw	r3,-80(fp)
   83ae8:	00bffdd4 	movui	r2,65527
   83aec:	10ff940e 	bge	r2,r3,83940 <sd_card_find_next+0x1cc>
   83af0:	00000206 	br	83afc <sd_card_find_next+0x388>
			}
		}
		else
		{
			// Call Find_First first.
			result = 3;
   83af4:	008000c4 	movi	r2,3
   83af8:	e0bfed0d 	sth	r2,-76(fp)
		}
	}
	return result;
   83afc:	e0bfed0f 	ldh	r2,-76(fp)
   83b00:	e0bfff15 	stw	r2,-4(fp)
   83b04:	e0bfff17 	ldw	r2,-4(fp)
}
   83b08:	e037883a 	mov	sp,fp
   83b0c:	dfc00117 	ldw	ra,4(sp)
   83b10:	df000017 	ldw	fp,0(sp)
   83b14:	dec00204 	addi	sp,sp,8
   83b18:	f800283a 	ret

00083b1c <sd_card_fopen>:
 *      create - a flag set to true to create a file if it does not already exist
 * Output:
 *      An index to the file record assigned to the specified file. -1 is returned if the file could not be opened.
 *		Return -2 if the specified file has already been opened previously.
 */
{
   83b1c:	deffe804 	addi	sp,sp,-96
   83b20:	dfc01715 	stw	ra,92(sp)
   83b24:	df001615 	stw	fp,88(sp)
   83b28:	df001604 	addi	fp,sp,88
   83b2c:	e13ffd15 	stw	r4,-12(fp)
   83b30:	e17ffe15 	stw	r5,-8(fp)
	short int file_record_index = -1;
   83b34:	00bfffc4 	movi	r2,-1
   83b38:	e0bfeb0d 	sth	r2,-84(fp)

	if ((sd_card_is_Present()) && (is_sd_card_formated_as_FAT16))
   83b3c:	00835c80 	call	835c8 <sd_card_is_Present>
   83b40:	1005003a 	cmpeq	r2,r2,zero
   83b44:	1000d71e 	bne	r2,zero,83ea4 <sd_card_fopen+0x388>
   83b48:	d0a6ba17 	ldw	r2,-25880(gp)
   83b4c:	1005003a 	cmpeq	r2,r2,zero
   83b50:	1000d41e 	bne	r2,zero,83ea4 <sd_card_fopen+0x388>
	{
        unsigned int home_directory_cluster = 0;
   83b54:	e03fec15 	stw	zero,-80(fp)
         * Rules:
         *  - no spaces
         *  - at most 12 chatacters per name, with a period in 9th position.
         *  - a / or a \ every at most 12 characters.
         */
        filename_to_upper_case(name);
   83b58:	e13ffd17 	ldw	r4,-12(fp)
   83b5c:	0081a080 	call	81a08 <filename_to_upper_case>
        if (check_file_name_for_FAT16_compliance(name))
   83b60:	e13ffd17 	ldw	r4,-12(fp)
   83b64:	0081ad80 	call	81ad8 <check_file_name_for_FAT16_compliance>
   83b68:	1005003a 	cmpeq	r2,r2,zero
   83b6c:	1000cd1e 	bne	r2,zero,83ea4 <sd_card_fopen+0x388>
        {
			int index;

            /* Get home directory cluster location for the specified file. 0 means root directory. */
            if (!get_home_directory_cluster_for_file(name, &home_directory_cluster, &home_dir))
   83b70:	e17fec04 	addi	r5,fp,-80
   83b74:	e1bfed04 	addi	r6,fp,-76
   83b78:	e13ffd17 	ldw	r4,-12(fp)
   83b7c:	00821140 	call	82114 <get_home_directory_cluster_for_file>
   83b80:	1004c03a 	cmpne	r2,r2,zero
   83b84:	1000031e 	bne	r2,zero,83b94 <sd_card_fopen+0x78>
            {
                return file_record_index;
   83b88:	e0bfeb0f 	ldh	r2,-84(fp)
   83b8c:	e0bfff15 	stw	r2,-4(fp)
   83b90:	0000c606 	br	83eac <sd_card_fopen+0x390>
            }
            
    		/* Find a free file slot to store file specs in. */
    		for (index = 0; index < MAX_FILES_OPENED; index++)
   83b94:	e03fea15 	stw	zero,-88(fp)
   83b98:	00000f06 	br	83bd8 <sd_card_fopen+0xbc>
    		{
    			if (active_files[index].in_use == false)
   83b9c:	e0bfea17 	ldw	r2,-88(fp)
   83ba0:	00c00374 	movhi	r3,13
   83ba4:	18f83504 	addi	r3,r3,-7980
   83ba8:	100491ba 	slli	r2,r2,6
   83bac:	10c5883a 	add	r2,r2,r3
   83bb0:	10800f04 	addi	r2,r2,60
   83bb4:	10800017 	ldw	r2,0(r2)
   83bb8:	1004c03a 	cmpne	r2,r2,zero
   83bbc:	1000031e 	bne	r2,zero,83bcc <sd_card_fopen+0xb0>
    			{
    				file_record_index = index;
   83bc0:	e0bfea17 	ldw	r2,-88(fp)
   83bc4:	e0bfeb0d 	sth	r2,-84(fp)
    				break;
   83bc8:	00000606 	br	83be4 <sd_card_fopen+0xc8>
            {
                return file_record_index;
            }
            
    		/* Find a free file slot to store file specs in. */
    		for (index = 0; index < MAX_FILES_OPENED; index++)
   83bcc:	e0bfea17 	ldw	r2,-88(fp)
   83bd0:	10800044 	addi	r2,r2,1
   83bd4:	e0bfea15 	stw	r2,-88(fp)
   83bd8:	e0bfea17 	ldw	r2,-88(fp)
   83bdc:	10800510 	cmplti	r2,r2,20
   83be0:	103fee1e 	bne	r2,zero,83b9c <sd_card_fopen+0x80>
    			{
    				file_record_index = index;
    				break;
    			}
    		}
    		if (file_record_index >= 0)
   83be4:	e0bfeb0f 	ldh	r2,-84(fp)
   83be8:	1004803a 	cmplt	r2,r2,zero
   83bec:	1000ad1e 	bne	r2,zero,83ea4 <sd_card_fopen+0x388>
    		{
    			/* If file record is found, then look for the specified file. If the create flag is set to true 
    			 * and the file is not found, then it should be created in the current directory. 
    			 */
                
                if (find_file_in_directory(home_directory_cluster, name, &(active_files[file_record_index])))
   83bf0:	e0bfec17 	ldw	r2,-80(fp)
   83bf4:	1009883a 	mov	r4,r2
   83bf8:	e0bfeb0f 	ldh	r2,-84(fp)
   83bfc:	100491ba 	slli	r2,r2,6
   83c00:	1007883a 	mov	r3,r2
   83c04:	00800374 	movhi	r2,13
   83c08:	10b83504 	addi	r2,r2,-7980
   83c0c:	188d883a 	add	r6,r3,r2
   83c10:	e17ffd17 	ldw	r5,-12(fp)
   83c14:	00826280 	call	82628 <find_file_in_directory>
   83c18:	1005003a 	cmpeq	r2,r2,zero
   83c1c:	10007d1e 	bne	r2,zero,83e14 <sd_card_fopen+0x2f8>
                {
                    if (create)
   83c20:	e0bffe17 	ldw	r2,-8(fp)
   83c24:	1005003a 	cmpeq	r2,r2,zero
   83c28:	1000031e 	bne	r2,zero,83c38 <sd_card_fopen+0x11c>
                    {
                        /* Do not allow overwriting existing files for now. */
                        return -1;
   83c2c:	00bfffc4 	movi	r2,-1
   83c30:	e0bfff15 	stw	r2,-4(fp)
   83c34:	00009d06 	br	83eac <sd_card_fopen+0x390>
                    }
                    active_files[file_record_index].current_cluster_index = active_files[file_record_index].start_cluster_index;
   83c38:	e17feb0f 	ldh	r5,-84(fp)
   83c3c:	e0bfeb0f 	ldh	r2,-84(fp)
   83c40:	00c00374 	movhi	r3,13
   83c44:	18f83504 	addi	r3,r3,-7980
   83c48:	100491ba 	slli	r2,r2,6
   83c4c:	10c5883a 	add	r2,r2,r3
   83c50:	10800504 	addi	r2,r2,20
   83c54:	1080008b 	ldhu	r2,2(r2)
   83c58:	113fffcc 	andi	r4,r2,65535
   83c5c:	00c00374 	movhi	r3,13
   83c60:	18f83504 	addi	r3,r3,-7980
   83c64:	280491ba 	slli	r2,r5,6
   83c68:	10c5883a 	add	r2,r2,r3
   83c6c:	10800704 	addi	r2,r2,28
   83c70:	11000015 	stw	r4,0(r2)
