
experiment2.elf:     file format elf32-littlenios2
experiment2.elf
architecture: nios2, flags 0x00000112:
EXEC_P, HAS_SYMS, D_PAGED
start address 0x000801bc

Program Header:
    LOAD off    0x00001000 vaddr 0x00080000 paddr 0x00080000 align 2**12
         filesz 0x00000020 memsz 0x00000020 flags r-x
    LOAD off    0x00001020 vaddr 0x00080020 paddr 0x00080020 align 2**12
         filesz 0x000201d4 memsz 0x000201d4 flags r-x
    LOAD off    0x000211f4 vaddr 0x000a01f4 paddr 0x000a1d34 align 2**12
         filesz 0x00001b40 memsz 0x00001b40 flags rw-
    LOAD off    0x00023874 vaddr 0x000a3874 paddr 0x000a3874 align 2**12
         filesz 0x00000000 memsz 0x00015554 flags rw-

Sections:
Idx Name          Size      VMA       LMA       File off  Algn
  0 .entry        00000020  00080000  00080000  00001000  2**5
                  CONTENTS, ALLOC, LOAD, READONLY, CODE
  1 .exceptions   0000019c  00080020  00080020  00001020  2**2
                  CONTENTS, ALLOC, LOAD, READONLY, CODE
  2 .text         0001f48c  000801bc  000801bc  000011bc  2**2
                  CONTENTS, ALLOC, LOAD, READONLY, CODE
  3 .rodata       00000bac  0009f648  0009f648  00020648  2**2
                  CONTENTS, ALLOC, LOAD, READONLY, DATA
  4 .rwdata       00001b40  000a01f4  000a1d34  000211f4  2**2
                  CONTENTS, ALLOC, LOAD, DATA, SMALL_DATA
  5 .bss          00015554  000a3874  000a3874  00023874  2**2
                  ALLOC, SMALL_DATA
  6 .comment      00000023  00000000  00000000  00022d34  2**0
                  CONTENTS, READONLY
  7 .debug_aranges 00000f98  00000000  00000000  00022d58  2**3
                  CONTENTS, READONLY, DEBUGGING
  8 .debug_pubnames 00002cef  00000000  00000000  00023cf0  2**0
                  CONTENTS, READONLY, DEBUGGING
  9 .debug_info   000399f9  00000000  00000000  000269df  2**0
                  CONTENTS, READONLY, DEBUGGING
 10 .debug_abbrev 0000a86b  00000000  00000000  000603d8  2**0
                  CONTENTS, READONLY, DEBUGGING
 11 .debug_line   00021968  00000000  00000000  0006ac43  2**0
                  CONTENTS, READONLY, DEBUGGING
 12 .debug_frame  00002f20  00000000  00000000  0008c5ac  2**2
                  CONTENTS, READONLY, DEBUGGING
 13 .debug_str    000029d1  00000000  00000000  0008f4cc  2**0
                  CONTENTS, READONLY, DEBUGGING
 14 .debug_loc    0000e363  00000000  00000000  00091e9d  2**0
                  CONTENTS, READONLY, DEBUGGING
 15 .debug_alt_sim_info 00000010  00000000  00000000  000a0200  2**2
                  CONTENTS, READONLY, DEBUGGING
 16 .debug_ranges 000009f8  00000000  00000000  000a0210  2**3
                  CONTENTS, READONLY, DEBUGGING
 17 .thread_model 00000006  00000000  00000000  000a667d  2**0
                  CONTENTS, READONLY
 18 .cpu          00000005  00000000  00000000  000a6683  2**0
                  CONTENTS, READONLY
 19 .qsys         00000001  00000000  00000000  000a6688  2**0
                  CONTENTS, READONLY
 20 .simulation_enabled 00000001  00000000  00000000  000a6689  2**0
                  CONTENTS, READONLY
 21 .stderr_dev   0000000b  00000000  00000000  000a668a  2**0
                  CONTENTS, READONLY
 22 .stdin_dev    0000000b  00000000  00000000  000a6695  2**0
                  CONTENTS, READONLY
 23 .stdout_dev   0000000b  00000000  00000000  000a66a0  2**0
                  CONTENTS, READONLY
 24 .sopc_system_name 0000000b  00000000  00000000  000a66ab  2**0
                  CONTENTS, READONLY
 25 .quartus_project_dir 00000024  00000000  00000000  000a66b6  2**0
                  CONTENTS, READONLY
 26 .sopcinfo     000505eb  00000000  00000000  000a66da  2**0
                  CONTENTS, READONLY
SYMBOL TABLE:
00080000 l    d  .entry	00000000 .entry
00080020 l    d  .exceptions	00000000 .exceptions
000801bc l    d  .text	00000000 .text
0009f648 l    d  .rodata	00000000 .rodata
000a01f4 l    d  .rwdata	00000000 .rwdata
000a3874 l    d  .bss	00000000 .bss
00000000 l    d  .comment	00000000 .comment
00000000 l    d  .debug_aranges	00000000 .debug_aranges
00000000 l    d  .debug_pubnames	00000000 .debug_pubnames
00000000 l    d  .debug_info	00000000 .debug_info
00000000 l    d  .debug_abbrev	00000000 .debug_abbrev
00000000 l    d  .debug_line	00000000 .debug_line
00000000 l    d  .debug_frame	00000000 .debug_frame
00000000 l    d  .debug_str	00000000 .debug_str
00000000 l    d  .debug_loc	00000000 .debug_loc
00000000 l    d  .debug_alt_sim_info	00000000 .debug_alt_sim_info
00000000 l    d  .debug_ranges	00000000 .debug_ranges
000801f4 l       .text	00000000 alt_after_alt_main
00000000 l    df *ABS*	00000000 alt_irq_handler.c
00000000 l    df *ABS*	00000000 PB_button.c
00000000 l    df *ABS*	00000000 SD_card_controller.c
00000000 l    df *ABS*	00000000 alt_ucosii_simple_error_check.c
00000000 l    df *ABS*	00000000 experiment2.c
00000000 l    df *ABS*	00000000 tasks.c
00000000 l    df *ABS*	00000000 lib2-divmod.c
00087698 l     F .text	0000007c udivmodsi4
00000000 l    df *ABS*	00000000 lib2-mul.c
00000000 l    df *ABS*	00000000 fprintf.c
00000000 l    df *ABS*	00000000 fwrite.c
00000000 l    df *ABS*	00000000 impure.c
000a01f4 l     O .rwdata	00000400 impure_data
00000000 l    df *ABS*	00000000 printf.c
00000000 l    df *ABS*	00000000 putchar.c
00000000 l    df *ABS*	00000000 puts.c
00000000 l    df *ABS*	00000000 sprintf.c
00000000 l    df *ABS*	00000000 strlen.c
00000000 l    df *ABS*	00000000 vfprintf.c
00087c00 l     F .text	00000058 __sprint_r
0009fdda l     O .rodata	00000010 blanks.3452
0009fdca l     O .rodata	00000010 zeroes.3453
00000000 l    df *ABS*	00000000 wsetup.c
00000000 l    df *ABS*	00000000 dtoa.c
00089c7c l     F .text	00000244 quorem
00000000 l    df *ABS*	00000000 fflush.c
00000000 l    df *ABS*	00000000 findfp.c
0008b6a4 l     F .text	00000058 std
0008b7b0 l     F .text	00000008 __fp_lock
0008b7b8 l     F .text	00000008 __fp_unlock
00000000 l    df *ABS*	00000000 mallocr.c
00000000 l    df *ABS*	00000000 fvwrite.c
00000000 l    df *ABS*	00000000 fwalk.c
00000000 l    df *ABS*	00000000 locale.c
000a1c84 l     O .rwdata	00000004 charset
0009fe0c l     O .rodata	00000030 lconv
00000000 l    df *ABS*	00000000 makebuf.c
00000000 l    df *ABS*	00000000 mallocr.c
00000000 l    df *ABS*	00000000 memchr.c
00000000 l    df *ABS*	00000000 memcpy.c
00000000 l    df *ABS*	00000000 memmove.c
00000000 l    df *ABS*	00000000 memset.c
00000000 l    df *ABS*	00000000 mprec.c
0009ff54 l     O .rodata	0000000c p05.2458
00000000 l    df *ABS*	00000000 putc.c
00000000 l    df *ABS*	00000000 mallocr.c
00000000 l    df *ABS*	00000000 s_isinfd.c
00000000 l    df *ABS*	00000000 s_isnand.c
00000000 l    df *ABS*	00000000 sbrkr.c
00000000 l    df *ABS*	00000000 stdio.c
00000000 l    df *ABS*	00000000 strcmp.c
00000000 l    df *ABS*	00000000 wbuf.c
00000000 l    df *ABS*	00000000 writer.c
00000000 l    df *ABS*	00000000 mallocr.c
00000000 l    df *ABS*	00000000 closer.c
00000000 l    df *ABS*	00000000 fclose.c
00000000 l    df *ABS*	00000000 fstatr.c
00000000 l    df *ABS*	00000000 int_errno.c
00000000 l    df *ABS*	00000000 isattyr.c
00000000 l    df *ABS*	00000000 lseekr.c
00000000 l    df *ABS*	00000000 readr.c
00000000 l    df *ABS*	00000000 libgcc2.c
00000000 l    df *ABS*	00000000 libgcc2.c
00000000 l    df *ABS*	00000000 dp-bit.c
0008fe9c l     F .text	00000410 _fpadd_parts
00000000 l    df *ABS*	00000000 dp-bit.c
00000000 l    df *ABS*	00000000 dp-bit.c
00000000 l    df *ABS*	00000000 dp-bit.c
00000000 l    df *ABS*	00000000 dp-bit.c
00000000 l    df *ABS*	00000000 dp-bit.c
00000000 l    df *ABS*	00000000 dp-bit.c
00000000 l    df *ABS*	00000000 dp-bit.c
00000000 l    df *ABS*	00000000 dp-bit.c
00000000 l    df *ABS*	00000000 dp-bit.c
00000000 l    df *ABS*	00000000 dp-bit.c
00000000 l    df *ABS*	00000000 dp-bit.c
00000000 l    df *ABS*	00000000 libgcc2.c
00000000 l    df *ABS*	00000000 libgcc2.c
00000000 l    df *ABS*	00000000 libgcc2.c
00000000 l    df *ABS*	00000000 dp-bit.c
00000000 l    df *ABS*	00000000 dp-bit.c
00000000 l    df *ABS*	00000000 dp-bit.c
00000000 l    df *ABS*	00000000 alt_close.c
00091780 l     F .text	00000060 alt_get_errno
00000000 l    df *ABS*	00000000 alt_dev.c
000917e0 l     F .text	0000002c alt_dev_null_write
00000000 l    df *ABS*	00000000 alt_errno.c
00000000 l    df *ABS*	00000000 alt_fstat.c
000918e4 l     F .text	00000060 alt_get_errno
00000000 l    df *ABS*	00000000 alt_irq_register.c
00000000 l    df *ABS*	00000000 alt_irq_vars.c
00000000 l    df *ABS*	00000000 alt_isatty.c
00091bc8 l     F .text	00000060 alt_get_errno
00000000 l    df *ABS*	00000000 alt_load.c
00091ca8 l     F .text	0000006c alt_load_section
00000000 l    df *ABS*	00000000 alt_lseek.c
00091e08 l     F .text	00000060 alt_get_errno
00000000 l    df *ABS*	00000000 alt_main.c
00000000 l    df *ABS*	00000000 alt_read.c
00092054 l     F .text	00000060 alt_get_errno
00000000 l    df *ABS*	00000000 alt_release_fd.c
00000000 l    df *ABS*	00000000 alt_sbrk.c
000a1cac l     O .rwdata	00000004 heap_end
00000000 l    df *ABS*	00000000 alt_write.c
0009230c l     F .text	00000060 alt_get_errno
00000000 l    df *ABS*	00000000 alt_env_lock.c
000a1cb0 l     O .rwdata	00000004 lockid
000a3904 l     O .bss	00000004 locks
00000000 l    df *ABS*	00000000 alt_malloc_lock.c
000a1cb4 l     O .rwdata	00000004 lockid
000a390c l     O .bss	00000004 locks
00000000 l    df *ABS*	00000000 os_core.c
00093d44 l     F .text	00000044 OS_InitMisc
00093d88 l     F .text	0000006c OS_InitRdyList
00093eec l     F .text	000000e0 OS_InitTCBList
00093c68 l     F .text	000000dc OS_InitEventList
00093df4 l     F .text	0000007c OS_InitTaskIdle
00093e70 l     F .text	0000007c OS_InitTaskStat
00094160 l     F .text	00000070 OS_SchedNew
00000000 l    df *ABS*	00000000 os_dbg.c
00000000 l    df *ABS*	00000000 os_flag.c
00096080 l     F .text	00000110 OS_FlagTaskRdy
00095dd8 l     F .text	000001c4 OS_FlagBlock
00000000 l    df *ABS*	00000000 os_mbox.c
00000000 l    df *ABS*	00000000 os_mem.c
00000000 l    df *ABS*	00000000 os_mutex.c
000988b4 l     F .text	000001c8 OSMutex_RdyAtPrio
00000000 l    df *ABS*	00000000 os_q.c
00000000 l    df *ABS*	00000000 os_sem.c
00000000 l    df *ABS*	00000000 os_task.c
00000000 l    df *ABS*	00000000 os_time.c
00000000 l    df *ABS*	00000000 alt_sys_init.c
000a0bb0 l     O .rwdata	0000106c jtag_uart_0
000a1c1c l     O .rwdata	0000002c character_lcd_0
000a1c48 l     O .rwdata	0000002c SD_CARD_0
0009ca30 l     F .text	00000038 alt_dev_reg
00000000 l    df *ABS*	00000000 altera_avalon_jtag_uart_fd.c
00000000 l    df *ABS*	00000000 altera_avalon_jtag_uart_init.c
0009cce8 l     F .text	000002c4 altera_avalon_jtag_uart_irq
0009cfac l     F .text	00000114 altera_avalon_jtag_uart_timeout
00000000 l    df *ABS*	00000000 altera_avalon_jtag_uart_ioctl.c
00000000 l    df *ABS*	00000000 altera_avalon_jtag_uart_read.c
00000000 l    df *ABS*	00000000 altera_avalon_jtag_uart_write.c
00000000 l    df *ABS*	00000000 altera_avalon_timer_sc.c
0009d7c4 l     F .text	00000070 alt_avalon_timer_sc_irq
00000000 l    df *ABS*	00000000 altera_up_avalon_character_lcd.c
00000000 l    df *ABS*	00000000 alt_alarm_start.c
00000000 l    df *ABS*	00000000 alt_dcache_flush_all.c
00000000 l    df *ABS*	00000000 alt_dev_llist_insert.c
0009e018 l     F .text	00000060 alt_get_errno
00000000 l    df *ABS*	00000000 alt_do_ctors.c
00000000 l    df *ABS*	00000000 alt_do_dtors.c
00000000 l    df *ABS*	00000000 alt_find_dev.c
00000000 l    df *ABS*	00000000 alt_icache_flush_all.c
00000000 l    df *ABS*	00000000 alt_iic.c
00000000 l    df *ABS*	00000000 alt_iic_isr_register.c
00000000 l    df *ABS*	00000000 alt_io_redirect.c
0009e4bc l     F .text	000000d8 alt_open_fd
00000000 l    df *ABS*	00000000 alt_open.c
0009e60c l     F .text	000000f8 alt_file_locked
0009e890 l     F .text	00000060 alt_get_errno
00000000 l    df *ABS*	00000000 alt_tick.c
00000000 l    df *ABS*	00000000 altera_nios2_qsys_irq.c
00000040 l       *ABS*	00000000 OSCtxSw_SWITCH_PC
00000000 l    df *ABS*	00000000 os_cpu_c.c
00000014 l       *ABS*	00000000 OSTCBNext_OFFSET
00000032 l       *ABS*	00000000 OSTCBPrio_OFFSET
00000000 l       *ABS*	00000000 OSTCBStkPtr_OFFSET
00000000 l    df *ABS*	00000000 alt_find_file.c
00000000 l    df *ABS*	00000000 alt_get_fd.c
00000000 l    df *ABS*	00000000 atexit.c
00000000 l    df *ABS*	00000000 exit.c
00000000 l    df *ABS*	00000000 memcmp.c
00000000 l    df *ABS*	00000000 __atexit.c
00000000 l    df *ABS*	00000000 __call_atexit.c
0009f3b8 l     F .text	00000004 register_fini
00000000 l    df *ABS*	00000000 alt_exit.c
0009f56c l     F .text	00000040 alt_sim_halt
000a387c g     O .bss	00000004 aux_status_register
000879e0 g     F .text	0000001c putchar
000a38a0 g     O .bss	00000004 MemoryPartition
0008d494 g     F .text	00000094 _mprec_log10
000a1d02 g     O .rwdata	00000002 OSTaskNameSize
0008d580 g     F .text	00000088 __any_on
0008f070 g     F .text	00000070 _isatty_r
0009ff2c g     O .rodata	00000028 __mprec_tinytens
00091e68 g     F .text	000000c8 alt_main
000a567c g     O .bss	0000006c compute_Y_tcb
00087a04 g     F .text	000000a0 _puts_r
000b8b38 g     O .bss	00000100 alt_irq
0008f0e0 g     F .text	00000078 _lseek_r
00097600 g     F .text	000000d4 OS_MemInit
000a1d34 g       *ABS*	00000000 __flash_rwdata_start
0009c908 g     F .text	00000064 OSTimeSet
000a56e8 g     O .bss	00002000 compute_Y_stk
0009d940 g     F .text	00000034 alt_up_character_lcd_send_cmd
000909bc g     F .text	00000088 __eqdf2
000807a8 g     F .text	00000158 Check_for_Master_Boot_Record
000928c0 g     F .text	000006b4 OSEventPendMulti
000b8dc8 g       *ABS*	00000000 __alt_heap_start
0009ee98 g     F .text	00000020 OSTaskCreateHook
000a38a4 g     O .bss	00000004 SDMutex
00087968 g     F .text	00000044 printf
000a1cda g     O .rwdata	00000002 OSMboxEn
00092fc8 g     F .text	0000007c OSIntEnter
0008e9dc g     F .text	00000068 __sseek
0008b70c g     F .text	000000a4 __sinit
0008ebdc g     F .text	00000130 __swbuf_r
000a1cea g     O .rwdata	00000002 OSQEn
0008c418 g     F .text	00000084 _setlocale_r
0008b80c g     F .text	0000009c __sfmoreglue
0009257c g     F .text	000000d0 __malloc_unlock
0009eef4 g     F .text	0000001c OSTaskStatHook
000a3914 g     O .bss	00000001 OSLockNesting
000a3898 g     O .bss	00000004 current_sector_modified
000802c4 g     F .text	00000044 KEY3_Pressed
000a1d28 g     O .rwdata	00000002 OSDataSize
000a3915 g     O .bss	00000001 OSRunning
00084d20 g     F .text	00000178 SD_presence_detect_task
000a38a8 g     O .bss	00000004 SDCardFlag
0008cf10 g     F .text	000000e0 memmove
0009ef2c g     F .text	0000001c OSInitHookBegin
000a1d20 g     O .rwdata	00000002 OSTmrSize
0008b7fc g     F .text	00000010 _cleanup
0008d608 g     F .text	000000bc _Balloc
000804ec g     F .text	00000050 Save_Modified_Sector
000a3918 g     O .bss	00000004 OSIdleCtr
000837f4 g     F .text	00000090 sd_card_set_attributes
00082ef8 g     F .text	0000004c sd_card_is_Present
00090acc g     F .text	00000088 __gtdf2
0009eb64 g       .text	00000000 OSStartTsk
00000000  w      *UND*	00000000 __errno
0009d8c4 g     F .text	0000007c get_DDRAM_addr
00094494 g     F .text	000002e0 OS_TCBInit
000a38ac g     O .bss	00000004 YImageWidthMailbox
00080000 g     F .entry	0000000c __reset
000a3894 g     O .bss	00000004 fat_partition_size_in_512_byte_sectors
000a1d26 g     O .rwdata	00000002 OSTmrWheelTblSize
00080020 g       *ABS*	00000000 __flash_exceptions_start
000a1cc6 g     O .rwdata	00000002 OSEventSize
000a391c g     O .bss	00000001 OSPrioHighRdy
0008effc g     F .text	00000074 _fstat_r
0009eeb8 g     F .text	00000020 OSTaskDelHook
000a38ec g     O .bss	00000004 errno
0009eb44 g       .text	00000000 OSStartHighRdy
0009b0c0 g     F .text	00000200 OSTaskCreateExt
00084978 g     F .text	0000003c initialize_task
000958f4 g     F .text	00000068 OSFlagPendGetFlagsRdy
000a1d06 g     O .rwdata	00000002 OSTaskStatStkSize
00094900 g     F .text	00000334 OSFlagAccept
000990e4 g     F .text	000000c8 OSQFlush
00098a7c g     F .text	00000154 OSQAccept
000a38fc g     O .bss	00000004 alt_argv
000a9c74 g       *ABS*	00000000 _gp
0009aeec g     F .text	000001d4 OSTaskCreate
000a388c g     O .bss	00000004 command_argument_register
0009a978 g     F .text	00000574 OSTaskChangePrio
000a3910 g     O .bss	00000004 alt_heapsem
00094774 g     F .text	0000018c OSDebugInit
0009b2c0 g     F .text	0000040c OSTaskDel
000976d4 g     F .text	000001d8 OSMutexAccept
000a0a30 g     O .rwdata	00000180 alt_fd_list
000b5914 g     O .bss	00000370 OSFlagTbl
000879fc g     F .text	00000008 _putchar_r
00093a44 g     F .text	000000b8 OS_EventTaskRemove
0008278c g     F .text	0000011c find_first_empty_record_in_root_directory
0009e140 g     F .text	00000094 alt_find_dev
0008ce70 g     F .text	000000a0 memcpy
000a1cf0 g     O .rwdata	00000002 OSRdyTblSize
0009dad8 g     F .text	0000004c alt_up_character_lcd_write_fd
0008b7f0 g     F .text	0000000c _cleanup_r
00090c64 g     F .text	000000f8 __floatsidf
0009e594 g     F .text	00000078 alt_io_redirect
00090bdc g     F .text	00000088 __ltdf2
0009f648 g       *ABS*	00000000 __DTOR_END__
00084aac g     F .text	000001f0 init_OS_data_structs
00087aa4 g     F .text	00000014 puts
000a38b0 g     O .bss	00000004 YImageHeightMailbox
0009264c g     F .text	00000130 OSEventNameGet
000a1cd4 g     O .rwdata	00000002 OSFlagMax
000823bc g     F .text	00000194 find_first_empty_cluster
00097e18 g     F .text	00000690 OSMutexPend
0008d3e4 g     F .text	000000b0 __ratio
00093044 g     F .text	00000100 OSIntExit
000a1d0e g     O .rwdata	00000002 OSTCBSize
000a391d g     O .bss	00000001 OSPrioCur
0009d228 g     F .text	000002c0 altera_avalon_jtag_uart_read
00000000  w      *UND*	00000000 malloc
000879ac g     F .text	00000034 _printf_r
000877d4 g     F .text	00000008 __udivsi3
00091b04 g     F .text	000000c4 isatty
000a1cf4 g     O .rwdata	00000002 OSStkWidth
0009fe3c g     O .rodata	000000c8 __mprec_tens
000a1ce8 g     O .rwdata	00000002 OSPtrSize
0008c3f4 g     F .text	00000008 __locale_charset
000a1cc8 g     O .rwdata	00000002 OSEventTblSize
0009eab8 g       .text	00000000 OSCtxSw
000a38e0 g     O .bss	00000004 __malloc_top_pad
000a3920 g     O .bss	00000004 OSTCBList
000a38f0 g     O .bss	00000004 alt_fd_list_lock
000a1c80 g     O .rwdata	00000004 __mb_cur_max
00082f44 g     F .text	0000008c sd_card_is_FAT16
0008c3fc g     F .text	0000000c _localeconv_r
0008dd6c g     F .text	0000003c __i2b
0008bdd8 g     F .text	0000049c __sfvwrite_r
00081698 g     F .text	000000c0 get_dir_divider_location
000a76e8 g     O .bss	0000006c process_Y_tcb
000a3efc g     O .bss	00000200 ReadQueue2
000b5c84 g     O .bss	00000c30 OSMemTbl
000a3924 g     O .bss	00000001 OSTickStepState
0008e964 g     F .text	00000070 _sbrk_r
00081338 g     F .text	000000d0 filename_to_upper_case
000a1cec g     O .rwdata	00000002 OSQMax
00097ab0 g     F .text	00000368 OSMutexDel
000b68b4 g     O .bss	00000800 OSTaskStatStk
000971e8 g     F .text	0000010c OSMemNameGet
00080900 g     F .text	000001c8 Read_File_Record_At_Offset
000869ac g     F .text	00000814 compute_Y_task
000a1ccc g     O .rwdata	00000002 OSFlagEn
0008f158 g     F .text	00000078 _read_r
000a1d12 g     O .rwdata	00000002 OSTimeTickHookEn
00096190 g     F .text	000000ac OS_FlagUnlink
00099648 g     F .text	00000180 OSQPost
00083910 g     F .text	0000037c sd_card_read
000a05f4 g     O .rwdata	0000000c __lc_ctype
000a1ca0 g     O .rwdata	00000004 alt_max_fd
00094020 g     F .text	0000006c OS_MemCopy
0009408c g     F .text	000000d4 OS_Sched
00091480 g     F .text	00000138 __unpack_d
0008eed8 g     F .text	00000110 _fclose_r
00081f58 g     F .text	00000464 find_file_in_directory
000970e4 g     F .text	00000104 OSMemGet
00083884 g     F .text	0000008c sd_card_get_attributes
00096d98 g     F .text	00000130 OSMboxQuery
0009b9f4 g     F .text	000001c4 OSTaskNameSet
0008b670 g     F .text	00000034 fflush
000a38e4 g     O .bss	00000004 __malloc_max_sbrked_mem
000a3928 g     O .bss	00000004 OSCtxSwCtr
0009ef10 g     F .text	0000001c OSTimeTickHook
00091944 g     F .text	000001c0 alt_irq_register
000a1cd6 g     O .rwdata	00000002 OSFlagNameSize
00093afc g     F .text	00000104 OS_EventTaskRemoveMulti
0009032c g     F .text	00000074 __adddf3
000938f0 g     F .text	00000154 OS_EventTaskWaitMulti
0008d2c4 g     F .text	00000120 __b2d
000a1cee g     O .rwdata	00000002 OSQSize
0008f83c g     F .text	00000660 __umoddi3
00091d14 g     F .text	000000f4 lseek
0009a224 g     F .text	0000027c OSSemPend
000a1c7c g     O .rwdata	00000004 _global_impure_ptr
000a7754 g     O .bss	00000010 PBSemaphore
00081a44 g     F .text	00000514 get_home_directory_cluster_for_file
0008e300 g     F .text	000005f4 _realloc_r
000a1cd8 g     O .rwdata	00000002 OSLowestPrio
000b8dc8 g       *ABS*	00000000 __bss_end
0009e3c4 g     F .text	000000f8 alt_iic_isr_register
0009ef80 g     F .text	00000020 OSTCBInitHook
000a1d1e g     O .rwdata	00000002 OSTmrCfgTicksPerSec
0009e988 g     F .text	00000110 alt_tick
00096ad8 g     F .text	00000134 OSMboxPost
0008f1d0 g     F .text	0000066c __udivdi3
000a1cc0 g     O .rwdata	00000002 OSEventEn
0009ff04 g     O .rodata	00000028 __mprec_bigtens
0008dff4 g     F .text	00000120 __s2b
000a1d1a g     O .rwdata	00000002 OSTmrCfgNameSize
00090e34 g     F .text	00000194 __floatunsidf
0008d1e4 g     F .text	00000060 __mcmp
000a389c g     O .bss	00000004 current_sector_index
0008b7d8 g     F .text	00000018 __fp_lock_all
0009e37c g     F .text	00000048 alt_ic_irq_enabled
00095f9c g     F .text	000000e4 OS_FlagInit
0009e8f0 g     F .text	00000098 alt_alarm_stop
000806d0 g     F .text	000000d8 mark_cluster
000a1cfc g     O .rwdata	00000002 OSTaskIdleStkSize
000a38f4 g     O .bss	00000004 alt_irq_active
00099db0 g     F .text	000000c0 OSSemAccept
00097414 g     F .text	000000f0 OSMemPut
00096ec8 g     F .text	0000021c OSMemCreate
000a392c g     O .bss	00000004 OSIdleCtrMax
000800ec g     F .exceptions	000000d0 alt_irq_handler
000a0a08 g     O .rwdata	00000028 alt_dev_null
000a1d10 g     O .rwdata	00000002 OSTicksPerSec
00080280 g     F .text	00000044 KEY2_Pressed
000828a8 g     F .text	000001b8 convert_filename_to_name_extension
0009ddc0 g     F .text	00000034 alt_up_character_lcd_cursor_blink_on
0009eab8 g       .text	00000000 OSIntCtxSw
0009df48 g     F .text	0000001c alt_dcache_flush_all
0008d0b0 g     F .text	00000070 __hi0bits
000a3878 g     O .bss	00000004 is_sd_card_formated_as_FAT16
00090d5c g     F .text	000000d8 __fixdfsi
00087400 g     F .text	00000298 task_launcher
00085e48 g     F .text	00000b64 SD_write_task
00082550 g     F .text	0000023c find_first_empty_record_in_a_subdirectory
000a7764 g     O .bss	00002000 SD_presence_detect_stk
000a3930 g     O .bss	00000004 OSTCBFreeList
000a1d34 g       *ABS*	00000000 __ram_rwdata_end
0009a4a0 g     F .text	0000017c OSSemPendAbort
000a40fc g     O .bss	00000200 ReadQueue
000a1c98 g     O .rwdata	00000008 alt_dev_list
000a38b4 g     O .bss	00000004 WriteImageHeightMailbox
000921e8 g     F .text	00000124 write
0008e218 g     F .text	000000e8 _putc_r
000a1d14 g     O .rwdata	00000002 OSVersionNbr
000a01f4 g       *ABS*	00000000 __ram_rodata_end
0009180c g     F .text	000000d8 fstat
0008781c g     F .text	0000002c fprintf
000a1cbc g     O .rwdata	00000004 OSEndiannessTest
0008ded4 g     F .text	00000120 __pow5mult
000a38d4 g     O .bss	00000004 __nlocale_changed
000877dc g     F .text	00000008 __umodsi3
000a1cce g     O .rwdata	00000002 OSFlagGrpSize
000b8dc8 g       *ABS*	00000000 end
0009cbb0 g     F .text	00000138 altera_avalon_jtag_uart_init
00094304 g     F .text	000000c8 OS_TaskStat
0009f644 g       *ABS*	00000000 __CTOR_LIST__
00100000 g       *ABS*	00000000 __alt_stack_pointer
0009d834 g     F .text	00000090 alt_avalon_timer_sc_init
000910ec g     F .text	00000080 __clzsi2
0009d4e8 g     F .text	000002dc altera_avalon_jtag_uart_write
0008b6fc g     F .text	00000004 __sfp_lock_acquire
0008cd8c g     F .text	000000e4 memchr
00093fcc g     F .text	00000054 OS_MemClr
0009d9e8 g     F .text	00000078 alt_up_character_lcd_write
00087c58 g     F .text	00001ec4 ___vfprintf_internal_r
0009eb88 g     F .text	00000310 OSTaskStkInit
00087b2c g     F .text	00000060 _sprintf_r
0008bac4 g     F .text	00000314 _free_r
0009364c g     F .text	00000194 OS_EventTaskRdy
0009f3bc g     F .text	000001b0 __call_exitprocs
000a3934 g     O .bss	00000001 OSCPUUsage
000a38d8 g     O .bss	00000004 __mlocale_changed
000a1c8c g     O .rwdata	00000004 __malloc_sbrk_base
000801bc g     F .text	0000003c _start
000a3964 g     O .bss	00000004 _alt_tick_rate
000991ac g     F .text	00000320 OSQPend
0009c3b8 g     F .text	0000014c OSTimeDly
0008d9cc g     F .text	0000014c __lshift
000a3968 g     O .bss	00000004 _alt_nticks
00091f30 g     F .text	00000124 read
0009c9a0 g     F .text	00000090 alt_sys_init
0009dc4c g     F .text	000000b0 alt_up_character_lcd_shift_display
0009f284 g     F .text	00000134 __register_exitproc
000a3935 g     O .bss	00000001 OSTaskCtr
0009c504 g     F .text	00000190 OSTimeDlyHMSM
0008db18 g     F .text	00000254 __multiply
0009dcfc g     F .text	00000090 alt_up_character_lcd_erase_pos
000a42fc g     O .bss	00001180 line_buf
0009d0c0 g     F .text	00000074 altera_avalon_jtag_uart_close
000877e4 g     F .text	00000038 __mulsi3
000a01f4 g       *ABS*	00000000 __ram_rwdata_start
0009f648 g       *ABS*	00000000 __ram_rodata_start
000a396c g     O .bss	00000028 __malloc_current_mallinfo
000a1cc2 g     O .rwdata	00000002 OSEventMax
0008d6c4 g     F .text	0000017c __d2b
0009a61c g     F .text	00000128 OSSemPost
000a9764 g     O .bss	00002000 process_Y_stk
0008023c g     F .text	00000044 KEY1_Pressed
000a3874 g     O .bss	00000004 initialized
000931d0 g     F .text	000000e4 OSSchedUnlock
000ab764 g     O .bss	00002000 SD_read_stk
0009ca68 g     F .text	00000058 altera_avalon_jtag_uart_read_fd
0009f0c0 g     F .text	00000104 alt_get_fd
000a3938 g     O .bss	00000004 OSMemFreeList
00093324 g     F .text	000000ac OSStatInit
000a3994 g     O .bss	00000014 search_data
00095d04 g     F .text	000000d4 OSFlagQuery
000915b8 g     F .text	000000c8 __fpcmp_parts_d
000a1cf8 g     O .rwdata	00000002 OSTaskCreateExtEn
0008ee68 g     F .text	00000070 _close_r
0009f210 g     F .text	00000074 memcmp
00093630 g     F .text	0000001c OS_Dummy
0009cb18 g     F .text	00000048 altera_avalon_jtag_uart_close_fd
000a547c g     O .bss	00000200 WriteQueue
000b8dc8 g       *ABS*	00000000 __alt_stack_base
0009cb60 g     F .text	00000050 altera_avalon_jtag_uart_ioctl_fd
0008787c g     F .text	000000ac _fwrite_r
00082fd0 g     F .text	000000d4 sd_card_find_first
00089b40 g     F .text	0000013c __swsetup_r
000b70b4 g     O .bss	000001e0 OSQTbl
00090764 g     F .text	00000258 __divdf3
0008b8a8 g     F .text	000000f0 __sfp
000a39a8 g     O .bss	00000054 boot_sector_data
0008d528 g     F .text	00000058 __copybits
000a0600 g     O .rwdata	00000408 __malloc_av_
0008b708 g     F .text	00000004 __sinit_lock_release
000a393c g     O .bss	00000004 OSTCBHighRdy
000903a0 g     F .text	000003c4 __muldf3
0008eac0 g     F .text	00000060 __sread
000a3940 g     O .bss	00000004 OSQFreeList
0009efa0 g     F .text	00000120 alt_find_file
0009df64 g     F .text	000000b4 alt_dev_llist_insert
00092474 g     F .text	00000108 __malloc_lock
00087848 g     F .text	00000034 _fprintf_r
0009212c g     F .text	000000bc sbrk
0009277c g     F .text	00000144 OSEventNameSet
0008b474 g     F .text	000001fc _fflush_r
0008eda0 g     F .text	000000c8 _calloc_r
000a3944 g     O .bss	00000001 OSRdyGrp
0008568c g     F .text	000007bc SD_ReadQ_2
000a3874 g       *ABS*	00000000 __bss_start
0008cff0 g     F .text	00000098 memset
000849b4 g     F .text	000000f8 main
000a3900 g     O .bss	00000004 alt_envp
000a38e8 g     O .bss	00000004 __malloc_max_total_mem
000a38b8 g     O .bss	00000004 ReadImageHeightMailbox
0009cac0 g     F .text	00000058 altera_avalon_jtag_uart_write_fd
0008ed0c g     F .text	0000001c __swbuf
000a38bc g     O .bss	00000008 SDReadQueue
000a0094 g     O .rodata	00000100 OSUnMapTbl
000a1cf2 g     O .rwdata	00000002 OSSemEn
00080430 g     F .text	000000bc Write_Sector_Data
0009db9c g     F .text	000000b0 alt_up_character_lcd_shift_cursor
0009595c g     F .text	000003a8 OSFlagPost
0008e9d4 g     F .text	00000008 __sclose
00084494 g     F .text	000004e4 alt_ucosii_simple_error_handler
00100000 g       *ABS*	00000000 __alt_heap_limit
0008efe8 g     F .text	00000014 fclose
000937e0 g     F .text	00000110 OS_EventTaskWait
000943cc g     F .text	000000c8 OS_TaskStatStkChk
000b8c38 g     O .bss	00000190 _atexit0
0009b6cc g     F .text	00000170 OSTaskDelReq
00089ec0 g     F .text	000015b4 _dtoa_r
0008c64c g     F .text	00000740 _malloc_r
000ad764 g     O .bss	0000006c SD_read_tcb
000978ac g     F .text	00000204 OSMutexCreate
000a1ca4 g     O .rwdata	00000004 alt_errno
000932b4 g     F .text	00000070 OSStart
00092418 g     F .text	0000005c __env_unlock
000ad7d0 g     O .bss	00002000 SD_read2_stk
0008c33c g     F .text	000000b8 _fwalk
0009bbb8 g     F .text	00000218 OSTaskResume
00097504 g     F .text	000000fc OSMemQuery
000a1d04 g     O .rwdata	00000002 OSTaskStatEn
000a1cde g     O .rwdata	00000002 OSMemMax
000997c8 g     F .text	00000188 OSQPostFront
0008e114 g     F .text	00000104 putc
00087714 g     F .text	00000060 __divsi3
000a3945 g     O .bss	00000003 OSRdyTbl
000a1cb8 g     O .rwdata	00000002 OSDebugEn
0009ff60 g     O .rodata	00000014 __thenan_df
0009d9a8 g     F .text	00000040 alt_up_character_lcd_open_dev
0008b998 g     F .text	0000012c _malloc_trim_r
0009f648 g       *ABS*	00000000 __CTOR_END__
000a1cd0 g     O .rwdata	00000002 OSFlagNodeSize
000a3880 g     O .bss	00000004 status_register
000a1d18 g     O .rwdata	00000002 OSTmrCfgMax
0009d974 g     F .text	00000034 alt_up_character_lcd_init
0008eb20 g     F .text	000000bc strcmp
000a3888 g     O .bss	00000004 command_register
00098bd0 g     F .text	00000214 OSQCreate
0009b83c g     F .text	000001b8 OSTaskNameGet
0009f648 g       *ABS*	00000000 __flash_rodata_start
00099950 g     F .text	00000234 OSQPostOpt
000933d0 g     F .text	00000240 OSTimeTick
000a1d00 g     O .rwdata	00000002 OSTaskMax
0009f648 g       *ABS*	00000000 __DTOR_LIST__
00099e70 g     F .text	00000114 OSSemCreate
000a1d24 g     O .rwdata	00000002 OSTmrWheelSize
0009870c g     F .text	000001a8 OSMutexQuery
00090a44 g     F .text	00000088 __nedf2
000a1cfa g     O .rwdata	00000002 OSTaskDelEn
00080000 g       *ABS*	00000000 __alt_mem_sram_0
0009a744 g     F .text	00000130 OSSemQuery
00098de4 g     F .text	00000300 OSQDel
000994cc g     F .text	0000017c OSQPendAbort
0009c96c g     F .text	00000034 alt_irq_init
000920b4 g     F .text	00000078 alt_release_fd
0008062c g     F .text	000000a4 get_cluster_flag
000a38c4 g     O .bss	00000004 SDWriteQueue
000803dc g     F .text	00000054 init_button_irq
00087ab8 g     F .text	00000074 sprintf
0009dd8c g     F .text	00000034 alt_up_character_lcd_cursor_off
0009ff74 g     O .rodata	00000100 __clz_tab
00080ac8 g     F .text	000001f8 Write_File_Record_At_Offset
000a38dc g     O .bss	00000004 _PathLocale
000af7d0 g     O .bss	00002000 SD_write_stk
00083c8c g     F .text	000005f0 sd_card_write
0009f1c4 g     F .text	00000014 atexit
0008ed28 g     F .text	00000078 _write_r
00093144 g     F .text	0000008c OSSchedLock
0008c49c g     F .text	0000001c setlocale
000871c0 g     F .text	00000240 process_Y_task
00094c34 g     F .text	0000013c OSFlagCreate
00080cc0 g     F .text	00000554 Check_for_DOS_FAT
00082a60 g     F .text	000002ec create_file
00084c9c g     F .text	00000084 init_create_tasks
000a1c78 g     O .rwdata	00000004 _impure_ptr
000a3884 g     O .bss	00000004 CSD_register_w0
000a38f8 g     O .bss	00000004 alt_argc
0009e0dc g     F .text	00000064 _do_dtors
000a1cca g     O .rwdata	00000002 OSEventMultiEn
00084e98 g     F .text	000007f4 SD_read_task
000b17d0 g     O .bss	0000006c SD_read2_tcb
00094d70 g     F .text	000002a8 OSFlagDel
000a3948 g     O .bss	00000004 OSEventFreeList
0009695c g     F .text	0000017c OSMboxPendAbort
00080020 g       .exceptions	00000000 alt_irq_entry
0008d244 g     F .text	00000080 __ulp
0008e8f4 g     F .text	00000040 __isinfd
000a1d16 g     O .rwdata	00000002 OSTmrEn
000952b0 g     F .text	00000644 OSFlagPend
0008b7c0 g     F .text	00000018 __fp_unlock_all
000a1c90 g     O .rwdata	00000008 alt_fs_list
00084450 g     F .text	00000044 alt_ucosii_check_return_code
00081408 g     F .text	00000290 check_file_name_for_FAT16_compliance
000941d0 g     F .text	00000080 OS_StrCopy
000a1ce0 g     O .rwdata	00000002 OSMemNameSize
0009ef48 g     F .text	0000001c OSInitHookEnd
00080020 g       *ABS*	00000000 __ram_exceptions_start
000a1d0c g     O .rwdata	00000002 OSTCBPrioTblMax
0008c408 g     F .text	00000010 localeconv
000a1d08 g     O .rwdata	00000002 OSTaskStatStkChkEn
000962e0 g     F .text	00000114 OSMboxCreate
0009e1f0 g     F .text	00000050 alt_ic_isr_register
000a1cdc g     O .rwdata	00000002 OSMemEn
00087928 g     F .text	00000040 fwrite
000a3890 g     O .bss	00000004 fat_partition_offset_in_512_byte_sectors
000a1ce6 g     O .rwdata	00000002 OSMutexEn
000a1d34 g       *ABS*	00000000 _edata
000801f8 g     F .text	00000044 KEY0_Pressed
000b8dc8 g       *ABS*	00000000 _end
000a39fc g     O .bss	00000500 active_files
000a394c g     O .bss	00000001 OSIntNesting
000801bc g       *ABS*	00000000 __ram_exceptions_end
00082d4c g     F .text	00000154 copy_file_record_name_to_string
0009d134 g     F .text	000000f4 altera_avalon_jtag_uart_ioctl
0009c694 g     F .text	00000210 OSTimeDlyResume
00081214 g     F .text	00000124 Look_for_FAT16
0009515c g     F .text	00000154 OSFlagNameSet
00096694 g     F .text	000002c8 OSMboxPend
0009bdd0 g     F .text	000001fc OSTaskStkChk
0009e2dc g     F .text	000000a0 alt_ic_irq_disable
000a1ce2 g     O .rwdata	00000002 OSMemSize
0008ea44 g     F .text	0000007c __swrite
000a1c88 g     O .rwdata	00000004 __malloc_trim_threshold
0009ea98 g     F .text	00000020 altera_nios2_qsys_irq_init
000a3950 g     O .bss	00000004 OSTCBCur
0009f1d8 g     F .text	00000038 exit
000984a8 g     F .text	00000264 OSMutexPost
000a38c8 g     O .bss	00000004 WriteImageWidthMailbox
000a1ce4 g     O .rwdata	00000002 OSMemTblSize
0008c274 g     F .text	000000c8 _fwalk_reent
0008d840 g     F .text	0000018c __mdiff
00087774 g     F .text	00000060 __modsi3
0008053c g     F .text	000000f0 Read_Sector_Data
0009623c g     F .text	000000a4 OSMboxAccept
00100000 g       *ABS*	00000000 __alt_data_end
00080020 g     F .exceptions	00000000 alt_exception
00082ea0 g     F .text	00000058 sd_card_open_dev
0008b700 g     F .text	00000004 __sfp_lock_release
00092f74 g     F .text	00000054 OSInit
0009c1f8 g     F .text	00000144 OSTaskQuery
0009da60 g     F .text	00000078 alt_up_character_lcd_string
00099d04 g     F .text	000000ac OS_QInit
00094250 g     F .text	00000058 OS_StrLen
000b183c g     O .bss	0000006c SD_presence_detect_tcb
000972f4 g     F .text	00000120 OSMemNameSet
000a1c74 g     O .rwdata	00000004 performance_name
000a1cfe g     O .rwdata	00000002 OSTaskProfileEn
000a3954 g     O .bss	00000004 OSTime
000b18a8 g     O .bss	00002000 initialize_task_stk
000b7294 g     O .bss	00000800 OSTaskIdleStk
0009f5ac g     F .text	0000002c _exit
0008e934 g     F .text	00000030 __isnand
00096c0c g     F .text	0000018c OSMboxPostOpt
0009ddf4 g     F .text	00000154 alt_alarm_start
00095018 g     F .text	00000144 OSFlagNameGet
0009c8a4 g     F .text	00000064 OSTimeGet
00090fc8 g     F .text	00000124 __muldi3
0008c4b8 g     F .text	00000194 __smakebuf_r
00087b8c g     F .text	00000074 strlen
0009eed8 g     F .text	0000001c OSTaskSwHook
0009e704 g     F .text	0000018c open
000b7a94 g     O .bss	00000b40 OSEventTbl
00090b54 g     F .text	00000088 __gedf2
000b85d4 g     O .bss	00000510 OSTCBTbl
0009a874 g     F .text	00000104 OSSemSet
0009e1d4 g     F .text	0000001c alt_icache_flush_all
000a38cc g     O .bss	00000004 YMailbox
000a38d0 g     O .bss	00000004 ReadImageWidthMailbox
0009db24 g     F .text	00000078 alt_up_character_lcd_set_cursor_pos
000a1ca8 g     O .rwdata	00000004 alt_priority_mask
000830a4 g     F .text	000003a8 sd_card_find_next
00099f84 g     F .text	000002a0 OSSemDel
000a3958 g     O .bss	00000004 OSFlagFreeList
0009e240 g     F .text	0000009c alt_ic_irq_enable
000a1cc4 g     O .rwdata	00000002 OSEventNameSize
000963f4 g     F .text	000002a0 OSMboxDel
00089b1c g     F .text	00000024 __vfprintf_internal
000a395c g     O .bss	00000001 OSStatRdy
000b8ae4 g     O .bss	00000054 OSTCBPrioTbl
0009236c g     F .text	000000ac __env_lock
000a1d0a g     O .rwdata	00000002 OSTaskSwHookEn
000902ac g     F .text	00000080 __subdf3
000b38a8 g     O .bss	0000006c SD_write_tcb
0008427c g     F .text	000001d4 sd_card_fclose
0008d120 g     F .text	000000c4 __lo0bits
000a1d2c g     O .rwdata	00000008 alt_alarm_list
000b3914 g     O .bss	00002000 task_launcher_stk
000a1cd2 g     O .rwdata	00000002 OSFlagWidth
0009e078 g     F .text	00000064 _do_ctors
00080308 g     F .text	000000d4 handle_button_interrupts
00091680 g     F .text	00000100 close
000a3908 g     O .bss	00000004 alt_envsem
000a3960 g     O .bss	00000004 OSIdleCtrRun
00093610 g     F .text	00000020 OSVersion
000a1d1c g     O .rwdata	00000002 OSTmrCfgWheelSize
00091c28 g     F .text	00000080 alt_load
0009c33c g     F .text	0000007c OS_TaskStkClr
0009116c g     F .text	00000314 __pack_d
000a1cf6 g     O .rwdata	00000002 OSTaskCreateEn
00081758 g     F .text	000002ec match_file_record_to_name_ext
00093c00 g     F .text	00000068 OS_EventWaitListInit
0009ef64 g     F .text	0000001c OSTaskIdleHook
00000000  w      *UND*	00000000 free
0008b704 g     F .text	00000004 __sinit_lock_acquire
0008dda8 g     F .text	0000012c __multadd
0009bfcc g     F .text	0000022c OSTaskSuspend
0008d088 g     F .text	00000028 _Bfree
0008344c g     F .text	000003a8 sd_card_fopen
000942a8 g     F .text	0000005c OS_TaskIdle
000a1d22 g     O .rwdata	00000002 OSTmrTblSize
00099b84 g     F .text	00000180 OSQQuery



Disassembly of section .entry:

00080000 <__reset>:
 * Jump to the _start entry point in the .text section if reset code
 * is allowed or if optimizing for RTL simulation.
 */
#if defined(ALT_ALLOW_CODE_AT_RESET) || defined(ALT_SIM_OPTIMIZE)
    /* Jump to the _start entry point in the .text section. */
    movhi r1, %hi(_start)
   80000:	00400234 	movhi	at,8
    ori r1, r1, %lo(_start)
   80004:	08406f14 	ori	at,at,444
    jmp r1
   80008:	0800683a 	jmp	at
	...

Disassembly of section .exceptions:

00080020 <alt_exception>:
         * Process an exception.  For all exceptions we must preserve all
         * caller saved registers on the stack (See the Nios2 ABI
         * documentation for details).
         */

        addi  sp, sp, -76
   80020:	deffed04 	addi	sp,sp,-76

#endif

#endif

        stw   ra,  0(sp)
   80024:	dfc00015 	stw	ra,0(sp)
        /*
         * Leave a gap in the stack frame at 4(sp) for the muldiv handler to
         * store zero into.
         */

        stw   r1,   8(sp)
   80028:	d8400215 	stw	at,8(sp)
        stw   r2,  12(sp)
   8002c:	d8800315 	stw	r2,12(sp)
        stw   r3,  16(sp)
   80030:	d8c00415 	stw	r3,16(sp)
        stw   r4,  20(sp)
   80034:	d9000515 	stw	r4,20(sp)
        stw   r5,  24(sp)
   80038:	d9400615 	stw	r5,24(sp)
        stw   r6,  28(sp)
   8003c:	d9800715 	stw	r6,28(sp)
        stw   r7,  32(sp)
   80040:	d9c00815 	stw	r7,32(sp)

        rdctl r5, estatus
   80044:	000b307a 	rdctl	r5,estatus

        stw   r8,  36(sp)
   80048:	da000915 	stw	r8,36(sp)
        stw   r9,  40(sp)
   8004c:	da400a15 	stw	r9,40(sp)
        stw   r10, 44(sp)
   80050:	da800b15 	stw	r10,44(sp)
        stw   r11, 48(sp)
   80054:	dac00c15 	stw	r11,48(sp)
        stw   r12, 52(sp)
   80058:	db000d15 	stw	r12,52(sp)
        stw   r13, 56(sp)
   8005c:	db400e15 	stw	r13,56(sp)
        stw   r14, 60(sp)
   80060:	db800f15 	stw	r14,60(sp)
        stw   r15, 64(sp)
   80064:	dbc01015 	stw	r15,64(sp)
        /*
         * ea-4 contains the address of the instruction being executed
         * when the exception occured. For interrupt exceptions, we will
         * will be re-issue the isntruction. Store it in 72(sp)
         */
        stw   r5,  68(sp)  /* estatus */
   80068:	d9401115 	stw	r5,68(sp)
        addi  r15, ea, -4  /* instruction that caused exception */
   8006c:	ebffff04 	addi	r15,ea,-4
        stw   r15,  72(sp)
   80070:	dbc01215 	stw	r15,72(sp)
#else
        /*
         * Test to see if the exception was a software exception or caused 
         * by an external interrupt, and vector accordingly.
         */
        rdctl r4, ipending
   80074:	0009313a 	rdctl	r4,ipending
        andi  r2, r5, 1
   80078:	2880004c 	andi	r2,r5,1
        beq   r2, zero, .Lnot_irq
   8007c:	10000326 	beq	r2,zero,8008c <alt_exception+0x6c>
        beq   r4, zero, .Lnot_irq
   80080:	20000226 	beq	r4,zero,8008c <alt_exception+0x6c>
        /*
         * Now that all necessary registers have been preserved, call 
         * alt_irq_handler() to process the interrupts.
         */

        call alt_irq_handler
   80084:	00800ec0 	call	800ec <alt_irq_handler>

        .section .exceptions.irqreturn, "xa"

        br    .Lexception_exit
   80088:	00000306 	br	80098 <alt_exception+0x78>
         * upon completion, so we write ea (address of instruction *after*
         * the one where the exception occured) into 72(sp). The actual
         * instruction that caused the exception is written in r2, which these
         * handlers will utilize.
         */
        stw   ea,  72(sp)  /* Don't re-issue */
   8008c:	df401215 	stw	ea,72(sp)
        ldw   r2, -4(ea)   /* Instruction that caused exception */
   80090:	e8bfff17 	ldw	r2,-4(ea)
#ifdef NIOS2_HAS_DEBUG_STUB
       /*
        *  Either tell the user now (if there is a debugger attached) or go into
        *  the debug monitor which will loop until a debugger is attached.
        */
        break
   80094:	003da03a 	break	0
        /* 
         * Restore the saved registers, so that all general purpose registers 
         * have been restored to their state at the time the interrupt occured.
         */

        ldw   r5,  68(sp)
   80098:	d9401117 	ldw	r5,68(sp)
        ldw   ea,  72(sp)  /* This becomes the PC once eret is executed */
   8009c:	df401217 	ldw	ea,72(sp)
        ldw   ra,   0(sp)
   800a0:	dfc00017 	ldw	ra,0(sp)

        wrctl estatus, r5
   800a4:	2801707a 	wrctl	estatus,r5

        ldw   r1,   8(sp)
   800a8:	d8400217 	ldw	at,8(sp)
        ldw   r2,  12(sp)
   800ac:	d8800317 	ldw	r2,12(sp)
        ldw   r3,  16(sp)
   800b0:	d8c00417 	ldw	r3,16(sp)
        ldw   r4,  20(sp)
   800b4:	d9000517 	ldw	r4,20(sp)
        ldw   r5,  24(sp)
   800b8:	d9400617 	ldw	r5,24(sp)
        ldw   r6,  28(sp)
   800bc:	d9800717 	ldw	r6,28(sp)
        ldw   r7,  32(sp)
   800c0:	d9c00817 	ldw	r7,32(sp)
#ifdef ALT_STACK_CHECK
        ldw   et, %gprel(alt_exception_old_stack_limit)(gp)
#endif
#endif

        ldw   r8,  36(sp)
   800c4:	da000917 	ldw	r8,36(sp)
        ldw   r9,  40(sp)
   800c8:	da400a17 	ldw	r9,40(sp)
        ldw   r10, 44(sp)
   800cc:	da800b17 	ldw	r10,44(sp)
        ldw   r11, 48(sp)
   800d0:	dac00c17 	ldw	r11,48(sp)
        ldw   r12, 52(sp)
   800d4:	db000d17 	ldw	r12,52(sp)
        ldw   r13, 56(sp)
   800d8:	db400e17 	ldw	r13,56(sp)
        ldw   r14, 60(sp)
   800dc:	db800f17 	ldw	r14,60(sp)
        ldw   r15, 64(sp)
   800e0:	dbc01017 	ldw	r15,64(sp)
#endif

        ldw   sp,  76(sp)

#else
        addi  sp, sp, 76
   800e4:	dec01304 	addi	sp,sp,76

        /*
         * Return to the interrupted instruction.
         */

        eret
   800e8:	ef80083a 	eret

000800ec <alt_irq_handler>:
 * instruction is present if the macro ALT_CI_INTERRUPT_VECTOR defined.
 */

void alt_irq_handler (void) __attribute__ ((section (".exceptions")));
void alt_irq_handler (void)
{
   800ec:	defff904 	addi	sp,sp,-28
   800f0:	dfc00615 	stw	ra,24(sp)
   800f4:	df000515 	stw	fp,20(sp)
   800f8:	df000504 	addi	fp,sp,20
  
  /*
   * Notify the operating system that we are at interrupt level.
   */ 
  
  ALT_OS_INT_ENTER();
   800fc:	0092fc80 	call	92fc8 <OSIntEnter>
#ifndef NIOS2_EIC_PRESENT
static ALT_INLINE alt_u32 ALT_ALWAYS_INLINE alt_irq_pending (void)
{
  alt_u32 active;

  NIOS2_READ_IPENDING (active);
   80100:	0005313a 	rdctl	r2,ipending
   80104:	e0bffc15 	stw	r2,-16(fp)

  return active;
   80108:	e0bffc17 	ldw	r2,-16(fp)
   * Consider the case where the high priority interupt is asserted during
   * the interrupt entry sequence for a lower priority interrupt to see why
   * this is the case.
   */

  active = alt_irq_pending ();
   8010c:	e0bfff15 	stw	r2,-4(fp)

  do
  {
    i = 0;
   80110:	e03ffd15 	stw	zero,-12(fp)
    mask = 1;
   80114:	00800044 	movi	r2,1
   80118:	e0bffe15 	stw	r2,-8(fp)
     * called to clear the interrupt condition.
     */

    do
    {
      if (active & mask)
   8011c:	e0ffff17 	ldw	r3,-4(fp)
   80120:	e0bffe17 	ldw	r2,-8(fp)
   80124:	1884703a 	and	r2,r3,r2
   80128:	1005003a 	cmpeq	r2,r2,zero
   8012c:	1000161e 	bne	r2,zero,80188 <alt_irq_handler+0x9c>
      { 
#ifdef ALT_ENHANCED_INTERRUPT_API_PRESENT
        alt_irq[i].handler(alt_irq[i].context); 
   80130:	e0bffd17 	ldw	r2,-12(fp)
   80134:	00c00334 	movhi	r3,12
   80138:	18e2ce04 	addi	r3,r3,-29896
   8013c:	100490fa 	slli	r2,r2,3
   80140:	10c5883a 	add	r2,r2,r3
   80144:	11400017 	ldw	r5,0(r2)
   80148:	e0bffd17 	ldw	r2,-12(fp)
   8014c:	00c00334 	movhi	r3,12
   80150:	18e2ce04 	addi	r3,r3,-29896
   80154:	100490fa 	slli	r2,r2,3
   80158:	10c5883a 	add	r2,r2,r3
   8015c:	10800104 	addi	r2,r2,4
   80160:	11000017 	ldw	r4,0(r2)
   80164:	283ee83a 	callr	r5
#ifndef NIOS2_EIC_PRESENT
static ALT_INLINE alt_u32 ALT_ALWAYS_INLINE alt_irq_pending (void)
{
  alt_u32 active;

  NIOS2_READ_IPENDING (active);
   80168:	0005313a 	rdctl	r2,ipending
   8016c:	e0bffb15 	stw	r2,-20(fp)

  return active;
   80170:	e0bffb17 	ldw	r2,-20(fp)
      mask <<= 1;
      i++;

    } while (1);

    active = alt_irq_pending ();
   80174:	e0bfff15 	stw	r2,-4(fp)
    
  } while (active);
   80178:	e0bfff17 	ldw	r2,-4(fp)
   8017c:	1004c03a 	cmpne	r2,r2,zero
   80180:	103fe31e 	bne	r2,zero,80110 <alt_irq_handler+0x24>
   80184:	00000706 	br	801a4 <alt_irq_handler+0xb8>
#else
        alt_irq[i].handler(alt_irq[i].context, i); 
#endif
        break;
      }
      mask <<= 1;
   80188:	e0bffe17 	ldw	r2,-8(fp)
   8018c:	1085883a 	add	r2,r2,r2
   80190:	e0bffe15 	stw	r2,-8(fp)
      i++;
   80194:	e0bffd17 	ldw	r2,-12(fp)
   80198:	10800044 	addi	r2,r2,1
   8019c:	e0bffd15 	stw	r2,-12(fp)

    } while (1);
   801a0:	003fde06 	br	8011c <alt_irq_handler+0x30>

  /*
   * Notify the operating system that interrupt processing is complete.
   */ 

  ALT_OS_INT_EXIT();
   801a4:	00930440 	call	93044 <OSIntExit>
}
   801a8:	e037883a 	mov	sp,fp
   801ac:	dfc00117 	ldw	ra,4(sp)
   801b0:	df000017 	ldw	fp,0(sp)
   801b4:	dec00204 	addi	sp,sp,8
   801b8:	f800283a 	ret

Disassembly of section .text:

000801bc <_start>:
#if (NIOS2_NUM_OF_SHADOW_REG_SETS == 0)    
    /*
     * Now that the caches are initialized, set up the stack pointer.
     * The value provided by the linker is assumed to be correctly aligned.
     */
    movhi sp, %hi(__alt_stack_pointer)
   801bc:	06c00434 	movhi	sp,16
    ori sp, sp, %lo(__alt_stack_pointer)
   801c0:	dec00014 	ori	sp,sp,0

    /* Set up the global pointer. */
    movhi gp, %hi(_gp)
   801c4:	068002b4 	movhi	gp,10
    ori gp, gp, %lo(_gp)
   801c8:	d6a71d14 	ori	gp,gp,40052
 */
#ifndef ALT_SIM_OPTIMIZE
    /* Log that the BSS is about to be cleared. */
    ALT_LOG_PUTS(alt_log_msg_bss)

    movhi r2, %hi(__bss_start)
   801cc:	008002b4 	movhi	r2,10
    ori r2, r2, %lo(__bss_start)
   801d0:	108e1d14 	ori	r2,r2,14452

    movhi r3, %hi(__bss_end)
   801d4:	00c002f4 	movhi	r3,11
    ori r3, r3, %lo(__bss_end)
   801d8:	18e37214 	ori	r3,r3,36296

    beq r2, r3, 1f
   801dc:	10c00326 	beq	r2,r3,801ec <_start+0x30>

0:
    stw zero, (r2)
   801e0:	10000015 	stw	zero,0(r2)
    addi r2, r2, 4
   801e4:	10800104 	addi	r2,r2,4
    bltu r2, r3, 0b
   801e8:	10fffd36 	bltu	r2,r3,801e0 <_start+0x24>
     * section aren't defined until alt_load() has been called).
     */
    mov   et, zero
#endif

    call alt_load
   801ec:	0091c280 	call	91c28 <alt_load>

    /* Log that alt_main is about to be called. */
    ALT_LOG_PUTS(alt_log_msg_alt_main)

    /* Call the C entry point. It should never return. */
    call alt_main
   801f0:	0091e680 	call	91e68 <alt_main>

000801f4 <alt_after_alt_main>:

    /* Wait in infinite loop in case alt_main does return. */
alt_after_alt_main:
    br alt_after_alt_main
   801f4:	003fff06 	br	801f4 <alt_after_alt_main>

000801f8 <KEY0_Pressed>:

// Semaphore from uCOS
extern OS_EVENT *PBSemaphore[];

// Function for post semaphore when PB0 is pressed
void KEY0_Pressed() {
   801f8:	defffd04 	addi	sp,sp,-12
   801fc:	dfc00215 	stw	ra,8(sp)
   80200:	df000115 	stw	fp,4(sp)
   80204:	df000104 	addi	fp,sp,4
	INT8U return_code = OS_NO_ERR;
   80208:	e03fff05 	stb	zero,-4(fp)

	return_code = OSSemPost(PBSemaphore[0]);
   8020c:	008002b4 	movhi	r2,10
   80210:	109dd504 	addi	r2,r2,30548
   80214:	11000017 	ldw	r4,0(r2)
   80218:	009a61c0 	call	9a61c <OSSemPost>
   8021c:	e0bfff05 	stb	r2,-4(fp)
	alt_ucosii_check_return_code(return_code);
   80220:	e13fff03 	ldbu	r4,-4(fp)
   80224:	00844500 	call	84450 <alt_ucosii_check_return_code>
}
   80228:	e037883a 	mov	sp,fp
   8022c:	dfc00117 	ldw	ra,4(sp)
   80230:	df000017 	ldw	fp,0(sp)
   80234:	dec00204 	addi	sp,sp,8
   80238:	f800283a 	ret

0008023c <KEY1_Pressed>:

// Function for post semaphore when PB1 is pressed
void KEY1_Pressed() {
   8023c:	defffd04 	addi	sp,sp,-12
   80240:	dfc00215 	stw	ra,8(sp)
   80244:	df000115 	stw	fp,4(sp)
   80248:	df000104 	addi	fp,sp,4
	INT8U return_code = OS_NO_ERR;
   8024c:	e03fff05 	stb	zero,-4(fp)

	return_code = OSSemPost(PBSemaphore[1]);
   80250:	008002b4 	movhi	r2,10
   80254:	109dd504 	addi	r2,r2,30548
   80258:	11000117 	ldw	r4,4(r2)
   8025c:	009a61c0 	call	9a61c <OSSemPost>
   80260:	e0bfff05 	stb	r2,-4(fp)
	alt_ucosii_check_return_code(return_code);
   80264:	e13fff03 	ldbu	r4,-4(fp)
   80268:	00844500 	call	84450 <alt_ucosii_check_return_code>
}
   8026c:	e037883a 	mov	sp,fp
   80270:	dfc00117 	ldw	ra,4(sp)
   80274:	df000017 	ldw	fp,0(sp)
   80278:	dec00204 	addi	sp,sp,8
   8027c:	f800283a 	ret

00080280 <KEY2_Pressed>:

// Function for post semaphore when PB2 is pressed
void KEY2_Pressed() {
   80280:	defffd04 	addi	sp,sp,-12
   80284:	dfc00215 	stw	ra,8(sp)
   80288:	df000115 	stw	fp,4(sp)
   8028c:	df000104 	addi	fp,sp,4
	INT8U return_code = OS_NO_ERR;
   80290:	e03fff05 	stb	zero,-4(fp)

	return_code = OSSemPost(PBSemaphore[2]);
   80294:	008002b4 	movhi	r2,10
   80298:	109dd504 	addi	r2,r2,30548
   8029c:	11000217 	ldw	r4,8(r2)
   802a0:	009a61c0 	call	9a61c <OSSemPost>
   802a4:	e0bfff05 	stb	r2,-4(fp)
	alt_ucosii_check_return_code(return_code);
   802a8:	e13fff03 	ldbu	r4,-4(fp)
   802ac:	00844500 	call	84450 <alt_ucosii_check_return_code>
}
   802b0:	e037883a 	mov	sp,fp
   802b4:	dfc00117 	ldw	ra,4(sp)
   802b8:	df000017 	ldw	fp,0(sp)
   802bc:	dec00204 	addi	sp,sp,8
   802c0:	f800283a 	ret

000802c4 <KEY3_Pressed>:

// Function for post semaphore when PB3 is pressed
void KEY3_Pressed() {
   802c4:	defffd04 	addi	sp,sp,-12
   802c8:	dfc00215 	stw	ra,8(sp)
   802cc:	df000115 	stw	fp,4(sp)
   802d0:	df000104 	addi	fp,sp,4
	INT8U return_code = OS_NO_ERR;
   802d4:	e03fff05 	stb	zero,-4(fp)

	return_code = OSSemPost(PBSemaphore[3]);
   802d8:	008002b4 	movhi	r2,10
   802dc:	109dd504 	addi	r2,r2,30548
   802e0:	11000317 	ldw	r4,12(r2)
   802e4:	009a61c0 	call	9a61c <OSSemPost>
   802e8:	e0bfff05 	stb	r2,-4(fp)
	alt_ucosii_check_return_code(return_code);
   802ec:	e13fff03 	ldbu	r4,-4(fp)
   802f0:	00844500 	call	84450 <alt_ucosii_check_return_code>
}
   802f4:	e037883a 	mov	sp,fp
   802f8:	dfc00117 	ldw	ra,4(sp)
   802fc:	df000017 	ldw	fp,0(sp)
   80300:	dec00204 	addi	sp,sp,8
   80304:	f800283a 	ret

00080308 <handle_button_interrupts>:
// ISR when any PB is pressed
void handle_button_interrupts()
{
   80308:	defffd04 	addi	sp,sp,-12
   8030c:	dfc00215 	stw	ra,8(sp)
   80310:	df000115 	stw	fp,4(sp)
   80314:	df000104 	addi	fp,sp,4
	OSIntEnter();
   80318:	0092fc80 	call	92fc8 <OSIntEnter>

	outport(LED_GREEN_O_BASE,get_pio_edge_cap(PUSH_BUTTON_I_BASE)*get_pio_edge_cap(PUSH_BUTTON_I_BASE));
   8031c:	00800434 	movhi	r2,16
   80320:	10852304 	addi	r2,r2,5260
   80324:	11000037 	ldwio	r4,0(r2)
   80328:	00800434 	movhi	r2,16
   8032c:	10852304 	addi	r2,r2,5260
   80330:	11400037 	ldwio	r5,0(r2)
   80334:	00877e40 	call	877e4 <__mulsi3>
   80338:	1007883a 	mov	r3,r2
   8033c:	00800434 	movhi	r2,16
   80340:	10851804 	addi	r2,r2,5216
   80344:	10c00035 	stwio	r3,0(r2)
	switch(get_pio_edge_cap(PUSH_BUTTON_I_BASE)) {
   80348:	00800434 	movhi	r2,16
   8034c:	10852304 	addi	r2,r2,5260
   80350:	10800037 	ldwio	r2,0(r2)
   80354:	e0bfff15 	stw	r2,-4(fp)
   80358:	e0ffff17 	ldw	r3,-4(fp)
   8035c:	188000a0 	cmpeqi	r2,r3,2
   80360:	1000101e 	bne	r2,zero,803a4 <handle_button_interrupts+0x9c>
   80364:	e0ffff17 	ldw	r3,-4(fp)
   80368:	188000c8 	cmpgei	r2,r3,3
   8036c:	1000041e 	bne	r2,zero,80380 <handle_button_interrupts+0x78>
   80370:	e0ffff17 	ldw	r3,-4(fp)
   80374:	18800060 	cmpeqi	r2,r3,1
   80378:	1000081e 	bne	r2,zero,8039c <handle_button_interrupts+0x94>
   8037c:	00000e06 	br	803b8 <handle_button_interrupts+0xb0>
   80380:	e0ffff17 	ldw	r3,-4(fp)
   80384:	18800120 	cmpeqi	r2,r3,4
   80388:	1000081e 	bne	r2,zero,803ac <handle_button_interrupts+0xa4>
   8038c:	e0ffff17 	ldw	r3,-4(fp)
   80390:	18800220 	cmpeqi	r2,r3,8
   80394:	1000071e 	bne	r2,zero,803b4 <handle_button_interrupts+0xac>
   80398:	00000706 	br	803b8 <handle_button_interrupts+0xb0>
	case 1: KEY0_Pressed(); break;
   8039c:	00801f80 	call	801f8 <KEY0_Pressed>
   803a0:	00000506 	br	803b8 <handle_button_interrupts+0xb0>
	case 2: KEY1_Pressed(); break;
   803a4:	008023c0 	call	8023c <KEY1_Pressed>
   803a8:	00000306 	br	803b8 <handle_button_interrupts+0xb0>
	case 4: KEY2_Pressed(); break;
   803ac:	00802800 	call	80280 <KEY2_Pressed>
   803b0:	00000106 	br	803b8 <handle_button_interrupts+0xb0>
	case 8: KEY3_Pressed(); break;
   803b4:	00802c40 	call	802c4 <KEY3_Pressed>
	}
	set_pio_edge_cap(PUSH_BUTTON_I_BASE,0x0);
   803b8:	00800434 	movhi	r2,16
   803bc:	10852304 	addi	r2,r2,5260
   803c0:	10000035 	stwio	zero,0(r2)

	OSIntExit();
   803c4:	00930440 	call	93044 <OSIntExit>
}
   803c8:	e037883a 	mov	sp,fp
   803cc:	dfc00117 	ldw	ra,4(sp)
   803d0:	df000017 	ldw	fp,0(sp)
   803d4:	dec00204 	addi	sp,sp,8
   803d8:	f800283a 	ret

000803dc <init_button_irq>:

// Function for initializing the ISR of the PBs
// The PBs are setup to generate interrupt on falling edge,
// and the interrupt is captured when the edge comes
void init_button_irq() {
   803dc:	defffe04 	addi	sp,sp,-8
   803e0:	dfc00115 	stw	ra,4(sp)
   803e4:	df000015 	stw	fp,0(sp)
   803e8:	d839883a 	mov	fp,sp
  // Enable all 4 button interrupts
  set_pio_irq_mask(PUSH_BUTTON_I_BASE, BUTTON_INT_MASK);
   803ec:	00800434 	movhi	r2,16
   803f0:	10852204 	addi	r2,r2,5256
   803f4:	00c003c4 	movi	r3,15
   803f8:	10c00035 	stwio	r3,0(r2)

  // Reset the edge capture register
  set_pio_edge_cap(PUSH_BUTTON_I_BASE, 0x0);
   803fc:	00800434 	movhi	r2,16
   80400:	10852304 	addi	r2,r2,5260
   80404:	10000035 	stwio	zero,0(r2)

  // Register the interrupt handler
  alt_irq_register( PUSH_BUTTON_I_IRQ, NULL, (void*)handle_button_interrupts );
   80408:	01000084 	movi	r4,2
   8040c:	000b883a 	mov	r5,zero
   80410:	01800234 	movhi	r6,8
   80414:	3180c204 	addi	r6,r6,776
   80418:	00919440 	call	91944 <alt_irq_register>
}
   8041c:	e037883a 	mov	sp,fp
   80420:	dfc00117 	ldw	ra,4(sp)
   80424:	df000017 	ldw	fp,0(sp)
   80428:	dec00204 	addi	sp,sp,8
   8042c:	f800283a 	ret

00080430 <Write_Sector_Data>:
///////////////////////////////////////////////////////////////////////////

        
bool Write_Sector_Data(int sector_index, int partition_offset)
// This function writes a sector at the specified address on the SD Card.
{
   80430:	defffa04 	addi	sp,sp,-24
   80434:	dfc00515 	stw	ra,20(sp)
   80438:	df000415 	stw	fp,16(sp)
   8043c:	df000404 	addi	fp,sp,16
   80440:	e13ffe15 	stw	r4,-8(fp)
   80444:	e17fff15 	stw	r5,-4(fp)
    bool result = false;
   80448:	e03ffd15 	stw	zero,-12(fp)
    
    if (sd_card_is_Present())
   8044c:	0082ef80 	call	82ef8 <sd_card_is_Present>
   80450:	1005003a 	cmpeq	r2,r2,zero
   80454:	10001f1e 	bne	r2,zero,804d4 <Write_Sector_Data+0xa4>
    {
        short int reg_state = 0xff;
   80458:	00803fc4 	movi	r2,255
   8045c:	e0bffc0d 	sth	r2,-16(fp)

		/* Multiply sector offset by sector size to get the address. Sector size is 512. Also,
         * the SD card reads data in 512 byte chunks, so the address must be a multiple of 512. */
        *command_argument_register = (sector_index + partition_offset)*512;
   80460:	d1270617 	ldw	r4,-25576(gp)
   80464:	e0fffe17 	ldw	r3,-8(fp)
   80468:	e0bfff17 	ldw	r2,-4(fp)
   8046c:	1885883a 	add	r2,r3,r2
   80470:	1004927a 	slli	r2,r2,9
   80474:	20800015 	stw	r2,0(r4)
        *command_register = CMD_WRITE_BLOCK;
   80478:	d0e70517 	ldw	r3,-25580(gp)
   8047c:	00800604 	movi	r2,24
   80480:	1880000d 	sth	r2,0(r3)
        do {
            reg_state = *aux_status_register;
   80484:	d0a70217 	ldw	r2,-25592(gp)
   80488:	1080000b 	ldhu	r2,0(r2)
   8048c:	e0bffc0d 	sth	r2,-16(fp)
        } while ((reg_state & 0x04)!=0);
   80490:	e0bffc0b 	ldhu	r2,-16(fp)
   80494:	10bfffcc 	andi	r2,r2,65535
   80498:	1080010c 	andi	r2,r2,4
   8049c:	1004c03a 	cmpne	r2,r2,zero
   804a0:	103ff81e 	bne	r2,zero,80484 <Write_Sector_Data+0x54>
        // Make sure the request did not time out.
        if ((reg_state & 0x10) == 0)
   804a4:	e0bffc0b 	ldhu	r2,-16(fp)
   804a8:	10bfffcc 	andi	r2,r2,65535
   804ac:	1080040c 	andi	r2,r2,16
   804b0:	1004c03a 	cmpne	r2,r2,zero
   804b4:	1000071e 	bne	r2,zero,804d4 <Write_Sector_Data+0xa4>
        {
            result = true;
   804b8:	00800044 	movi	r2,1
   804bc:	e0bffd15 	stw	r2,-12(fp)
            current_sector_modified = false;
   804c0:	d0270915 	stw	zero,-25564(gp)
            current_sector_index = sector_index+partition_offset;
   804c4:	e0fffe17 	ldw	r3,-8(fp)
   804c8:	e0bfff17 	ldw	r2,-4(fp)
   804cc:	1885883a 	add	r2,r3,r2
   804d0:	d0a70a15 	stw	r2,-25560(gp)
        }
    }
    return result;
   804d4:	e0bffd17 	ldw	r2,-12(fp)
}
   804d8:	e037883a 	mov	sp,fp
   804dc:	dfc00117 	ldw	ra,4(sp)
   804e0:	df000017 	ldw	fp,0(sp)
   804e4:	dec00204 	addi	sp,sp,8
   804e8:	f800283a 	ret

000804ec <Save_Modified_Sector>:


bool Save_Modified_Sector()
// If the sector has been modified, then save it to the SD Card.
{
   804ec:	defffd04 	addi	sp,sp,-12
   804f0:	dfc00215 	stw	ra,8(sp)
   804f4:	df000115 	stw	fp,4(sp)
   804f8:	df000104 	addi	fp,sp,4
    bool result = true;
   804fc:	00800044 	movi	r2,1
   80500:	e0bfff15 	stw	r2,-4(fp)
    if (current_sector_modified)
   80504:	d0a70917 	ldw	r2,-25564(gp)
   80508:	1005003a 	cmpeq	r2,r2,zero
   8050c:	1000051e 	bne	r2,zero,80524 <Save_Modified_Sector+0x38>
    {
        result = Write_Sector_Data(current_sector_index, 0);
   80510:	d0a70a17 	ldw	r2,-25560(gp)
   80514:	1009883a 	mov	r4,r2
   80518:	000b883a 	mov	r5,zero
   8051c:	00804300 	call	80430 <Write_Sector_Data>
   80520:	e0bfff15 	stw	r2,-4(fp)
    }
    return result;
   80524:	e0bfff17 	ldw	r2,-4(fp)
}
   80528:	e037883a 	mov	sp,fp
   8052c:	dfc00117 	ldw	ra,4(sp)
   80530:	df000017 	ldw	fp,0(sp)
   80534:	dec00204 	addi	sp,sp,8
   80538:	f800283a 	ret

0008053c <Read_Sector_Data>:


bool Read_Sector_Data(int sector_index, int partition_offset)
// This function reads a sector at the specified address on the SD Card.
{
   8053c:	defff904 	addi	sp,sp,-28
   80540:	dfc00615 	stw	ra,24(sp)
   80544:	df000515 	stw	fp,20(sp)
   80548:	df000504 	addi	fp,sp,20
   8054c:	e13ffd15 	stw	r4,-12(fp)
   80550:	e17ffe15 	stw	r5,-8(fp)
	bool result = false;
   80554:	e03ffc15 	stw	zero,-16(fp)
    
	if (sd_card_is_Present())
   80558:	0082ef80 	call	82ef8 <sd_card_is_Present>
   8055c:	1005003a 	cmpeq	r2,r2,zero
   80560:	10002a1e 	bne	r2,zero,8060c <Read_Sector_Data+0xd0>
	{
		short int reg_state = 0xff;
   80564:	00803fc4 	movi	r2,255
   80568:	e0bffb0d 	sth	r2,-20(fp)
        
        /* Write data to the SD card if the current buffer is out of date. */
        if (current_sector_modified)
   8056c:	d0a70917 	ldw	r2,-25564(gp)
   80570:	1005003a 	cmpeq	r2,r2,zero
   80574:	1000081e 	bne	r2,zero,80598 <Read_Sector_Data+0x5c>
        {
            if (Write_Sector_Data(current_sector_index, 0) == false)
   80578:	d0a70a17 	ldw	r2,-25560(gp)
   8057c:	1009883a 	mov	r4,r2
   80580:	000b883a 	mov	r5,zero
   80584:	00804300 	call	80430 <Write_Sector_Data>
   80588:	1004c03a 	cmpne	r2,r2,zero
   8058c:	1000021e 	bne	r2,zero,80598 <Read_Sector_Data+0x5c>
            {
                return false;
   80590:	e03fff15 	stw	zero,-4(fp)
   80594:	00001f06 	br	80614 <Read_Sector_Data+0xd8>
            }
        }
		/* Multiply sector offset by sector size to get the address. Sector size is 512. Also,
		 * the SD card reads data in 512 byte chunks, so the address must be a multiple of 512. */
		*command_argument_register = (sector_index + partition_offset)*512;
   80598:	d1270617 	ldw	r4,-25576(gp)
   8059c:	e0fffd17 	ldw	r3,-12(fp)
   805a0:	e0bffe17 	ldw	r2,-8(fp)
   805a4:	1885883a 	add	r2,r3,r2
   805a8:	1004927a 	slli	r2,r2,9
   805ac:	20800015 	stw	r2,0(r4)
		*command_register = CMD_READ_BLOCK;
   805b0:	d0e70517 	ldw	r3,-25580(gp)
   805b4:	00800444 	movi	r2,17
   805b8:	1880000d 	sth	r2,0(r3)
		do {
			reg_state = *aux_status_register;
   805bc:	d0a70217 	ldw	r2,-25592(gp)
   805c0:	1080000b 	ldhu	r2,0(r2)
   805c4:	e0bffb0d 	sth	r2,-20(fp)
		} while ((reg_state & 0x04)!=0);
   805c8:	e0bffb0b 	ldhu	r2,-20(fp)
   805cc:	10bfffcc 	andi	r2,r2,65535
   805d0:	1080010c 	andi	r2,r2,4
   805d4:	1004c03a 	cmpne	r2,r2,zero
   805d8:	103ff81e 	bne	r2,zero,805bc <Read_Sector_Data+0x80>
		// Make sure the request did not time out.
		if ((reg_state & 0x10) == 0)
   805dc:	e0bffb0b 	ldhu	r2,-20(fp)
   805e0:	10bfffcc 	andi	r2,r2,65535
   805e4:	1080040c 	andi	r2,r2,16
   805e8:	1004c03a 	cmpne	r2,r2,zero
   805ec:	1000071e 	bne	r2,zero,8060c <Read_Sector_Data+0xd0>
		{
			result = true;
   805f0:	00800044 	movi	r2,1
   805f4:	e0bffc15 	stw	r2,-16(fp)
            current_sector_modified = false;
   805f8:	d0270915 	stw	zero,-25564(gp)
            current_sector_index = sector_index+partition_offset;
   805fc:	e0fffd17 	ldw	r3,-12(fp)
   80600:	e0bffe17 	ldw	r2,-8(fp)
   80604:	1885883a 	add	r2,r3,r2
   80608:	d0a70a15 	stw	r2,-25560(gp)
		}
	}
	return result;
   8060c:	e0bffc17 	ldw	r2,-16(fp)
   80610:	e0bfff15 	stw	r2,-4(fp)
   80614:	e0bfff17 	ldw	r2,-4(fp)
}
   80618:	e037883a 	mov	sp,fp
   8061c:	dfc00117 	ldw	ra,4(sp)
   80620:	df000017 	ldw	fp,0(sp)
   80624:	dec00204 	addi	sp,sp,8
   80628:	f800283a 	ret

0008062c <get_cluster_flag>:


bool get_cluster_flag(unsigned int cluster_index, unsigned short int *flag)
// Read a cluster flag.
{
   8062c:	defffa04 	addi	sp,sp,-24
   80630:	dfc00515 	stw	ra,20(sp)
   80634:	df000415 	stw	fp,16(sp)
   80638:	df000404 	addi	fp,sp,16
   8063c:	e13ffd15 	stw	r4,-12(fp)
   80640:	e17ffe15 	stw	r5,-8(fp)
    unsigned int sector_index = (cluster_index / 256) + fat_partition_offset_in_512_byte_sectors;
   80644:	e0bffd17 	ldw	r2,-12(fp)
   80648:	1006d23a 	srli	r3,r2,8
   8064c:	d0a70717 	ldw	r2,-25572(gp)
   80650:	1885883a 	add	r2,r3,r2
   80654:	e0bffc15 	stw	r2,-16(fp)
    
    sector_index  = sector_index + boot_sector_data.first_fat_sector_offset;
   80658:	008002b4 	movhi	r2,10
   8065c:	108e6a04 	addi	r2,r2,14760
   80660:	10c01117 	ldw	r3,68(r2)
   80664:	e0bffc17 	ldw	r2,-16(fp)
   80668:	10c5883a 	add	r2,r2,r3
   8066c:	e0bffc15 	stw	r2,-16(fp)
     
    if (sector_index != current_sector_index)
   80670:	d0e70a17 	ldw	r3,-25560(gp)
   80674:	e0bffc17 	ldw	r2,-16(fp)
   80678:	10c00726 	beq	r2,r3,80698 <get_cluster_flag+0x6c>
    {
        if (Read_Sector_Data(sector_index, 0) == false)
   8067c:	e13ffc17 	ldw	r4,-16(fp)
   80680:	000b883a 	mov	r5,zero
   80684:	008053c0 	call	8053c <Read_Sector_Data>
   80688:	1004c03a 	cmpne	r2,r2,zero
   8068c:	1000021e 	bne	r2,zero,80698 <get_cluster_flag+0x6c>
        {
            return false;
   80690:	e03fff15 	stw	zero,-4(fp)
   80694:	00000806 	br	806b8 <get_cluster_flag+0x8c>
        }
    }
    *flag = (*((volatile unsigned short int *) SD_CARD_BUFFER(SD_CARD_0_BASE, 2*(cluster_index % 256))));
   80698:	e0bffd17 	ldw	r2,-12(fp)
   8069c:	10803fcc 	andi	r2,r2,255
   806a0:	1085883a 	add	r2,r2,r2
   806a4:	10c0000b 	ldhu	r3,0(r2)
   806a8:	e0bffe17 	ldw	r2,-8(fp)
   806ac:	10c0000d 	sth	r3,0(r2)
    return true;
   806b0:	00800044 	movi	r2,1
   806b4:	e0bfff15 	stw	r2,-4(fp)
   806b8:	e0bfff17 	ldw	r2,-4(fp)
}
   806bc:	e037883a 	mov	sp,fp
   806c0:	dfc00117 	ldw	ra,4(sp)
   806c4:	df000017 	ldw	fp,0(sp)
   806c8:	dec00204 	addi	sp,sp,8
   806cc:	f800283a 	ret

000806d0 <mark_cluster>:


bool mark_cluster(unsigned int cluster_index, short int flag, bool first_fat)
// Place a marker on the specified cluster in a given FAT.
{
   806d0:	defff904 	addi	sp,sp,-28
   806d4:	dfc00615 	stw	ra,24(sp)
   806d8:	df000515 	stw	fp,20(sp)
   806dc:	df000504 	addi	fp,sp,20
   806e0:	e13ffc15 	stw	r4,-16(fp)
   806e4:	e1bffe15 	stw	r6,-8(fp)
   806e8:	e17ffd0d 	sth	r5,-12(fp)
    unsigned int sector_index = (cluster_index / 256) +  fat_partition_offset_in_512_byte_sectors;
   806ec:	e0bffc17 	ldw	r2,-16(fp)
   806f0:	1006d23a 	srli	r3,r2,8
   806f4:	d0a70717 	ldw	r2,-25572(gp)
   806f8:	1885883a 	add	r2,r3,r2
   806fc:	e0bffb15 	stw	r2,-20(fp)
    
    if (first_fat)
   80700:	e0bffe17 	ldw	r2,-8(fp)
   80704:	1005003a 	cmpeq	r2,r2,zero
   80708:	1000071e 	bne	r2,zero,80728 <mark_cluster+0x58>
    {
        sector_index  = sector_index + boot_sector_data.first_fat_sector_offset;
   8070c:	008002b4 	movhi	r2,10
   80710:	108e6a04 	addi	r2,r2,14760
   80714:	10c01117 	ldw	r3,68(r2)
   80718:	e0bffb17 	ldw	r2,-20(fp)
   8071c:	10c5883a 	add	r2,r2,r3
   80720:	e0bffb15 	stw	r2,-20(fp)
   80724:	00000606 	br	80740 <mark_cluster+0x70>
    }
    else
    {
        sector_index  = sector_index + boot_sector_data.second_fat_sector_offset;
   80728:	008002b4 	movhi	r2,10
   8072c:	108e6a04 	addi	r2,r2,14760
   80730:	10c01217 	ldw	r3,72(r2)
   80734:	e0bffb17 	ldw	r2,-20(fp)
   80738:	10c5883a 	add	r2,r2,r3
   8073c:	e0bffb15 	stw	r2,-20(fp)
    }
     
    if (sector_index != current_sector_index)
   80740:	d0e70a17 	ldw	r3,-25560(gp)
   80744:	e0bffb17 	ldw	r2,-20(fp)
   80748:	10c00726 	beq	r2,r3,80768 <mark_cluster+0x98>
    {
        if (Read_Sector_Data(sector_index, 0) == false)
   8074c:	e13ffb17 	ldw	r4,-20(fp)
   80750:	000b883a 	mov	r5,zero
   80754:	008053c0 	call	8053c <Read_Sector_Data>
   80758:	1004c03a 	cmpne	r2,r2,zero
   8075c:	1000021e 	bne	r2,zero,80768 <mark_cluster+0x98>
        {
            return false;
   80760:	e03fff15 	stw	zero,-4(fp)
   80764:	00000a06 	br	80790 <mark_cluster+0xc0>
        }
    }
    (*((volatile short int *) SD_CARD_BUFFER(SD_CARD_0_BASE, 2*(cluster_index % 256)))) = flag;
   80768:	e0bffc17 	ldw	r2,-16(fp)
   8076c:	10803fcc 	andi	r2,r2,255
   80770:	1085883a 	add	r2,r2,r2
   80774:	1007883a 	mov	r3,r2
   80778:	e0bffd0b 	ldhu	r2,-12(fp)
   8077c:	1880000d 	sth	r2,0(r3)
    current_sector_modified = true;
   80780:	00800044 	movi	r2,1
   80784:	d0a70915 	stw	r2,-25564(gp)
    return true;
   80788:	00800044 	movi	r2,1
   8078c:	e0bfff15 	stw	r2,-4(fp)
   80790:	e0bfff17 	ldw	r2,-4(fp)
}
   80794:	e037883a 	mov	sp,fp
   80798:	dfc00117 	ldw	ra,4(sp)
   8079c:	df000017 	ldw	fp,0(sp)
   807a0:	dec00204 	addi	sp,sp,8
   807a4:	f800283a 	ret

000807a8 <Check_for_Master_Boot_Record>:

bool Check_for_Master_Boot_Record(void)
// This function reads the first 512 bytes on the SD Card. This data should
// contain the Master Boot Record. If it does, then print
// relevant information and return true. Otherwise, return false. 
{
   807a8:	defff704 	addi	sp,sp,-36
   807ac:	dfc00815 	stw	ra,32(sp)
   807b0:	df000715 	stw	fp,28(sp)
   807b4:	df000704 	addi	fp,sp,28
	bool result = false;
   807b8:	e03fff15 	stw	zero,-4(fp)
	int index;
	int end, offset, partition_size;

	/* Load the first 512 bytes of data from SD card. */
	if (Read_Sector_Data(0, 0))
   807bc:	0009883a 	mov	r4,zero
   807c0:	000b883a 	mov	r5,zero
   807c4:	008053c0 	call	8053c <Read_Sector_Data>
   807c8:	1005003a 	cmpeq	r2,r2,zero
   807cc:	1000461e 	bne	r2,zero,808e8 <Check_for_Master_Boot_Record+0x140>
	{
		end =  (*((volatile short int *)SD_CARD_BUFFER(SD_CARD_0_BASE, 0x1fe)));
   807d0:	00807f84 	movi	r2,510
   807d4:	1080000b 	ldhu	r2,0(r2)
   807d8:	10bfffcc 	andi	r2,r2,65535
   807dc:	10a0001c 	xori	r2,r2,32768
   807e0:	10a00004 	addi	r2,r2,-32768
   807e4:	e0bffd15 	stw	r2,-12(fp)

		// Check if the end of the sector contains an end string 0xaa55.
		if ((end & 0x0000ffff) == 0x0000aa55)
   807e8:	e0bffd17 	ldw	r2,-12(fp)
   807ec:	10ffffcc 	andi	r3,r2,65535
   807f0:	00aa9554 	movui	r2,43605
   807f4:	18803c1e 	bne	r3,r2,808e8 <Check_for_Master_Boot_Record+0x140>
		{
			// Check four partition entries and see if any are valid
			for (index = 0; index < 4; index++)
   807f8:	e03ffe15 	stw	zero,-8(fp)
   807fc:	00003706 	br	808dc <Check_for_Master_Boot_Record+0x134>
			{
				int partition_data_offset = (index * 16) + 0x01be;
   80800:	e0bffe17 	ldw	r2,-8(fp)
   80804:	1004913a 	slli	r2,r2,4
   80808:	10806f84 	addi	r2,r2,446
   8080c:	e0bffa15 	stw	r2,-24(fp)
				char type;
		        
				// Read Partition type
				type = (*((volatile unsigned char *)SD_CARD_BUFFER(SD_CARD_0_BASE, partition_data_offset + 0x04)));
   80810:	e0bffa17 	ldw	r2,-24(fp)
   80814:	10800104 	addi	r2,r2,4
   80818:	10800003 	ldbu	r2,0(r2)
   8081c:	e0bff905 	stb	r2,-28(fp)

				// Check if this is an FAT parition
				if ((type == 1) || (type == 4) || (type == 6) || (type == 14))
   80820:	e0bff907 	ldb	r2,-28(fp)
   80824:	10800060 	cmpeqi	r2,r2,1
   80828:	1000091e 	bne	r2,zero,80850 <Check_for_Master_Boot_Record+0xa8>
   8082c:	e0bff907 	ldb	r2,-28(fp)
   80830:	10800120 	cmpeqi	r2,r2,4
   80834:	1000061e 	bne	r2,zero,80850 <Check_for_Master_Boot_Record+0xa8>
   80838:	e0bff907 	ldb	r2,-28(fp)
   8083c:	108001a0 	cmpeqi	r2,r2,6
   80840:	1000031e 	bne	r2,zero,80850 <Check_for_Master_Boot_Record+0xa8>
   80844:	e0bff907 	ldb	r2,-28(fp)
   80848:	10800398 	cmpnei	r2,r2,14
   8084c:	1000201e 	bne	r2,zero,808d0 <Check_for_Master_Boot_Record+0x128>
				{
					// Get partition offset and size.
					offset = ((*((unsigned short int *)SD_CARD_BUFFER(SD_CARD_0_BASE, partition_data_offset + 0x0A))) << 16) | (*((unsigned short int *)SD_CARD_BUFFER(SD_CARD_0_BASE, partition_data_offset + 0x08)));
   80850:	e0bffa17 	ldw	r2,-24(fp)
   80854:	10800284 	addi	r2,r2,10
   80858:	1080000b 	ldhu	r2,0(r2)
   8085c:	10bfffcc 	andi	r2,r2,65535
   80860:	1006943a 	slli	r3,r2,16
   80864:	e0bffa17 	ldw	r2,-24(fp)
   80868:	10800204 	addi	r2,r2,8
   8086c:	1080000b 	ldhu	r2,0(r2)
   80870:	10bfffcc 	andi	r2,r2,65535
   80874:	1884b03a 	or	r2,r3,r2
   80878:	e0bffc15 	stw	r2,-16(fp)
					partition_size = ((*((unsigned short int *)SD_CARD_BUFFER(SD_CARD_0_BASE, partition_data_offset + 0x0E))) << 16) | (*((unsigned short int *)SD_CARD_BUFFER(SD_CARD_0_BASE, partition_data_offset + 0x0C)));
   8087c:	e0bffa17 	ldw	r2,-24(fp)
   80880:	10800384 	addi	r2,r2,14
   80884:	1080000b 	ldhu	r2,0(r2)
   80888:	10bfffcc 	andi	r2,r2,65535
   8088c:	1006943a 	slli	r3,r2,16
   80890:	e0bffa17 	ldw	r2,-24(fp)
   80894:	10800304 	addi	r2,r2,12
   80898:	1080000b 	ldhu	r2,0(r2)
   8089c:	10bfffcc 	andi	r2,r2,65535
   808a0:	1884b03a 	or	r2,r3,r2
   808a4:	e0bffb15 	stw	r2,-20(fp)
		            
					// Check if the partition is valid
					if (partition_size > 0)
   808a8:	e0bffb17 	ldw	r2,-20(fp)
   808ac:	10800050 	cmplti	r2,r2,1
   808b0:	1000071e 	bne	r2,zero,808d0 <Check_for_Master_Boot_Record+0x128>
					{
						result = true;
   808b4:	00800044 	movi	r2,1
   808b8:	e0bfff15 	stw	r2,-4(fp)
						fat_partition_size_in_512_byte_sectors = partition_size;
   808bc:	e0bffb17 	ldw	r2,-20(fp)
   808c0:	d0a70815 	stw	r2,-25568(gp)
						fat_partition_offset_in_512_byte_sectors = offset;
   808c4:	e0bffc17 	ldw	r2,-16(fp)
   808c8:	d0a70715 	stw	r2,-25572(gp)
						break;
   808cc:	00000606 	br	808e8 <Check_for_Master_Boot_Record+0x140>

		// Check if the end of the sector contains an end string 0xaa55.
		if ((end & 0x0000ffff) == 0x0000aa55)
		{
			// Check four partition entries and see if any are valid
			for (index = 0; index < 4; index++)
   808d0:	e0bffe17 	ldw	r2,-8(fp)
   808d4:	10800044 	addi	r2,r2,1
   808d8:	e0bffe15 	stw	r2,-8(fp)
   808dc:	e0bffe17 	ldw	r2,-8(fp)
   808e0:	10800110 	cmplti	r2,r2,4
   808e4:	103fc61e 	bne	r2,zero,80800 <Check_for_Master_Boot_Record+0x58>
				}
			}
		}
	}

	return result;
   808e8:	e0bfff17 	ldw	r2,-4(fp)
}
   808ec:	e037883a 	mov	sp,fp
   808f0:	dfc00117 	ldw	ra,4(sp)
   808f4:	df000017 	ldw	fp,0(sp)
   808f8:	dec00204 	addi	sp,sp,8
   808fc:	f800283a 	ret

00080900 <Read_File_Record_At_Offset>:


bool Read_File_Record_At_Offset(int offset, t_file_record *record, unsigned int cluster_index, unsigned int sector_in_cluster)
// This function reads a file record
{
   80900:	defff804 	addi	sp,sp,-32
   80904:	dfc00715 	stw	ra,28(sp)
   80908:	df000615 	stw	fp,24(sp)
   8090c:	df000604 	addi	fp,sp,24
   80910:	e13ffc15 	stw	r4,-16(fp)
   80914:	e17ffd15 	stw	r5,-12(fp)
   80918:	e1bffe15 	stw	r6,-8(fp)
   8091c:	e1ffff15 	stw	r7,-4(fp)
	bool result = false;
   80920:	e03ffb15 	stw	zero,-20(fp)
	if (((offset & 0x01f) == 0) && (sd_card_is_Present()) && (is_sd_card_formated_as_FAT16))
   80924:	e0bffc17 	ldw	r2,-16(fp)
   80928:	108007cc 	andi	r2,r2,31
   8092c:	1004c03a 	cmpne	r2,r2,zero
   80930:	10005f1e 	bne	r2,zero,80ab0 <Read_File_Record_At_Offset+0x1b0>
   80934:	0082ef80 	call	82ef8 <sd_card_is_Present>
   80938:	1005003a 	cmpeq	r2,r2,zero
   8093c:	10005c1e 	bne	r2,zero,80ab0 <Read_File_Record_At_Offset+0x1b0>
   80940:	d0a70117 	ldw	r2,-25596(gp)
   80944:	1005003a 	cmpeq	r2,r2,zero
   80948:	1000591e 	bne	r2,zero,80ab0 <Read_File_Record_At_Offset+0x1b0>
	{
		int counter;

		for (counter = 0; counter < 8; counter++)
   8094c:	e03ffa15 	stw	zero,-24(fp)
   80950:	00000c06 	br	80984 <Read_File_Record_At_Offset+0x84>
		{
			record->name[counter] = *((volatile char *)SD_CARD_BUFFER(SD_CARD_0_BASE, offset+counter));
   80954:	e13ffa17 	ldw	r4,-24(fp)
   80958:	e0fffc17 	ldw	r3,-16(fp)
   8095c:	e0bffa17 	ldw	r2,-24(fp)
   80960:	1885883a 	add	r2,r3,r2
   80964:	10800003 	ldbu	r2,0(r2)
   80968:	1007883a 	mov	r3,r2
   8096c:	e0bffd17 	ldw	r2,-12(fp)
   80970:	1105883a 	add	r2,r2,r4
   80974:	10c00005 	stb	r3,0(r2)
	bool result = false;
	if (((offset & 0x01f) == 0) && (sd_card_is_Present()) && (is_sd_card_formated_as_FAT16))
	{
		int counter;

		for (counter = 0; counter < 8; counter++)
   80978:	e0bffa17 	ldw	r2,-24(fp)
   8097c:	10800044 	addi	r2,r2,1
   80980:	e0bffa15 	stw	r2,-24(fp)
   80984:	e0bffa17 	ldw	r2,-24(fp)
   80988:	10800210 	cmplti	r2,r2,8
   8098c:	103ff11e 	bne	r2,zero,80954 <Read_File_Record_At_Offset+0x54>
		{
			record->name[counter] = *((volatile char *)SD_CARD_BUFFER(SD_CARD_0_BASE, offset+counter));
		}        
		for (counter = 0; counter < 3; counter++)
   80990:	e03ffa15 	stw	zero,-24(fp)
   80994:	00000e06 	br	809d0 <Read_File_Record_At_Offset+0xd0>
		{
			record->extension[counter] = *((volatile char *)SD_CARD_BUFFER(SD_CARD_0_BASE, offset+counter+8));
   80998:	e13ffa17 	ldw	r4,-24(fp)
   8099c:	e0fffc17 	ldw	r3,-16(fp)
   809a0:	e0bffa17 	ldw	r2,-24(fp)
   809a4:	1885883a 	add	r2,r3,r2
   809a8:	10800204 	addi	r2,r2,8
   809ac:	10800003 	ldbu	r2,0(r2)
   809b0:	1007883a 	mov	r3,r2
   809b4:	e0bffd17 	ldw	r2,-12(fp)
   809b8:	2085883a 	add	r2,r4,r2
   809bc:	10800204 	addi	r2,r2,8
   809c0:	10c00005 	stb	r3,0(r2)

		for (counter = 0; counter < 8; counter++)
		{
			record->name[counter] = *((volatile char *)SD_CARD_BUFFER(SD_CARD_0_BASE, offset+counter));
		}        
		for (counter = 0; counter < 3; counter++)
   809c4:	e0bffa17 	ldw	r2,-24(fp)
   809c8:	10800044 	addi	r2,r2,1
   809cc:	e0bffa15 	stw	r2,-24(fp)
   809d0:	e0bffa17 	ldw	r2,-24(fp)
   809d4:	108000d0 	cmplti	r2,r2,3
   809d8:	103fef1e 	bne	r2,zero,80998 <Read_File_Record_At_Offset+0x98>
		{
			record->extension[counter] = *((volatile char *)SD_CARD_BUFFER(SD_CARD_0_BASE, offset+counter+8));
		}        
		record->attributes          =   *((volatile char *)SD_CARD_BUFFER(SD_CARD_0_BASE, offset+11));
   809dc:	e0bffc17 	ldw	r2,-16(fp)
   809e0:	108002c4 	addi	r2,r2,11
   809e4:	10800003 	ldbu	r2,0(r2)
   809e8:	1007883a 	mov	r3,r2
   809ec:	e0bffd17 	ldw	r2,-12(fp)
   809f0:	10c002c5 	stb	r3,11(r2)
		/* Ignore reserved bytes at locations 12 and 13. */
		record->create_time         =   *((volatile unsigned short int *)SD_CARD_BUFFER(SD_CARD_0_BASE, offset+14));
   809f4:	e0bffc17 	ldw	r2,-16(fp)
   809f8:	10800384 	addi	r2,r2,14
   809fc:	10c0000b 	ldhu	r3,0(r2)
   80a00:	e0bffd17 	ldw	r2,-12(fp)
   80a04:	10c0030d 	sth	r3,12(r2)
		record->create_date         =   *((volatile unsigned short int *)SD_CARD_BUFFER(SD_CARD_0_BASE, offset+16));
   80a08:	e0bffc17 	ldw	r2,-16(fp)
   80a0c:	10800404 	addi	r2,r2,16
   80a10:	10c0000b 	ldhu	r3,0(r2)
   80a14:	e0bffd17 	ldw	r2,-12(fp)
   80a18:	10c0038d 	sth	r3,14(r2)
		record->last_access_date    =   *((volatile unsigned short int *)SD_CARD_BUFFER(SD_CARD_0_BASE, offset+18));
   80a1c:	e0bffc17 	ldw	r2,-16(fp)
   80a20:	10800484 	addi	r2,r2,18
   80a24:	10c0000b 	ldhu	r3,0(r2)
   80a28:	e0bffd17 	ldw	r2,-12(fp)
   80a2c:	10c0040d 	sth	r3,16(r2)
		/* Ignore reserved bytes at locations 20 and 21. */
		record->last_modified_time  =	*((volatile unsigned short int *)SD_CARD_BUFFER(SD_CARD_0_BASE, offset+22));
   80a30:	e0bffc17 	ldw	r2,-16(fp)
   80a34:	10800584 	addi	r2,r2,22
   80a38:	10c0000b 	ldhu	r3,0(r2)
   80a3c:	e0bffd17 	ldw	r2,-12(fp)
   80a40:	10c0048d 	sth	r3,18(r2)
		record->last_modified_date  =	*((volatile unsigned short int *)SD_CARD_BUFFER(SD_CARD_0_BASE, offset+24));
   80a44:	e0bffc17 	ldw	r2,-16(fp)
   80a48:	10800604 	addi	r2,r2,24
   80a4c:	10c0000b 	ldhu	r3,0(r2)
   80a50:	e0bffd17 	ldw	r2,-12(fp)
   80a54:	10c0050d 	sth	r3,20(r2)
		record->start_cluster_index =	*((volatile unsigned short int *)SD_CARD_BUFFER(SD_CARD_0_BASE, offset+26));
   80a58:	e0bffc17 	ldw	r2,-16(fp)
   80a5c:	10800684 	addi	r2,r2,26
   80a60:	10c0000b 	ldhu	r3,0(r2)
   80a64:	e0bffd17 	ldw	r2,-12(fp)
   80a68:	10c0058d 	sth	r3,22(r2)
		record->file_size_in_bytes  =	*((volatile unsigned int *)SD_CARD_BUFFER(SD_CARD_0_BASE, offset+28));
   80a6c:	e0bffc17 	ldw	r2,-16(fp)
   80a70:	10800704 	addi	r2,r2,28
   80a74:	10c00017 	ldw	r3,0(r2)
   80a78:	e0bffd17 	ldw	r2,-12(fp)
   80a7c:	10c00615 	stw	r3,24(r2)
		record->file_record_cluster = cluster_index;
   80a80:	e0fffd17 	ldw	r3,-12(fp)
   80a84:	e0bffe17 	ldw	r2,-8(fp)
   80a88:	18800a15 	stw	r2,40(r3)
		record->file_record_sector_in_cluster = sector_in_cluster;
   80a8c:	e0fffd17 	ldw	r3,-12(fp)
   80a90:	e0bfff17 	ldw	r2,-4(fp)
   80a94:	18800b15 	stw	r2,44(r3)
		record->file_record_offset = offset;
   80a98:	e0bffc17 	ldw	r2,-16(fp)
   80a9c:	1007883a 	mov	r3,r2
   80aa0:	e0bffd17 	ldw	r2,-12(fp)
   80aa4:	10c00c0d 	sth	r3,48(r2)
		result = true;
   80aa8:	00800044 	movi	r2,1
   80aac:	e0bffb15 	stw	r2,-20(fp)
	}
	return result;
   80ab0:	e0bffb17 	ldw	r2,-20(fp)
}
   80ab4:	e037883a 	mov	sp,fp
   80ab8:	dfc00117 	ldw	ra,4(sp)
   80abc:	df000017 	ldw	fp,0(sp)
   80ac0:	dec00204 	addi	sp,sp,8
   80ac4:	f800283a 	ret

00080ac8 <Write_File_Record_At_Offset>:


bool Write_File_Record_At_Offset(int offset, t_file_record *record)
// This function writes a file record at a given offset. The offset is given in bytes.
{
   80ac8:	defff904 	addi	sp,sp,-28
   80acc:	dfc00615 	stw	ra,24(sp)
   80ad0:	df000515 	stw	fp,20(sp)
   80ad4:	df000504 	addi	fp,sp,20
   80ad8:	e13ffe15 	stw	r4,-8(fp)
   80adc:	e17fff15 	stw	r5,-4(fp)
    bool result = false;
   80ae0:	e03ffd15 	stw	zero,-12(fp)
    if (((offset & 0x01f) == 0) && (sd_card_is_Present()) && (is_sd_card_formated_as_FAT16))
   80ae4:	e0bffe17 	ldw	r2,-8(fp)
   80ae8:	108007cc 	andi	r2,r2,31
   80aec:	1004c03a 	cmpne	r2,r2,zero
   80af0:	10006d1e 	bne	r2,zero,80ca8 <Write_File_Record_At_Offset+0x1e0>
   80af4:	0082ef80 	call	82ef8 <sd_card_is_Present>
   80af8:	1005003a 	cmpeq	r2,r2,zero
   80afc:	10006a1e 	bne	r2,zero,80ca8 <Write_File_Record_At_Offset+0x1e0>
   80b00:	d0a70117 	ldw	r2,-25596(gp)
   80b04:	1005003a 	cmpeq	r2,r2,zero
   80b08:	1000671e 	bne	r2,zero,80ca8 <Write_File_Record_At_Offset+0x1e0>
    {
        int counter;

        for (counter = 0; counter < 8; counter=counter+2)
   80b0c:	e03ffc15 	stw	zero,-16(fp)
   80b10:	00001b06 	br	80b80 <Write_File_Record_At_Offset+0xb8>
        {
            short int two_chars = (short int) record->name[counter+1];
   80b14:	e0bffc17 	ldw	r2,-16(fp)
   80b18:	10c00044 	addi	r3,r2,1
   80b1c:	e0bfff17 	ldw	r2,-4(fp)
   80b20:	10c5883a 	add	r2,r2,r3
   80b24:	10800003 	ldbu	r2,0(r2)
   80b28:	10803fcc 	andi	r2,r2,255
   80b2c:	e0bffb0d 	sth	r2,-20(fp)
            two_chars = two_chars << 8;
   80b30:	e0bffb0f 	ldh	r2,-20(fp)
   80b34:	1004923a 	slli	r2,r2,8
   80b38:	e0bffb0d 	sth	r2,-20(fp)
            two_chars = two_chars | record->name[counter];
   80b3c:	e0fffc17 	ldw	r3,-16(fp)
   80b40:	e0bfff17 	ldw	r2,-4(fp)
   80b44:	10c5883a 	add	r2,r2,r3
   80b48:	10800003 	ldbu	r2,0(r2)
   80b4c:	10c03fcc 	andi	r3,r2,255
   80b50:	e0bffb0b 	ldhu	r2,-20(fp)
   80b54:	10c4b03a 	or	r2,r2,r3
   80b58:	e0bffb0d 	sth	r2,-20(fp)
            *((volatile unsigned short int *)SD_CARD_BUFFER(SD_CARD_0_BASE, offset+counter)) = two_chars;
   80b5c:	e0fffe17 	ldw	r3,-8(fp)
   80b60:	e0bffc17 	ldw	r2,-16(fp)
   80b64:	1885883a 	add	r2,r3,r2
   80b68:	1007883a 	mov	r3,r2
   80b6c:	e0bffb0b 	ldhu	r2,-20(fp)
   80b70:	1880000d 	sth	r2,0(r3)
    bool result = false;
    if (((offset & 0x01f) == 0) && (sd_card_is_Present()) && (is_sd_card_formated_as_FAT16))
    {
        int counter;

        for (counter = 0; counter < 8; counter=counter+2)
   80b74:	e0bffc17 	ldw	r2,-16(fp)
   80b78:	10800084 	addi	r2,r2,2
   80b7c:	e0bffc15 	stw	r2,-16(fp)
   80b80:	e0bffc17 	ldw	r2,-16(fp)
   80b84:	10800210 	cmplti	r2,r2,8
   80b88:	103fe21e 	bne	r2,zero,80b14 <Write_File_Record_At_Offset+0x4c>
            short int two_chars = (short int) record->name[counter+1];
            two_chars = two_chars << 8;
            two_chars = two_chars | record->name[counter];
            *((volatile unsigned short int *)SD_CARD_BUFFER(SD_CARD_0_BASE, offset+counter)) = two_chars;
        }        
        for (counter = 0; counter < 3; counter++)
   80b8c:	e03ffc15 	stw	zero,-16(fp)
   80b90:	00000e06 	br	80bcc <Write_File_Record_At_Offset+0x104>
        {
            *((volatile char *)SD_CARD_BUFFER(SD_CARD_0_BASE, offset+counter+8)) = record->extension[counter];
   80b94:	e0fffe17 	ldw	r3,-8(fp)
   80b98:	e0bffc17 	ldw	r2,-16(fp)
   80b9c:	1885883a 	add	r2,r3,r2
   80ba0:	10800204 	addi	r2,r2,8
   80ba4:	1009883a 	mov	r4,r2
   80ba8:	e0fffc17 	ldw	r3,-16(fp)
   80bac:	e0bfff17 	ldw	r2,-4(fp)
   80bb0:	1885883a 	add	r2,r3,r2
   80bb4:	10800204 	addi	r2,r2,8
   80bb8:	10800003 	ldbu	r2,0(r2)
   80bbc:	20800005 	stb	r2,0(r4)
            short int two_chars = (short int) record->name[counter+1];
            two_chars = two_chars << 8;
            two_chars = two_chars | record->name[counter];
            *((volatile unsigned short int *)SD_CARD_BUFFER(SD_CARD_0_BASE, offset+counter)) = two_chars;
        }        
        for (counter = 0; counter < 3; counter++)
   80bc0:	e0bffc17 	ldw	r2,-16(fp)
   80bc4:	10800044 	addi	r2,r2,1
   80bc8:	e0bffc15 	stw	r2,-16(fp)
   80bcc:	e0bffc17 	ldw	r2,-16(fp)
   80bd0:	108000d0 	cmplti	r2,r2,3
   80bd4:	103fef1e 	bne	r2,zero,80b94 <Write_File_Record_At_Offset+0xcc>
        {
            *((volatile char *)SD_CARD_BUFFER(SD_CARD_0_BASE, offset+counter+8)) = record->extension[counter];
        }        
        *((volatile char *)SD_CARD_BUFFER(SD_CARD_0_BASE, offset+11))  =   record->attributes;
   80bd8:	e0bffe17 	ldw	r2,-8(fp)
   80bdc:	108002c4 	addi	r2,r2,11
   80be0:	1007883a 	mov	r3,r2
   80be4:	e0bfff17 	ldw	r2,-4(fp)
   80be8:	108002c3 	ldbu	r2,11(r2)
   80bec:	18800005 	stb	r2,0(r3)
        /* Ignore reserved bytes at locations 12 and 13. */
        *((volatile unsigned short int *)SD_CARD_BUFFER(SD_CARD_0_BASE, offset+14)) = record->create_time;
   80bf0:	e0bffe17 	ldw	r2,-8(fp)
   80bf4:	10800384 	addi	r2,r2,14
   80bf8:	1007883a 	mov	r3,r2
   80bfc:	e0bfff17 	ldw	r2,-4(fp)
   80c00:	1080030b 	ldhu	r2,12(r2)
   80c04:	1880000d 	sth	r2,0(r3)
        *((volatile unsigned short int *)SD_CARD_BUFFER(SD_CARD_0_BASE, offset+16)) = record->create_date;
   80c08:	e0bffe17 	ldw	r2,-8(fp)
   80c0c:	10800404 	addi	r2,r2,16
   80c10:	1007883a 	mov	r3,r2
   80c14:	e0bfff17 	ldw	r2,-4(fp)
   80c18:	1080038b 	ldhu	r2,14(r2)
   80c1c:	1880000d 	sth	r2,0(r3)
        *((volatile unsigned short int *)SD_CARD_BUFFER(SD_CARD_0_BASE, offset+18)) = record->last_access_date;
   80c20:	e0bffe17 	ldw	r2,-8(fp)
   80c24:	10800484 	addi	r2,r2,18
   80c28:	1007883a 	mov	r3,r2
   80c2c:	e0bfff17 	ldw	r2,-4(fp)
   80c30:	1080040b 	ldhu	r2,16(r2)
   80c34:	1880000d 	sth	r2,0(r3)
        /* Ignore reserved bytes at locations 20 and 21. */
        *((volatile unsigned short int *)SD_CARD_BUFFER(SD_CARD_0_BASE, offset+22)) = record->last_modified_time;
   80c38:	e0bffe17 	ldw	r2,-8(fp)
   80c3c:	10800584 	addi	r2,r2,22
   80c40:	1007883a 	mov	r3,r2
   80c44:	e0bfff17 	ldw	r2,-4(fp)
   80c48:	1080048b 	ldhu	r2,18(r2)
   80c4c:	1880000d 	sth	r2,0(r3)
        *((volatile unsigned short int *)SD_CARD_BUFFER(SD_CARD_0_BASE, offset+24)) = record->last_modified_date;
   80c50:	e0bffe17 	ldw	r2,-8(fp)
   80c54:	10800604 	addi	r2,r2,24
   80c58:	1007883a 	mov	r3,r2
   80c5c:	e0bfff17 	ldw	r2,-4(fp)
   80c60:	1080050b 	ldhu	r2,20(r2)
   80c64:	1880000d 	sth	r2,0(r3)
        *((volatile unsigned short int *)SD_CARD_BUFFER(SD_CARD_0_BASE, offset+26)) = record->start_cluster_index;
   80c68:	e0bffe17 	ldw	r2,-8(fp)
   80c6c:	10800684 	addi	r2,r2,26
   80c70:	1007883a 	mov	r3,r2
   80c74:	e0bfff17 	ldw	r2,-4(fp)
   80c78:	1080058b 	ldhu	r2,22(r2)
   80c7c:	1880000d 	sth	r2,0(r3)
        *((volatile unsigned int *)SD_CARD_BUFFER(SD_CARD_0_BASE, offset+28)) = record->file_size_in_bytes;
   80c80:	e0bffe17 	ldw	r2,-8(fp)
   80c84:	10800704 	addi	r2,r2,28
   80c88:	1007883a 	mov	r3,r2
   80c8c:	e0bfff17 	ldw	r2,-4(fp)
   80c90:	10800617 	ldw	r2,24(r2)
   80c94:	18800015 	stw	r2,0(r3)
        current_sector_modified = true;                  
   80c98:	00800044 	movi	r2,1
   80c9c:	d0a70915 	stw	r2,-25564(gp)
        result = true;
   80ca0:	00800044 	movi	r2,1
   80ca4:	e0bffd15 	stw	r2,-12(fp)
    }
    return result;
   80ca8:	e0bffd17 	ldw	r2,-12(fp)
}
   80cac:	e037883a 	mov	sp,fp
   80cb0:	dfc00117 	ldw	ra,4(sp)
   80cb4:	df000017 	ldw	fp,0(sp)
   80cb8:	dec00204 	addi	sp,sp,8
   80cbc:	f800283a 	ret

00080cc0 <Check_for_DOS_FAT>:
// This function reads the boot sector for the FAT file system on the SD Card.
// The offset_address should point to the sector on the card where the boot sector is located.
// The sector number is specified either in the master Boot Record, or is 0 by default for a purely FAT
// based file system. If the specified sector contains a FAT boot sector, then this function prints the
// relevant information and returns 1. Otherwise, it returns 0. 
{
   80cc0:	defff904 	addi	sp,sp,-28
   80cc4:	dfc00615 	stw	ra,24(sp)
   80cc8:	df000515 	stw	fp,20(sp)
   80ccc:	dc000415 	stw	r16,16(sp)
   80cd0:	df000404 	addi	fp,sp,16
   80cd4:	e13fff15 	stw	r4,-4(fp)
	bool result = false;
   80cd8:	e03ffe15 	stw	zero,-8(fp)
	int counter = 0;
   80cdc:	e03ffd15 	stw	zero,-12(fp)
	short int end;

	result = Read_Sector_Data(0, FAT_partition_start_sector);
   80ce0:	0009883a 	mov	r4,zero
   80ce4:	e17fff17 	ldw	r5,-4(fp)
   80ce8:	008053c0 	call	8053c <Read_Sector_Data>
   80cec:	e0bffe15 	stw	r2,-8(fp)
	end =  (*((volatile short int *)SD_CARD_BUFFER(SD_CARD_0_BASE, 0x1fe)));
   80cf0:	00807f84 	movi	r2,510
   80cf4:	1080000b 	ldhu	r2,0(r2)
   80cf8:	e0bffc0d 	sth	r2,-16(fp)
	if (((end & 0xffff) == 0xaa55) && (result))
   80cfc:	e0bffc0f 	ldh	r2,-16(fp)
   80d00:	10ffffcc 	andi	r3,r2,65535
   80d04:	00aa9554 	movui	r2,43605
   80d08:	18813a1e 	bne	r3,r2,811f4 <Check_for_DOS_FAT+0x534>
   80d0c:	e0bffe17 	ldw	r2,-8(fp)
   80d10:	1005003a 	cmpeq	r2,r2,zero
   80d14:	1001371e 	bne	r2,zero,811f4 <Check_for_DOS_FAT+0x534>
	{        
		boot_sector_data.jump_instruction[0] = *((volatile char *)SD_CARD_BUFFER(SD_CARD_0_BASE, 0));
   80d18:	0005883a 	mov	r2,zero
   80d1c:	10800003 	ldbu	r2,0(r2)
   80d20:	1007883a 	mov	r3,r2
   80d24:	008002b4 	movhi	r2,10
   80d28:	108e6a04 	addi	r2,r2,14760
   80d2c:	10c00005 	stb	r3,0(r2)
		boot_sector_data.jump_instruction[1] = *((volatile char *)SD_CARD_BUFFER(SD_CARD_0_BASE, 1));
   80d30:	00800044 	movi	r2,1
   80d34:	10800003 	ldbu	r2,0(r2)
   80d38:	1007883a 	mov	r3,r2
   80d3c:	008002b4 	movhi	r2,10
   80d40:	108e6a04 	addi	r2,r2,14760
   80d44:	10c00045 	stb	r3,1(r2)
		boot_sector_data.jump_instruction[2] = *((volatile char *)SD_CARD_BUFFER(SD_CARD_0_BASE, 2));
   80d48:	00800084 	movi	r2,2
   80d4c:	10800003 	ldbu	r2,0(r2)
   80d50:	1007883a 	mov	r3,r2
   80d54:	008002b4 	movhi	r2,10
   80d58:	108e6a04 	addi	r2,r2,14760
   80d5c:	10c00085 	stb	r3,2(r2)
		for (counter = 0; counter < 8; counter++)
   80d60:	e03ffd15 	stw	zero,-12(fp)
   80d64:	00000b06 	br	80d94 <Check_for_DOS_FAT+0xd4>
		{
			boot_sector_data.OEM_name[counter] = *((volatile char *)SD_CARD_BUFFER(SD_CARD_0_BASE, 3+counter));
   80d68:	e13ffd17 	ldw	r4,-12(fp)
   80d6c:	e0bffd17 	ldw	r2,-12(fp)
   80d70:	108000c4 	addi	r2,r2,3
   80d74:	10c00003 	ldbu	r3,0(r2)
   80d78:	008002b4 	movhi	r2,10
   80d7c:	108e6a04 	addi	r2,r2,14760
   80d80:	1105883a 	add	r2,r2,r4
   80d84:	10c000c5 	stb	r3,3(r2)
	if (((end & 0xffff) == 0xaa55) && (result))
	{        
		boot_sector_data.jump_instruction[0] = *((volatile char *)SD_CARD_BUFFER(SD_CARD_0_BASE, 0));
		boot_sector_data.jump_instruction[1] = *((volatile char *)SD_CARD_BUFFER(SD_CARD_0_BASE, 1));
		boot_sector_data.jump_instruction[2] = *((volatile char *)SD_CARD_BUFFER(SD_CARD_0_BASE, 2));
		for (counter = 0; counter < 8; counter++)
   80d88:	e0bffd17 	ldw	r2,-12(fp)
   80d8c:	10800044 	addi	r2,r2,1
   80d90:	e0bffd15 	stw	r2,-12(fp)
   80d94:	e0bffd17 	ldw	r2,-12(fp)
   80d98:	10800210 	cmplti	r2,r2,8
   80d9c:	103ff21e 	bne	r2,zero,80d68 <Check_for_DOS_FAT+0xa8>
		{
			boot_sector_data.OEM_name[counter] = *((volatile char *)SD_CARD_BUFFER(SD_CARD_0_BASE, 3+counter));
		}
		boot_sector_data.sector_size_in_bytes = (*((volatile unsigned char *)SD_CARD_BUFFER(SD_CARD_0_BASE, 12)) << 8 ) | (*((char *)SD_CARD_BUFFER(SD_CARD_0_BASE, 11)));
   80da0:	00800304 	movi	r2,12
   80da4:	10800003 	ldbu	r2,0(r2)
   80da8:	10803fcc 	andi	r2,r2,255
   80dac:	1004923a 	slli	r2,r2,8
   80db0:	1007883a 	mov	r3,r2
   80db4:	008002c4 	movi	r2,11
   80db8:	10800003 	ldbu	r2,0(r2)
   80dbc:	10803fcc 	andi	r2,r2,255
   80dc0:	1080201c 	xori	r2,r2,128
   80dc4:	10bfe004 	addi	r2,r2,-128
   80dc8:	1884b03a 	or	r2,r3,r2
   80dcc:	1007883a 	mov	r3,r2
   80dd0:	008002b4 	movhi	r2,10
   80dd4:	108e6a04 	addi	r2,r2,14760
   80dd8:	10c0030d 	sth	r3,12(r2)
		boot_sector_data.sectors_per_cluster = *((volatile unsigned char *)SD_CARD_BUFFER(SD_CARD_0_BASE, 13));
   80ddc:	00800344 	movi	r2,13
   80de0:	10c00003 	ldbu	r3,0(r2)
   80de4:	008002b4 	movhi	r2,10
   80de8:	108e6a04 	addi	r2,r2,14760
   80dec:	10c00385 	stb	r3,14(r2)
		boot_sector_data.reserved_sectors = *((volatile unsigned short int *)SD_CARD_BUFFER(SD_CARD_0_BASE, 14));
   80df0:	00800384 	movi	r2,14
   80df4:	10c0000b 	ldhu	r3,0(r2)
   80df8:	008002b4 	movhi	r2,10
   80dfc:	108e6a04 	addi	r2,r2,14760
   80e00:	10c0040d 	sth	r3,16(r2)
		boot_sector_data.number_of_FATs = *((volatile unsigned char *)SD_CARD_BUFFER(SD_CARD_0_BASE, 16));
   80e04:	00800404 	movi	r2,16
   80e08:	10c00003 	ldbu	r3,0(r2)
   80e0c:	008002b4 	movhi	r2,10
   80e10:	108e6a04 	addi	r2,r2,14760
   80e14:	10c00485 	stb	r3,18(r2)
		boot_sector_data.max_number_of_dir_entires = (((unsigned short int)(*((volatile unsigned char *)SD_CARD_BUFFER(SD_CARD_0_BASE, 18)))) << 8 ) | (*((unsigned char *)SD_CARD_BUFFER(SD_CARD_0_BASE, 17)));
   80e18:	00800484 	movi	r2,18
   80e1c:	10800003 	ldbu	r2,0(r2)
   80e20:	10803fcc 	andi	r2,r2,255
   80e24:	1004923a 	slli	r2,r2,8
   80e28:	1007883a 	mov	r3,r2
   80e2c:	00800444 	movi	r2,17
   80e30:	10800003 	ldbu	r2,0(r2)
   80e34:	10803fcc 	andi	r2,r2,255
   80e38:	1884b03a 	or	r2,r3,r2
   80e3c:	1007883a 	mov	r3,r2
   80e40:	008002b4 	movhi	r2,10
   80e44:	108e6a04 	addi	r2,r2,14760
   80e48:	10c0050d 	sth	r3,20(r2)
		boot_sector_data.number_of_sectors_in_partition = ((*((volatile unsigned char *)SD_CARD_BUFFER(SD_CARD_0_BASE, 20))) << 8) | (*((unsigned char *)SD_CARD_BUFFER(SD_CARD_0_BASE, 19)));
   80e4c:	00800504 	movi	r2,20
   80e50:	10800003 	ldbu	r2,0(r2)
   80e54:	10803fcc 	andi	r2,r2,255
   80e58:	1004923a 	slli	r2,r2,8
   80e5c:	1007883a 	mov	r3,r2
   80e60:	008004c4 	movi	r2,19
   80e64:	10800003 	ldbu	r2,0(r2)
   80e68:	10803fcc 	andi	r2,r2,255
   80e6c:	1884b03a 	or	r2,r3,r2
   80e70:	1007883a 	mov	r3,r2
   80e74:	008002b4 	movhi	r2,10
   80e78:	108e6a04 	addi	r2,r2,14760
   80e7c:	10c0058d 	sth	r3,22(r2)
		boot_sector_data.media_descriptor = *((volatile unsigned char *)SD_CARD_BUFFER(SD_CARD_0_BASE, 21));
   80e80:	00800544 	movi	r2,21
   80e84:	10c00003 	ldbu	r3,0(r2)
   80e88:	008002b4 	movhi	r2,10
   80e8c:	108e6a04 	addi	r2,r2,14760
   80e90:	10c00605 	stb	r3,24(r2)
		boot_sector_data.number_of_sectors_per_table = *((volatile unsigned short int *)SD_CARD_BUFFER(SD_CARD_0_BASE, 22));
   80e94:	00800584 	movi	r2,22
   80e98:	10c0000b 	ldhu	r3,0(r2)
   80e9c:	008002b4 	movhi	r2,10
   80ea0:	108e6a04 	addi	r2,r2,14760
   80ea4:	10c0068d 	sth	r3,26(r2)
		boot_sector_data.number_of_sectors_per_track = *((volatile unsigned short int *)SD_CARD_BUFFER(SD_CARD_0_BASE, 24));
   80ea8:	00800604 	movi	r2,24
   80eac:	10c0000b 	ldhu	r3,0(r2)
   80eb0:	008002b4 	movhi	r2,10
   80eb4:	108e6a04 	addi	r2,r2,14760
   80eb8:	10c0070d 	sth	r3,28(r2)
		boot_sector_data.number_of_heads = *((volatile unsigned short int *)SD_CARD_BUFFER(SD_CARD_0_BASE, 26));
   80ebc:	00800684 	movi	r2,26
   80ec0:	10c0000b 	ldhu	r3,0(r2)
   80ec4:	008002b4 	movhi	r2,10
   80ec8:	108e6a04 	addi	r2,r2,14760
   80ecc:	10c0078d 	sth	r3,30(r2)
		boot_sector_data.number_of_hidden_sectors = *((volatile unsigned int *)SD_CARD_BUFFER(SD_CARD_0_BASE, 28));
   80ed0:	00800704 	movi	r2,28
   80ed4:	10c00017 	ldw	r3,0(r2)
   80ed8:	008002b4 	movhi	r2,10
   80edc:	108e6a04 	addi	r2,r2,14760
   80ee0:	10c00815 	stw	r3,32(r2)
		boot_sector_data.total_sector_count_if_above_32MB = *((volatile unsigned int *)SD_CARD_BUFFER(SD_CARD_0_BASE, 32));
   80ee4:	00800804 	movi	r2,32
   80ee8:	10c00017 	ldw	r3,0(r2)
   80eec:	008002b4 	movhi	r2,10
   80ef0:	108e6a04 	addi	r2,r2,14760
   80ef4:	10c00915 	stw	r3,36(r2)
		boot_sector_data.drive_number = *((volatile unsigned char *)SD_CARD_BUFFER(SD_CARD_0_BASE, 36));
   80ef8:	00800904 	movi	r2,36
   80efc:	10c00003 	ldbu	r3,0(r2)
   80f00:	008002b4 	movhi	r2,10
   80f04:	108e6a04 	addi	r2,r2,14760
   80f08:	10c00a05 	stb	r3,40(r2)
		boot_sector_data.current_head = *((volatile unsigned char *)SD_CARD_BUFFER(SD_CARD_0_BASE, 37));
   80f0c:	00800944 	movi	r2,37
   80f10:	10c00003 	ldbu	r3,0(r2)
   80f14:	008002b4 	movhi	r2,10
   80f18:	108e6a04 	addi	r2,r2,14760
   80f1c:	10c00a45 	stb	r3,41(r2)
		boot_sector_data.boot_signature = *((volatile unsigned char *)SD_CARD_BUFFER(SD_CARD_0_BASE, 38));
   80f20:	00800984 	movi	r2,38
   80f24:	10c00003 	ldbu	r3,0(r2)
   80f28:	008002b4 	movhi	r2,10
   80f2c:	108e6a04 	addi	r2,r2,14760
   80f30:	10c00a85 	stb	r3,42(r2)
		boot_sector_data.first_fat_sector_offset = boot_sector_data.reserved_sectors;
   80f34:	008002b4 	movhi	r2,10
   80f38:	108e6a04 	addi	r2,r2,14760
   80f3c:	1080040b 	ldhu	r2,16(r2)
   80f40:	10ffffcc 	andi	r3,r2,65535
   80f44:	008002b4 	movhi	r2,10
   80f48:	108e6a04 	addi	r2,r2,14760
   80f4c:	10c01115 	stw	r3,68(r2)
		boot_sector_data.second_fat_sector_offset = boot_sector_data.first_fat_sector_offset + boot_sector_data.number_of_sectors_per_table;
   80f50:	008002b4 	movhi	r2,10
   80f54:	108e6a04 	addi	r2,r2,14760
   80f58:	10c01117 	ldw	r3,68(r2)
   80f5c:	008002b4 	movhi	r2,10
   80f60:	108e6a04 	addi	r2,r2,14760
   80f64:	1080068b 	ldhu	r2,26(r2)
   80f68:	10bfffcc 	andi	r2,r2,65535
   80f6c:	1887883a 	add	r3,r3,r2
   80f70:	008002b4 	movhi	r2,10
   80f74:	108e6a04 	addi	r2,r2,14760
   80f78:	10c01215 	stw	r3,72(r2)
		boot_sector_data.root_directory_sector_offset = boot_sector_data.second_fat_sector_offset + boot_sector_data.number_of_sectors_per_table; 
   80f7c:	008002b4 	movhi	r2,10
   80f80:	108e6a04 	addi	r2,r2,14760
   80f84:	10c01217 	ldw	r3,72(r2)
   80f88:	008002b4 	movhi	r2,10
   80f8c:	108e6a04 	addi	r2,r2,14760
   80f90:	1080068b 	ldhu	r2,26(r2)
   80f94:	10bfffcc 	andi	r2,r2,65535
   80f98:	1887883a 	add	r3,r3,r2
   80f9c:	008002b4 	movhi	r2,10
   80fa0:	108e6a04 	addi	r2,r2,14760
   80fa4:	10c01315 	stw	r3,76(r2)
		boot_sector_data.data_sector_offset = boot_sector_data.root_directory_sector_offset + (32*boot_sector_data.max_number_of_dir_entires / boot_sector_data.sector_size_in_bytes);    
   80fa8:	008002b4 	movhi	r2,10
   80fac:	108e6a04 	addi	r2,r2,14760
   80fb0:	14001317 	ldw	r16,76(r2)
   80fb4:	008002b4 	movhi	r2,10
   80fb8:	108e6a04 	addi	r2,r2,14760
   80fbc:	1080050b 	ldhu	r2,20(r2)
   80fc0:	10bfffcc 	andi	r2,r2,65535
   80fc4:	1008917a 	slli	r4,r2,5
   80fc8:	008002b4 	movhi	r2,10
   80fcc:	108e6a04 	addi	r2,r2,14760
   80fd0:	1080030b 	ldhu	r2,12(r2)
   80fd4:	117fffcc 	andi	r5,r2,65535
   80fd8:	00877140 	call	87714 <__divsi3>
   80fdc:	8087883a 	add	r3,r16,r2
   80fe0:	008002b4 	movhi	r2,10
   80fe4:	108e6a04 	addi	r2,r2,14760
   80fe8:	10c01415 	stw	r3,80(r2)
		// printf("haha: %d\n", boot_sector_data.first_fat_sector_offset);
		// printf("haha: %d\n", boot_sector_data.second_fat_sector_offset);
		// printf("haha: %d\n", boot_sector_data.root_directory_sector_offset);
		// printf("haha: %d\n", boot_sector_data.data_sector_offset);
		
		if (boot_sector_data.number_of_sectors_in_partition != 0) {
   80fec:	008002b4 	movhi	r2,10
   80ff0:	108e6a04 	addi	r2,r2,14760
   80ff4:	1080058b 	ldhu	r2,22(r2)
   80ff8:	10bfffcc 	andi	r2,r2,65535
   80ffc:	1005003a 	cmpeq	r2,r2,zero
   81000:	10001b1e 	bne	r2,zero,81070 <Check_for_DOS_FAT+0x3b0>
			if ((boot_sector_data.number_of_sectors_in_partition / boot_sector_data.sectors_per_cluster) < 4085)
   81004:	008002b4 	movhi	r2,10
   81008:	108e6a04 	addi	r2,r2,14760
   8100c:	1080058b 	ldhu	r2,22(r2)
   81010:	113fffcc 	andi	r4,r2,65535
   81014:	008002b4 	movhi	r2,10
   81018:	108e6a04 	addi	r2,r2,14760
   8101c:	10800383 	ldbu	r2,14(r2)
   81020:	11403fcc 	andi	r5,r2,255
   81024:	00877140 	call	87714 <__divsi3>
   81028:	1083fd48 	cmpgei	r2,r2,4085
   8102c:	1000081e 	bne	r2,zero,81050 <Check_for_DOS_FAT+0x390>
			{
				printf("FAT12 found\n");
   81030:	010002b4 	movhi	r4,10
   81034:	213d9204 	addi	r4,r4,-2488
   81038:	0087aa40 	call	87aa4 <puts>
				boot_sector_data.bits_for_cluster_index = 12;
   8103c:	00c002b4 	movhi	r3,10
   81040:	18ce6a04 	addi	r3,r3,14760
   81044:	00800304 	movi	r2,12
   81048:	18801085 	stb	r2,66(r3)
   8104c:	00002206 	br	810d8 <Check_for_DOS_FAT+0x418>
			} else {
				printf("FAT16 found\n");
   81050:	010002b4 	movhi	r4,10
   81054:	213d9504 	addi	r4,r4,-2476
   81058:	0087aa40 	call	87aa4 <puts>
				boot_sector_data.bits_for_cluster_index = 16;
   8105c:	00c002b4 	movhi	r3,10
   81060:	18ce6a04 	addi	r3,r3,14760
   81064:	00800404 	movi	r2,16
   81068:	18801085 	stb	r2,66(r3)
   8106c:	00001a06 	br	810d8 <Check_for_DOS_FAT+0x418>
			}
		} else {
			if ((boot_sector_data.total_sector_count_if_above_32MB / boot_sector_data.sectors_per_cluster) >= 65525)
   81070:	008002b4 	movhi	r2,10
   81074:	108e6a04 	addi	r2,r2,14760
   81078:	11000917 	ldw	r4,36(r2)
   8107c:	008002b4 	movhi	r2,10
   81080:	108e6a04 	addi	r2,r2,14760
   81084:	10800383 	ldbu	r2,14(r2)
   81088:	11403fcc 	andi	r5,r2,255
   8108c:	00877d40 	call	877d4 <__udivsi3>
   81090:	1007883a 	mov	r3,r2
   81094:	00bffd14 	movui	r2,65524
   81098:	10c0082e 	bgeu	r2,r3,810bc <Check_for_DOS_FAT+0x3fc>
			{
				printf("FAT32 found\n");
   8109c:	010002b4 	movhi	r4,10
   810a0:	213d9804 	addi	r4,r4,-2464
   810a4:	0087aa40 	call	87aa4 <puts>
				boot_sector_data.bits_for_cluster_index = 32;
   810a8:	00c002b4 	movhi	r3,10
   810ac:	18ce6a04 	addi	r3,r3,14760
   810b0:	00800804 	movi	r2,32
   810b4:	18801085 	stb	r2,66(r3)
   810b8:	00000706 	br	810d8 <Check_for_DOS_FAT+0x418>
			} else {
				printf("FAT16 found\n");
   810bc:	010002b4 	movhi	r4,10
   810c0:	213d9504 	addi	r4,r4,-2476
   810c4:	0087aa40 	call	87aa4 <puts>
				boot_sector_data.bits_for_cluster_index = 16;
   810c8:	00c002b4 	movhi	r3,10
   810cc:	18ce6a04 	addi	r3,r3,14760
   810d0:	00800404 	movi	r2,16
   810d4:	18801085 	stb	r2,66(r3)
			}			
		}
	    
		for (counter = 0; counter < 4; counter++)
   810d8:	e03ffd15 	stw	zero,-12(fp)
   810dc:	00000d06 	br	81114 <Check_for_DOS_FAT+0x454>
		{
			boot_sector_data.volume_id[counter] = *((volatile char *)SD_CARD_BUFFER(SD_CARD_0_BASE, 39+counter));
   810e0:	e13ffd17 	ldw	r4,-12(fp)
   810e4:	e0bffd17 	ldw	r2,-12(fp)
   810e8:	108009c4 	addi	r2,r2,39
   810ec:	10800003 	ldbu	r2,0(r2)
   810f0:	1007883a 	mov	r3,r2
   810f4:	008002b4 	movhi	r2,10
   810f8:	108e6a04 	addi	r2,r2,14760
   810fc:	2085883a 	add	r2,r4,r2
   81100:	10800a04 	addi	r2,r2,40
   81104:	10c000c5 	stb	r3,3(r2)
				printf("FAT16 found\n");
				boot_sector_data.bits_for_cluster_index = 16;
			}			
		}
	    
		for (counter = 0; counter < 4; counter++)
   81108:	e0bffd17 	ldw	r2,-12(fp)
   8110c:	10800044 	addi	r2,r2,1
   81110:	e0bffd15 	stw	r2,-12(fp)
   81114:	e0bffd17 	ldw	r2,-12(fp)
   81118:	10800110 	cmplti	r2,r2,4
   8111c:	103ff01e 	bne	r2,zero,810e0 <Check_for_DOS_FAT+0x420>
		{
			boot_sector_data.volume_id[counter] = *((volatile char *)SD_CARD_BUFFER(SD_CARD_0_BASE, 39+counter));
		}    
		for (counter = 0; counter < 11; counter++)
   81120:	e03ffd15 	stw	zero,-12(fp)
   81124:	00000c06 	br	81158 <Check_for_DOS_FAT+0x498>
		{
			boot_sector_data.volume_label[counter] = *((volatile char *)SD_CARD_BUFFER(SD_CARD_0_BASE, 43+counter));
   81128:	e13ffd17 	ldw	r4,-12(fp)
   8112c:	e0bffd17 	ldw	r2,-12(fp)
   81130:	10800ac4 	addi	r2,r2,43
   81134:	10c00003 	ldbu	r3,0(r2)
   81138:	008002b4 	movhi	r2,10
   8113c:	108e6a04 	addi	r2,r2,14760
   81140:	2085883a 	add	r2,r4,r2
   81144:	10800b04 	addi	r2,r2,44
   81148:	10c000c5 	stb	r3,3(r2)
	    
		for (counter = 0; counter < 4; counter++)
		{
			boot_sector_data.volume_id[counter] = *((volatile char *)SD_CARD_BUFFER(SD_CARD_0_BASE, 39+counter));
		}    
		for (counter = 0; counter < 11; counter++)
   8114c:	e0bffd17 	ldw	r2,-12(fp)
   81150:	10800044 	addi	r2,r2,1
   81154:	e0bffd15 	stw	r2,-12(fp)
   81158:	e0bffd17 	ldw	r2,-12(fp)
   8115c:	108002d0 	cmplti	r2,r2,11
   81160:	103ff11e 	bne	r2,zero,81128 <Check_for_DOS_FAT+0x468>
		{
			boot_sector_data.volume_label[counter] = *((volatile char *)SD_CARD_BUFFER(SD_CARD_0_BASE, 43+counter));
		}    
		for (counter = 0; counter < 8; counter++)
   81164:	e03ffd15 	stw	zero,-12(fp)
   81168:	00000d06 	br	811a0 <Check_for_DOS_FAT+0x4e0>
		{
			boot_sector_data.file_system_type[counter] = *((volatile char *)SD_CARD_BUFFER(SD_CARD_0_BASE, 54+counter));
   8116c:	e13ffd17 	ldw	r4,-12(fp)
   81170:	e0bffd17 	ldw	r2,-12(fp)
   81174:	10800d84 	addi	r2,r2,54
   81178:	10800003 	ldbu	r2,0(r2)
   8117c:	1007883a 	mov	r3,r2
   81180:	008002b4 	movhi	r2,10
   81184:	108e6a04 	addi	r2,r2,14760
   81188:	2085883a 	add	r2,r4,r2
   8118c:	10800e04 	addi	r2,r2,56
   81190:	10c00085 	stb	r3,2(r2)
		}    
		for (counter = 0; counter < 11; counter++)
		{
			boot_sector_data.volume_label[counter] = *((volatile char *)SD_CARD_BUFFER(SD_CARD_0_BASE, 43+counter));
		}    
		for (counter = 0; counter < 8; counter++)
   81194:	e0bffd17 	ldw	r2,-12(fp)
   81198:	10800044 	addi	r2,r2,1
   8119c:	e0bffd15 	stw	r2,-12(fp)
   811a0:	e0bffd17 	ldw	r2,-12(fp)
   811a4:	10800210 	cmplti	r2,r2,8
   811a8:	103ff01e 	bne	r2,zero,8116c <Check_for_DOS_FAT+0x4ac>
		{
			boot_sector_data.file_system_type[counter] = *((volatile char *)SD_CARD_BUFFER(SD_CARD_0_BASE, 54+counter));
		}    
		// Clear file records
		for (counter = 0; counter < MAX_FILES_OPENED; counter++)
   811ac:	e03ffd15 	stw	zero,-12(fp)
   811b0:	00000a06 	br	811dc <Check_for_DOS_FAT+0x51c>
		{
			active_files[counter].in_use = false;
   811b4:	e0bffd17 	ldw	r2,-12(fp)
   811b8:	00c002b4 	movhi	r3,10
   811bc:	18ce7f04 	addi	r3,r3,14844
   811c0:	100491ba 	slli	r2,r2,6
   811c4:	10c5883a 	add	r2,r2,r3
   811c8:	10800f04 	addi	r2,r2,60
   811cc:	10000015 	stw	zero,0(r2)
		for (counter = 0; counter < 8; counter++)
		{
			boot_sector_data.file_system_type[counter] = *((volatile char *)SD_CARD_BUFFER(SD_CARD_0_BASE, 54+counter));
		}    
		// Clear file records
		for (counter = 0; counter < MAX_FILES_OPENED; counter++)
   811d0:	e0bffd17 	ldw	r2,-12(fp)
   811d4:	10800044 	addi	r2,r2,1
   811d8:	e0bffd15 	stw	r2,-12(fp)
   811dc:	e0bffd17 	ldw	r2,-12(fp)
   811e0:	10800510 	cmplti	r2,r2,20
   811e4:	103ff31e 	bne	r2,zero,811b4 <Check_for_DOS_FAT+0x4f4>
		{
			active_files[counter].in_use = false;
		}
		result = true;
   811e8:	00800044 	movi	r2,1
   811ec:	e0bffe15 	stw	r2,-8(fp)
	int counter = 0;
	short int end;

	result = Read_Sector_Data(0, FAT_partition_start_sector);
	end =  (*((volatile short int *)SD_CARD_BUFFER(SD_CARD_0_BASE, 0x1fe)));
	if (((end & 0xffff) == 0xaa55) && (result))
   811f0:	00000106 	br	811f8 <Check_for_DOS_FAT+0x538>
		}
		result = true;
	}
    else
    {
        result = false;
   811f4:	e03ffe15 	stw	zero,-8(fp)
    }
	return result;
   811f8:	e0bffe17 	ldw	r2,-8(fp)
}
   811fc:	e037883a 	mov	sp,fp
   81200:	dfc00217 	ldw	ra,8(sp)
   81204:	df000117 	ldw	fp,4(sp)
   81208:	dc000017 	ldw	r16,0(sp)
   8120c:	dec00304 	addi	sp,sp,12
   81210:	f800283a 	ret

00081214 <Look_for_FAT16>:


bool Look_for_FAT16(void)
// Read the SD card to determine if it contains a FAT16 partition.
{
   81214:	defffc04 	addi	sp,sp,-16
   81218:	dfc00315 	stw	ra,12(sp)
   8121c:	df000215 	stw	fp,8(sp)
   81220:	df000204 	addi	fp,sp,8
	bool result = false;
   81224:	e03fff15 	stw	zero,-4(fp)

	if (sd_card_is_Present())
   81228:	0082ef80 	call	82ef8 <sd_card_is_Present>
   8122c:	1005003a 	cmpeq	r2,r2,zero
   81230:	10003b1e 	bne	r2,zero,81320 <Look_for_FAT16+0x10c>
	{
		short int csd_file_format = *CSD_register_w0;
   81234:	d0a70417 	ldw	r2,-25584(gp)
   81238:	1080000b 	ldhu	r2,0(r2)
   8123c:	e0bffe0d 	sth	r2,-8(fp)
        
		fat_partition_offset_in_512_byte_sectors = 0;
   81240:	d0270715 	stw	zero,-25572(gp)
		fat_partition_size_in_512_byte_sectors = 0;              
   81244:	d0270815 	stw	zero,-25568(gp)

		if (((csd_file_format & 0x8000) == 0) && ((csd_file_format & 0x0c00) != 0x0c00))
   81248:	e0bffe0f 	ldh	r2,-8(fp)
   8124c:	1004803a 	cmplt	r2,r2,zero
   81250:	1000331e 	bne	r2,zero,81320 <Look_for_FAT16+0x10c>
   81254:	e0bffe0b 	ldhu	r2,-8(fp)
   81258:	10bfffcc 	andi	r2,r2,65535
   8125c:	1083000c 	andi	r2,r2,3072
   81260:	10830020 	cmpeqi	r2,r2,3072
   81264:	10002e1e 	bne	r2,zero,81320 <Look_for_FAT16+0x10c>
		{
			if ((csd_file_format & 0x0c00) == 0x0400)
   81268:	e0bffe0b 	ldhu	r2,-8(fp)
   8126c:	10bfffcc 	andi	r2,r2,65535
   81270:	1083000c 	andi	r2,r2,3072
   81274:	10810018 	cmpnei	r2,r2,1024
   81278:	1000031e 	bne	r2,zero,81288 <Look_for_FAT16+0x74>
			{
				/* SD Card contains files stored in a DOS FAT (floppy like) file format, without a partition table */
				result = Check_for_DOS_FAT(0);
   8127c:	0009883a 	mov	r4,zero
   81280:	0080cc00 	call	80cc0 <Check_for_DOS_FAT>
   81284:	e0bfff15 	stw	r2,-4(fp)
			}
			if ((csd_file_format & 0x0c00) == 0x0000)
   81288:	e0bffe0b 	ldhu	r2,-8(fp)
   8128c:	10bfffcc 	andi	r2,r2,65535
   81290:	1083000c 	andi	r2,r2,3072
   81294:	1004c03a 	cmpne	r2,r2,zero
   81298:	1000061e 	bne	r2,zero,812b4 <Look_for_FAT16+0xa0>
			{
				/* SD Card contains files stored in a Hard disk-like file format that contains a partition table */
				if (Check_for_Master_Boot_Record())
   8129c:	00807a80 	call	807a8 <Check_for_Master_Boot_Record>
   812a0:	1005003a 	cmpeq	r2,r2,zero
   812a4:	1000031e 	bne	r2,zero,812b4 <Look_for_FAT16+0xa0>
				{
					result = Check_for_DOS_FAT(fat_partition_offset_in_512_byte_sectors);
   812a8:	d1270717 	ldw	r4,-25572(gp)
   812ac:	0080cc00 	call	80cc0 <Check_for_DOS_FAT>
   812b0:	e0bfff15 	stw	r2,-4(fp)
				}                        
			}
			if (result == true)
   812b4:	e0bfff17 	ldw	r2,-4(fp)
   812b8:	10800058 	cmpnei	r2,r2,1
   812bc:	1000181e 	bne	r2,zero,81320 <Look_for_FAT16+0x10c>
			{
				// Accept only FAT16, not FAT12.
				if (boot_sector_data.bits_for_cluster_index == 12)
   812c0:	008002b4 	movhi	r2,10
   812c4:	108e6a04 	addi	r2,r2,14760
   812c8:	10801083 	ldbu	r2,66(r2)
   812cc:	10803fcc 	andi	r2,r2,255
   812d0:	10800318 	cmpnei	r2,r2,12
   812d4:	1000021e 	bne	r2,zero,812e0 <Look_for_FAT16+0xcc>
				{
					result = false;
   812d8:	e03fff15 	stw	zero,-4(fp)
   812dc:	00001006 	br	81320 <Look_for_FAT16+0x10c>
				}
				else
				{
					if (boot_sector_data.number_of_sectors_in_partition != 0)
   812e0:	008002b4 	movhi	r2,10
   812e4:	108e6a04 	addi	r2,r2,14760
   812e8:	1080058b 	ldhu	r2,22(r2)
   812ec:	10bfffcc 	andi	r2,r2,65535
   812f0:	1005003a 	cmpeq	r2,r2,zero
   812f4:	1000061e 	bne	r2,zero,81310 <Look_for_FAT16+0xfc>
						fat_partition_size_in_512_byte_sectors = boot_sector_data.number_of_sectors_in_partition;
   812f8:	008002b4 	movhi	r2,10
   812fc:	108e6a04 	addi	r2,r2,14760
   81300:	1080058b 	ldhu	r2,22(r2)
   81304:	10bfffcc 	andi	r2,r2,65535
   81308:	d0a70815 	stw	r2,-25568(gp)
   8130c:	00000406 	br	81320 <Look_for_FAT16+0x10c>
					else
						fat_partition_size_in_512_byte_sectors = boot_sector_data.total_sector_count_if_above_32MB;
   81310:	008002b4 	movhi	r2,10
   81314:	108e6a04 	addi	r2,r2,14760
   81318:	10800917 	ldw	r2,36(r2)
   8131c:	d0a70815 	stw	r2,-25568(gp)
				}
			}
		}
	}
	return result;
   81320:	e0bfff17 	ldw	r2,-4(fp)
}
   81324:	e037883a 	mov	sp,fp
   81328:	dfc00117 	ldw	ra,4(sp)
   8132c:	df000017 	ldw	fp,0(sp)
   81330:	dec00204 	addi	sp,sp,8
   81334:	f800283a 	ret

00081338 <filename_to_upper_case>:
 

void filename_to_upper_case(char *file_name)
// Change file name to upper case.
{
   81338:	defffb04 	addi	sp,sp,-20
   8133c:	dfc00415 	stw	ra,16(sp)
   81340:	df000315 	stw	fp,12(sp)
   81344:	df000304 	addi	fp,sp,12
   81348:	e13fff15 	stw	r4,-4(fp)
    int index;
    int length = strlen(file_name);
   8134c:	e13fff17 	ldw	r4,-4(fp)
   81350:	0087b8c0 	call	87b8c <strlen>
   81354:	e0bffd15 	stw	r2,-12(fp)
    
    for (index = 0; index < length; index++)
   81358:	e03ffe15 	stw	zero,-8(fp)
   8135c:	00002206 	br	813e8 <filename_to_upper_case+0xb0>
    {
        if ((file_name[index] >= 'a') && (file_name[index] <= 'z'))
   81360:	e0bffe17 	ldw	r2,-8(fp)
   81364:	1007883a 	mov	r3,r2
   81368:	e0bfff17 	ldw	r2,-4(fp)
   8136c:	1885883a 	add	r2,r3,r2
   81370:	10800003 	ldbu	r2,0(r2)
   81374:	10803fcc 	andi	r2,r2,255
   81378:	1080201c 	xori	r2,r2,128
   8137c:	10bfe004 	addi	r2,r2,-128
   81380:	10801850 	cmplti	r2,r2,97
   81384:	1000151e 	bne	r2,zero,813dc <filename_to_upper_case+0xa4>
   81388:	e0bffe17 	ldw	r2,-8(fp)
   8138c:	1007883a 	mov	r3,r2
   81390:	e0bfff17 	ldw	r2,-4(fp)
   81394:	1885883a 	add	r2,r3,r2
   81398:	10800003 	ldbu	r2,0(r2)
   8139c:	10803fcc 	andi	r2,r2,255
   813a0:	1080201c 	xori	r2,r2,128
   813a4:	10bfe004 	addi	r2,r2,-128
   813a8:	10801ec8 	cmpgei	r2,r2,123
   813ac:	10000b1e 	bne	r2,zero,813dc <filename_to_upper_case+0xa4>
        {
            file_name[index] = (file_name[index] - 'a') + 'A';
   813b0:	e0bffe17 	ldw	r2,-8(fp)
   813b4:	1007883a 	mov	r3,r2
   813b8:	e0bfff17 	ldw	r2,-4(fp)
   813bc:	1889883a 	add	r4,r3,r2
   813c0:	e0bffe17 	ldw	r2,-8(fp)
   813c4:	1007883a 	mov	r3,r2
   813c8:	e0bfff17 	ldw	r2,-4(fp)
   813cc:	1885883a 	add	r2,r3,r2
   813d0:	10800003 	ldbu	r2,0(r2)
   813d4:	10bff804 	addi	r2,r2,-32
   813d8:	20800005 	stb	r2,0(r4)
// Change file name to upper case.
{
    int index;
    int length = strlen(file_name);
    
    for (index = 0; index < length; index++)
   813dc:	e0bffe17 	ldw	r2,-8(fp)
   813e0:	10800044 	addi	r2,r2,1
   813e4:	e0bffe15 	stw	r2,-8(fp)
   813e8:	e0fffe17 	ldw	r3,-8(fp)
   813ec:	e0bffd17 	ldw	r2,-12(fp)
   813f0:	18bfdb16 	blt	r3,r2,81360 <filename_to_upper_case+0x28>
        if ((file_name[index] >= 'a') && (file_name[index] <= 'z'))
        {
            file_name[index] = (file_name[index] - 'a') + 'A';
        }
    }
}
   813f4:	e037883a 	mov	sp,fp
   813f8:	dfc00117 	ldw	ra,4(sp)
   813fc:	df000017 	ldw	fp,0(sp)
   81400:	dec00204 	addi	sp,sp,8
   81404:	f800283a 	ret

00081408 <check_file_name_for_FAT16_compliance>:


bool check_file_name_for_FAT16_compliance(char *file_name)
// Check if the file complies with FAT16 naming convention.
{
   81408:	defff804 	addi	sp,sp,-32
   8140c:	dfc00715 	stw	ra,28(sp)
   81410:	df000615 	stw	fp,24(sp)
   81414:	df000604 	addi	fp,sp,24
   81418:	e13fff15 	stw	r4,-4(fp)
    int length = strlen(file_name);
   8141c:	e13fff17 	ldw	r4,-4(fp)
   81420:	0087b8c0 	call	87b8c <strlen>
   81424:	e0bffe15 	stw	r2,-8(fp)
    int index;
    int last_dir_break_position = -1;
   81428:	00bfffc4 	movi	r2,-1
   8142c:	e0bffc15 	stw	r2,-16(fp)
    int last_period = -1;
   81430:	00bfffc4 	movi	r2,-1
   81434:	e0bffb15 	stw	r2,-20(fp)
    bool result = true;
   81438:	00800044 	movi	r2,1
   8143c:	e0bffa15 	stw	r2,-24(fp)
    
    for(index = 0; index < length; index++)
   81440:	e03ffd15 	stw	zero,-12(fp)
   81444:	00007606 	br	81620 <check_file_name_for_FAT16_compliance+0x218>
    {
        if ((file_name[index] == ' ') ||
   81448:	e0bffd17 	ldw	r2,-12(fp)
   8144c:	1007883a 	mov	r3,r2
   81450:	e0bfff17 	ldw	r2,-4(fp)
   81454:	1885883a 	add	r2,r3,r2
   81458:	10800003 	ldbu	r2,0(r2)
   8145c:	10803fcc 	andi	r2,r2,255
   81460:	1080201c 	xori	r2,r2,128
   81464:	10bfe004 	addi	r2,r2,-128
   81468:	10800820 	cmpeqi	r2,r2,32
   8146c:	1000431e 	bne	r2,zero,8157c <check_file_name_for_FAT16_compliance+0x174>
   81470:	e0bffd17 	ldw	r2,-12(fp)
   81474:	10ffffc4 	addi	r3,r2,-1
   81478:	e0bffc17 	ldw	r2,-16(fp)
   8147c:	1880141e 	bne	r3,r2,814d0 <check_file_name_for_FAT16_compliance+0xc8>
   81480:	e0bffd17 	ldw	r2,-12(fp)
   81484:	1007883a 	mov	r3,r2
   81488:	e0bfff17 	ldw	r2,-4(fp)
   8148c:	1885883a 	add	r2,r3,r2
   81490:	10800003 	ldbu	r2,0(r2)
   81494:	10803fcc 	andi	r2,r2,255
   81498:	1080201c 	xori	r2,r2,128
   8149c:	10bfe004 	addi	r2,r2,-128
   814a0:	10801720 	cmpeqi	r2,r2,92
   814a4:	1000351e 	bne	r2,zero,8157c <check_file_name_for_FAT16_compliance+0x174>
   814a8:	e0bffd17 	ldw	r2,-12(fp)
   814ac:	1007883a 	mov	r3,r2
   814b0:	e0bfff17 	ldw	r2,-4(fp)
   814b4:	1885883a 	add	r2,r3,r2
   814b8:	10800003 	ldbu	r2,0(r2)
   814bc:	10803fcc 	andi	r2,r2,255
   814c0:	1080201c 	xori	r2,r2,128
   814c4:	10bfe004 	addi	r2,r2,-128
   814c8:	10800be0 	cmpeqi	r2,r2,47
   814cc:	10002b1e 	bne	r2,zero,8157c <check_file_name_for_FAT16_compliance+0x174>
   814d0:	e0fffd17 	ldw	r3,-12(fp)
   814d4:	e0bffb17 	ldw	r2,-20(fp)
   814d8:	1885c83a 	sub	r2,r3,r2
   814dc:	10800258 	cmpnei	r2,r2,9
   814e0:	10000a1e 	bne	r2,zero,8150c <check_file_name_for_FAT16_compliance+0x104>
   814e4:	e0bffd17 	ldw	r2,-12(fp)
   814e8:	1007883a 	mov	r3,r2
   814ec:	e0bfff17 	ldw	r2,-4(fp)
   814f0:	1885883a 	add	r2,r3,r2
   814f4:	10800003 	ldbu	r2,0(r2)
   814f8:	10803fcc 	andi	r2,r2,255
   814fc:	1080201c 	xori	r2,r2,128
   81500:	10bfe004 	addi	r2,r2,-128
   81504:	10800b98 	cmpnei	r2,r2,46
   81508:	10001c1e 	bne	r2,zero,8157c <check_file_name_for_FAT16_compliance+0x174>
   8150c:	e0fffc17 	ldw	r3,-16(fp)
   81510:	e0bffb17 	ldw	r2,-20(fp)
   81514:	18801b26 	beq	r3,r2,81584 <check_file_name_for_FAT16_compliance+0x17c>
   81518:	e0fffd17 	ldw	r3,-12(fp)
   8151c:	e0bffb17 	ldw	r2,-20(fp)
   81520:	1885c83a 	sub	r2,r3,r2
   81524:	10800110 	cmplti	r2,r2,4
   81528:	1000161e 	bne	r2,zero,81584 <check_file_name_for_FAT16_compliance+0x17c>
   8152c:	e0bffd17 	ldw	r2,-12(fp)
   81530:	1007883a 	mov	r3,r2
   81534:	e0bfff17 	ldw	r2,-4(fp)
   81538:	1885883a 	add	r2,r3,r2
   8153c:	10800003 	ldbu	r2,0(r2)
   81540:	10803fcc 	andi	r2,r2,255
   81544:	1080201c 	xori	r2,r2,128
   81548:	10bfe004 	addi	r2,r2,-128
   8154c:	10801720 	cmpeqi	r2,r2,92
   81550:	10000c1e 	bne	r2,zero,81584 <check_file_name_for_FAT16_compliance+0x17c>
   81554:	e0bffd17 	ldw	r2,-12(fp)
   81558:	1007883a 	mov	r3,r2
   8155c:	e0bfff17 	ldw	r2,-4(fp)
   81560:	1885883a 	add	r2,r3,r2
   81564:	10800003 	ldbu	r2,0(r2)
   81568:	10803fcc 	andi	r2,r2,255
   8156c:	1080201c 	xori	r2,r2,128
   81570:	10bfe004 	addi	r2,r2,-128
   81574:	10800be0 	cmpeqi	r2,r2,47
   81578:	1000021e 	bne	r2,zero,81584 <check_file_name_for_FAT16_compliance+0x17c>
            ((index - last_period == 9) && (file_name[index] != '.')) ||
            ((last_dir_break_position != last_period) && (index - last_period > 3) &&
             (file_name[index] != '\\') && (file_name[index] != '/'))
           )
        {
            result = false;
   8157c:	e03ffa15 	stw	zero,-24(fp)
            break;
   81580:	00002a06 	br	8162c <check_file_name_for_FAT16_compliance+0x224>
        }
        if ((file_name[index] == '\\') || (file_name[index] == '/'))
   81584:	e0bffd17 	ldw	r2,-12(fp)
   81588:	1007883a 	mov	r3,r2
   8158c:	e0bfff17 	ldw	r2,-4(fp)
   81590:	1885883a 	add	r2,r3,r2
   81594:	10800003 	ldbu	r2,0(r2)
   81598:	10803fcc 	andi	r2,r2,255
   8159c:	1080201c 	xori	r2,r2,128
   815a0:	10bfe004 	addi	r2,r2,-128
   815a4:	10801720 	cmpeqi	r2,r2,92
   815a8:	10000a1e 	bne	r2,zero,815d4 <check_file_name_for_FAT16_compliance+0x1cc>
   815ac:	e0bffd17 	ldw	r2,-12(fp)
   815b0:	1007883a 	mov	r3,r2
   815b4:	e0bfff17 	ldw	r2,-4(fp)
   815b8:	1885883a 	add	r2,r3,r2
   815bc:	10800003 	ldbu	r2,0(r2)
   815c0:	10803fcc 	andi	r2,r2,255
   815c4:	1080201c 	xori	r2,r2,128
   815c8:	10bfe004 	addi	r2,r2,-128
   815cc:	10800bd8 	cmpnei	r2,r2,47
   815d0:	1000041e 	bne	r2,zero,815e4 <check_file_name_for_FAT16_compliance+0x1dc>
        {
            last_period = index;
   815d4:	e0bffd17 	ldw	r2,-12(fp)
   815d8:	e0bffb15 	stw	r2,-20(fp)
            last_dir_break_position = index;
   815dc:	e0bffd17 	ldw	r2,-12(fp)
   815e0:	e0bffc15 	stw	r2,-16(fp)
        }
        if (file_name[index] == '.')
   815e4:	e0bffd17 	ldw	r2,-12(fp)
   815e8:	1007883a 	mov	r3,r2
   815ec:	e0bfff17 	ldw	r2,-4(fp)
   815f0:	1885883a 	add	r2,r3,r2
   815f4:	10800003 	ldbu	r2,0(r2)
   815f8:	10803fcc 	andi	r2,r2,255
   815fc:	1080201c 	xori	r2,r2,128
   81600:	10bfe004 	addi	r2,r2,-128
   81604:	10800b98 	cmpnei	r2,r2,46
   81608:	1000021e 	bne	r2,zero,81614 <check_file_name_for_FAT16_compliance+0x20c>
        {
            last_period = index;
   8160c:	e0bffd17 	ldw	r2,-12(fp)
   81610:	e0bffb15 	stw	r2,-20(fp)
    int index;
    int last_dir_break_position = -1;
    int last_period = -1;
    bool result = true;
    
    for(index = 0; index < length; index++)
   81614:	e0bffd17 	ldw	r2,-12(fp)
   81618:	10800044 	addi	r2,r2,1
   8161c:	e0bffd15 	stw	r2,-12(fp)
   81620:	e0fffd17 	ldw	r3,-12(fp)
   81624:	e0bffe17 	ldw	r2,-8(fp)
   81628:	18bf8716 	blt	r3,r2,81448 <check_file_name_for_FAT16_compliance+0x40>
        if (file_name[index] == '.')
        {
            last_period = index;
        }
    }
    if ((file_name[length-1] == '\\') || (file_name[length-1] == '/'))
   8162c:	e0fffe17 	ldw	r3,-8(fp)
   81630:	e0bfff17 	ldw	r2,-4(fp)
   81634:	1885883a 	add	r2,r3,r2
   81638:	10bfffc4 	addi	r2,r2,-1
   8163c:	10800003 	ldbu	r2,0(r2)
   81640:	10803fcc 	andi	r2,r2,255
   81644:	1080201c 	xori	r2,r2,128
   81648:	10bfe004 	addi	r2,r2,-128
   8164c:	10801720 	cmpeqi	r2,r2,92
   81650:	10000a1e 	bne	r2,zero,8167c <check_file_name_for_FAT16_compliance+0x274>
   81654:	e0fffe17 	ldw	r3,-8(fp)
   81658:	e0bfff17 	ldw	r2,-4(fp)
   8165c:	1885883a 	add	r2,r3,r2
   81660:	10bfffc4 	addi	r2,r2,-1
   81664:	10800003 	ldbu	r2,0(r2)
   81668:	10803fcc 	andi	r2,r2,255
   8166c:	1080201c 	xori	r2,r2,128
   81670:	10bfe004 	addi	r2,r2,-128
   81674:	10800bd8 	cmpnei	r2,r2,47
   81678:	1000011e 	bne	r2,zero,81680 <check_file_name_for_FAT16_compliance+0x278>
    {
        result = false;
   8167c:	e03ffa15 	stw	zero,-24(fp)
    }
    return result;
   81680:	e0bffa17 	ldw	r2,-24(fp)
}
   81684:	e037883a 	mov	sp,fp
   81688:	dfc00117 	ldw	ra,4(sp)
   8168c:	df000017 	ldw	fp,0(sp)
   81690:	dec00204 	addi	sp,sp,8
   81694:	f800283a 	ret

00081698 <get_dir_divider_location>:


int get_dir_divider_location(char *name)
// Find a directory divider location.
{
   81698:	defffb04 	addi	sp,sp,-20
   8169c:	dfc00415 	stw	ra,16(sp)
   816a0:	df000315 	stw	fp,12(sp)
   816a4:	df000304 	addi	fp,sp,12
   816a8:	e13fff15 	stw	r4,-4(fp)
    int index = 0;
   816ac:	e03ffe15 	stw	zero,-8(fp)
    int length = strlen(name);
   816b0:	e13fff17 	ldw	r4,-4(fp)
   816b4:	0087b8c0 	call	87b8c <strlen>
   816b8:	e0bffd15 	stw	r2,-12(fp)
    
    for(index = 0; index < length; index++)
   816bc:	e03ffe15 	stw	zero,-8(fp)
   816c0:	00001706 	br	81720 <get_dir_divider_location+0x88>
    {
        if ((name[index] == '\\') || (name[index] == '/'))
   816c4:	e0bffe17 	ldw	r2,-8(fp)
   816c8:	1007883a 	mov	r3,r2
   816cc:	e0bfff17 	ldw	r2,-4(fp)
   816d0:	1885883a 	add	r2,r3,r2
   816d4:	10800003 	ldbu	r2,0(r2)
   816d8:	10803fcc 	andi	r2,r2,255
   816dc:	1080201c 	xori	r2,r2,128
   816e0:	10bfe004 	addi	r2,r2,-128
   816e4:	10801720 	cmpeqi	r2,r2,92
   816e8:	1000101e 	bne	r2,zero,8172c <get_dir_divider_location+0x94>
   816ec:	e0bffe17 	ldw	r2,-8(fp)
   816f0:	1007883a 	mov	r3,r2
   816f4:	e0bfff17 	ldw	r2,-4(fp)
   816f8:	1885883a 	add	r2,r3,r2
   816fc:	10800003 	ldbu	r2,0(r2)
   81700:	10803fcc 	andi	r2,r2,255
   81704:	1080201c 	xori	r2,r2,128
   81708:	10bfe004 	addi	r2,r2,-128
   8170c:	10800be0 	cmpeqi	r2,r2,47
   81710:	1000061e 	bne	r2,zero,8172c <get_dir_divider_location+0x94>
// Find a directory divider location.
{
    int index = 0;
    int length = strlen(name);
    
    for(index = 0; index < length; index++)
   81714:	e0bffe17 	ldw	r2,-8(fp)
   81718:	10800044 	addi	r2,r2,1
   8171c:	e0bffe15 	stw	r2,-8(fp)
   81720:	e0fffe17 	ldw	r3,-8(fp)
   81724:	e0bffd17 	ldw	r2,-12(fp)
   81728:	18bfe616 	blt	r3,r2,816c4 <get_dir_divider_location+0x2c>
        {
            break;
        }
    }
    
    if (index == length)
   8172c:	e0fffe17 	ldw	r3,-8(fp)
   81730:	e0bffd17 	ldw	r2,-12(fp)
   81734:	1880021e 	bne	r3,r2,81740 <get_dir_divider_location+0xa8>
    {
        index = -1;
   81738:	00bfffc4 	movi	r2,-1
   8173c:	e0bffe15 	stw	r2,-8(fp)
    }
    
    return index;
   81740:	e0bffe17 	ldw	r2,-8(fp)
}
   81744:	e037883a 	mov	sp,fp
   81748:	dfc00117 	ldw	ra,4(sp)
   8174c:	df000017 	ldw	fp,0(sp)
   81750:	dec00204 	addi	sp,sp,8
   81754:	f800283a 	ret

00081758 <match_file_record_to_name_ext>:


bool match_file_record_to_name_ext(t_file_record *file_record, char *name, char *extension)
/* See if the given name and extension match the file record. Return true if this is so, false otherwise. */
{
   81758:	defff604 	addi	sp,sp,-40
   8175c:	df000915 	stw	fp,36(sp)
   81760:	df000904 	addi	fp,sp,36
   81764:	e13ff915 	stw	r4,-28(fp)
   81768:	e17ffa15 	stw	r5,-24(fp)
   8176c:	e1bffb15 	stw	r6,-20(fp)
    bool match = true;
   81770:	00800044 	movi	r2,1
   81774:	e0bff815 	stw	r2,-32(fp)
	int index;

    for (index = 0; index < 8; index++)
   81778:	e03ff715 	stw	zero,-36(fp)
   8177c:	00005006 	br	818c0 <match_file_record_to_name_ext+0x168>
    {
        if (CHAR_TO_UPPER(file_record->name[index]) != CHAR_TO_UPPER(name[index]))
   81780:	e0fff717 	ldw	r3,-36(fp)
   81784:	e0bff917 	ldw	r2,-28(fp)
   81788:	10c5883a 	add	r2,r2,r3
   8178c:	10800003 	ldbu	r2,0(r2)
   81790:	10803fcc 	andi	r2,r2,255
   81794:	10801870 	cmpltui	r2,r2,97
   81798:	1000111e 	bne	r2,zero,817e0 <match_file_record_to_name_ext+0x88>
   8179c:	e0fff717 	ldw	r3,-36(fp)
   817a0:	e0bff917 	ldw	r2,-28(fp)
   817a4:	10c5883a 	add	r2,r2,r3
   817a8:	10800003 	ldbu	r2,0(r2)
   817ac:	10803fcc 	andi	r2,r2,255
   817b0:	10801ee8 	cmpgeui	r2,r2,123
   817b4:	10000a1e 	bne	r2,zero,817e0 <match_file_record_to_name_ext+0x88>
   817b8:	e0fff717 	ldw	r3,-36(fp)
   817bc:	e0bff917 	ldw	r2,-28(fp)
   817c0:	10c5883a 	add	r2,r2,r3
   817c4:	10800003 	ldbu	r2,0(r2)
   817c8:	10bff804 	addi	r2,r2,-32
   817cc:	10803fcc 	andi	r2,r2,255
   817d0:	1080201c 	xori	r2,r2,128
   817d4:	10bfe004 	addi	r2,r2,-128
   817d8:	e0bfff15 	stw	r2,-4(fp)
   817dc:	00000806 	br	81800 <match_file_record_to_name_ext+0xa8>
   817e0:	e0fff717 	ldw	r3,-36(fp)
   817e4:	e0bff917 	ldw	r2,-28(fp)
   817e8:	10c5883a 	add	r2,r2,r3
   817ec:	10800003 	ldbu	r2,0(r2)
   817f0:	10803fcc 	andi	r2,r2,255
   817f4:	1080201c 	xori	r2,r2,128
   817f8:	10bfe004 	addi	r2,r2,-128
   817fc:	e0bfff15 	stw	r2,-4(fp)
   81800:	e0bff717 	ldw	r2,-36(fp)
   81804:	1007883a 	mov	r3,r2
   81808:	e0bffa17 	ldw	r2,-24(fp)
   8180c:	1885883a 	add	r2,r3,r2
   81810:	10800003 	ldbu	r2,0(r2)
   81814:	10803fcc 	andi	r2,r2,255
   81818:	1080201c 	xori	r2,r2,128
   8181c:	10bfe004 	addi	r2,r2,-128
   81820:	10801850 	cmplti	r2,r2,97
   81824:	1000151e 	bne	r2,zero,8187c <match_file_record_to_name_ext+0x124>
   81828:	e0bff717 	ldw	r2,-36(fp)
   8182c:	1007883a 	mov	r3,r2
   81830:	e0bffa17 	ldw	r2,-24(fp)
   81834:	1885883a 	add	r2,r3,r2
   81838:	10800003 	ldbu	r2,0(r2)
   8183c:	10803fcc 	andi	r2,r2,255
   81840:	1080201c 	xori	r2,r2,128
   81844:	10bfe004 	addi	r2,r2,-128
   81848:	10801ec8 	cmpgei	r2,r2,123
   8184c:	10000b1e 	bne	r2,zero,8187c <match_file_record_to_name_ext+0x124>
   81850:	e0bff717 	ldw	r2,-36(fp)
   81854:	1007883a 	mov	r3,r2
   81858:	e0bffa17 	ldw	r2,-24(fp)
   8185c:	1885883a 	add	r2,r3,r2
   81860:	10800003 	ldbu	r2,0(r2)
   81864:	10bff804 	addi	r2,r2,-32
   81868:	10803fcc 	andi	r2,r2,255
   8186c:	1080201c 	xori	r2,r2,128
   81870:	10bfe004 	addi	r2,r2,-128
   81874:	e0bffe15 	stw	r2,-8(fp)
   81878:	00000906 	br	818a0 <match_file_record_to_name_ext+0x148>
   8187c:	e0bff717 	ldw	r2,-36(fp)
   81880:	1007883a 	mov	r3,r2
   81884:	e0bffa17 	ldw	r2,-24(fp)
   81888:	1885883a 	add	r2,r3,r2
   8188c:	10800003 	ldbu	r2,0(r2)
   81890:	10803fcc 	andi	r2,r2,255
   81894:	1080201c 	xori	r2,r2,128
   81898:	10bfe004 	addi	r2,r2,-128
   8189c:	e0bffe15 	stw	r2,-8(fp)
   818a0:	e0bfff17 	ldw	r2,-4(fp)
   818a4:	e0fffe17 	ldw	r3,-8(fp)
   818a8:	10c00226 	beq	r2,r3,818b4 <match_file_record_to_name_ext+0x15c>
        {
            match = false;
   818ac:	e03ff815 	stw	zero,-32(fp)
			break;
   818b0:	00000606 	br	818cc <match_file_record_to_name_ext+0x174>
/* See if the given name and extension match the file record. Return true if this is so, false otherwise. */
{
    bool match = true;
	int index;

    for (index = 0; index < 8; index++)
   818b4:	e0bff717 	ldw	r2,-36(fp)
   818b8:	10800044 	addi	r2,r2,1
   818bc:	e0bff715 	stw	r2,-36(fp)
   818c0:	e0bff717 	ldw	r2,-36(fp)
   818c4:	10800210 	cmplti	r2,r2,8
   818c8:	103fad1e 	bne	r2,zero,81780 <match_file_record_to_name_ext+0x28>
        {
            match = false;
			break;
        }
    }
    for (index = 0; index < 3; index++)
   818cc:	e03ff715 	stw	zero,-36(fp)
   818d0:	00005406 	br	81a24 <match_file_record_to_name_ext+0x2cc>
    {
        if (CHAR_TO_UPPER(file_record->extension[index]) != CHAR_TO_UPPER(extension[index]))
   818d4:	e0fff717 	ldw	r3,-36(fp)
   818d8:	e0bff917 	ldw	r2,-28(fp)
   818dc:	1885883a 	add	r2,r3,r2
   818e0:	10800204 	addi	r2,r2,8
   818e4:	10800003 	ldbu	r2,0(r2)
   818e8:	10803fcc 	andi	r2,r2,255
   818ec:	10801870 	cmpltui	r2,r2,97
   818f0:	1000131e 	bne	r2,zero,81940 <match_file_record_to_name_ext+0x1e8>
   818f4:	e0fff717 	ldw	r3,-36(fp)
   818f8:	e0bff917 	ldw	r2,-28(fp)
   818fc:	1885883a 	add	r2,r3,r2
   81900:	10800204 	addi	r2,r2,8
   81904:	10800003 	ldbu	r2,0(r2)
   81908:	10803fcc 	andi	r2,r2,255
   8190c:	10801ee8 	cmpgeui	r2,r2,123
   81910:	10000b1e 	bne	r2,zero,81940 <match_file_record_to_name_ext+0x1e8>
   81914:	e0fff717 	ldw	r3,-36(fp)
   81918:	e0bff917 	ldw	r2,-28(fp)
   8191c:	1885883a 	add	r2,r3,r2
   81920:	10800204 	addi	r2,r2,8
   81924:	10800003 	ldbu	r2,0(r2)
   81928:	10bff804 	addi	r2,r2,-32
   8192c:	10803fcc 	andi	r2,r2,255
   81930:	1080201c 	xori	r2,r2,128
   81934:	10bfe004 	addi	r2,r2,-128
   81938:	e0bffd15 	stw	r2,-12(fp)
   8193c:	00000906 	br	81964 <match_file_record_to_name_ext+0x20c>
   81940:	e0fff717 	ldw	r3,-36(fp)
   81944:	e0bff917 	ldw	r2,-28(fp)
   81948:	1885883a 	add	r2,r3,r2
   8194c:	10800204 	addi	r2,r2,8
   81950:	10800003 	ldbu	r2,0(r2)
   81954:	10803fcc 	andi	r2,r2,255
   81958:	1080201c 	xori	r2,r2,128
   8195c:	10bfe004 	addi	r2,r2,-128
   81960:	e0bffd15 	stw	r2,-12(fp)
   81964:	e0bff717 	ldw	r2,-36(fp)
   81968:	1007883a 	mov	r3,r2
   8196c:	e0bffb17 	ldw	r2,-20(fp)
   81970:	1885883a 	add	r2,r3,r2
   81974:	10800003 	ldbu	r2,0(r2)
   81978:	10803fcc 	andi	r2,r2,255
   8197c:	1080201c 	xori	r2,r2,128
   81980:	10bfe004 	addi	r2,r2,-128
   81984:	10801850 	cmplti	r2,r2,97
   81988:	1000151e 	bne	r2,zero,819e0 <match_file_record_to_name_ext+0x288>
   8198c:	e0bff717 	ldw	r2,-36(fp)
   81990:	1007883a 	mov	r3,r2
   81994:	e0bffb17 	ldw	r2,-20(fp)
   81998:	1885883a 	add	r2,r3,r2
   8199c:	10800003 	ldbu	r2,0(r2)
   819a0:	10803fcc 	andi	r2,r2,255
   819a4:	1080201c 	xori	r2,r2,128
   819a8:	10bfe004 	addi	r2,r2,-128
   819ac:	10801ec8 	cmpgei	r2,r2,123
   819b0:	10000b1e 	bne	r2,zero,819e0 <match_file_record_to_name_ext+0x288>
   819b4:	e0bff717 	ldw	r2,-36(fp)
   819b8:	1007883a 	mov	r3,r2
   819bc:	e0bffb17 	ldw	r2,-20(fp)
   819c0:	1885883a 	add	r2,r3,r2
   819c4:	10800003 	ldbu	r2,0(r2)
   819c8:	10bff804 	addi	r2,r2,-32
   819cc:	10803fcc 	andi	r2,r2,255
   819d0:	1080201c 	xori	r2,r2,128
   819d4:	10bfe004 	addi	r2,r2,-128
   819d8:	e0bffc15 	stw	r2,-16(fp)
   819dc:	00000906 	br	81a04 <match_file_record_to_name_ext+0x2ac>
   819e0:	e0bff717 	ldw	r2,-36(fp)
   819e4:	1007883a 	mov	r3,r2
   819e8:	e0bffb17 	ldw	r2,-20(fp)
   819ec:	1885883a 	add	r2,r3,r2
   819f0:	10800003 	ldbu	r2,0(r2)
   819f4:	10803fcc 	andi	r2,r2,255
   819f8:	1080201c 	xori	r2,r2,128
   819fc:	10bfe004 	addi	r2,r2,-128
   81a00:	e0bffc15 	stw	r2,-16(fp)
   81a04:	e0bffd17 	ldw	r2,-12(fp)
   81a08:	e0fffc17 	ldw	r3,-16(fp)
   81a0c:	10c00226 	beq	r2,r3,81a18 <match_file_record_to_name_ext+0x2c0>
        {
            match = false;
   81a10:	e03ff815 	stw	zero,-32(fp)
			break;
   81a14:	00000606 	br	81a30 <match_file_record_to_name_ext+0x2d8>
        {
            match = false;
			break;
        }
    }
    for (index = 0; index < 3; index++)
   81a18:	e0bff717 	ldw	r2,-36(fp)
   81a1c:	10800044 	addi	r2,r2,1
   81a20:	e0bff715 	stw	r2,-36(fp)
   81a24:	e0bff717 	ldw	r2,-36(fp)
   81a28:	108000d0 	cmplti	r2,r2,3
   81a2c:	103fa91e 	bne	r2,zero,818d4 <match_file_record_to_name_ext+0x17c>
        {
            match = false;
			break;
        }
    }
	return match;
   81a30:	e0bff817 	ldw	r2,-32(fp)
}
   81a34:	e037883a 	mov	sp,fp
   81a38:	df000017 	ldw	fp,0(sp)
   81a3c:	dec00104 	addi	sp,sp,4
   81a40:	f800283a 	ret

00081a44 <get_home_directory_cluster_for_file>:


bool get_home_directory_cluster_for_file(char *file_name, int *home_directory_cluster, t_file_record *file_record)
// Scan the directories in given in the file name and find the root directory for the file.
{
   81a44:	deffe604 	addi	sp,sp,-104
   81a48:	dfc01915 	stw	ra,100(sp)
   81a4c:	df001815 	stw	fp,96(sp)
   81a50:	df001804 	addi	fp,sp,96
   81a54:	e13ffc15 	stw	r4,-16(fp)
   81a58:	e17ffd15 	stw	r5,-12(fp)
   81a5c:	e1bffe15 	stw	r6,-8(fp)
    bool result = false;
   81a60:	e03ff715 	stw	zero,-36(fp)
    int home_dir_cluster = 0;
   81a64:	e03ff615 	stw	zero,-40(fp)
    int location, index;
    int start_location = 0;
   81a68:	e03ff315 	stw	zero,-52(fp)
    
    /* Get Next Directory. */
    location = get_dir_divider_location( file_name );
   81a6c:	e13ffc17 	ldw	r4,-16(fp)
   81a70:	00816980 	call	81698 <get_dir_divider_location>
   81a74:	e0bff515 	stw	r2,-44(fp)
    while (location > 0)
   81a78:	00012206 	br	81f04 <get_home_directory_cluster_for_file+0x4c0>
    {
        char name[8] = { ' ', ' ', ' ', ' ', ' ', ' ', ' ', ' ' };
   81a7c:	00800804 	movi	r2,32
   81a80:	e0bff805 	stb	r2,-32(fp)
   81a84:	00800804 	movi	r2,32
   81a88:	e0bff845 	stb	r2,-31(fp)
   81a8c:	00800804 	movi	r2,32
   81a90:	e0bff885 	stb	r2,-30(fp)
   81a94:	00800804 	movi	r2,32
   81a98:	e0bff8c5 	stb	r2,-29(fp)
   81a9c:	00800804 	movi	r2,32
   81aa0:	e0bff905 	stb	r2,-28(fp)
   81aa4:	00800804 	movi	r2,32
   81aa8:	e0bff945 	stb	r2,-27(fp)
   81aac:	00800804 	movi	r2,32
   81ab0:	e0bff985 	stb	r2,-26(fp)
   81ab4:	00800804 	movi	r2,32
   81ab8:	e0bff9c5 	stb	r2,-25(fp)
        char extension[3] = { ' ', ' ', ' ' };
   81abc:	00800804 	movi	r2,32
   81ac0:	e0bffa05 	stb	r2,-24(fp)
   81ac4:	00800804 	movi	r2,32
   81ac8:	e0bffa45 	stb	r2,-23(fp)
   81acc:	00800804 	movi	r2,32
   81ad0:	e0bffa85 	stb	r2,-22(fp)
        int ext_index = -1;
   81ad4:	00bfffc4 	movi	r2,-1
   81ad8:	e0bff215 	stw	r2,-56(fp)
        int new_cluster = home_dir_cluster;
   81adc:	e0bff617 	ldw	r2,-40(fp)
   81ae0:	e0bff115 	stw	r2,-60(fp)
        
        // Get the name of the directory in name/extension format.
        for (index = 0; index < location; index++)
   81ae4:	e03ff415 	stw	zero,-48(fp)
   81ae8:	00002e06 	br	81ba4 <get_home_directory_cluster_for_file+0x160>
        {
            if (file_name[index+start_location] == '.')
   81aec:	e0fff417 	ldw	r3,-48(fp)
   81af0:	e0bff317 	ldw	r2,-52(fp)
   81af4:	1885883a 	add	r2,r3,r2
   81af8:	1007883a 	mov	r3,r2
   81afc:	e0bffc17 	ldw	r2,-16(fp)
   81b00:	1885883a 	add	r2,r3,r2
   81b04:	10800003 	ldbu	r2,0(r2)
   81b08:	10803fcc 	andi	r2,r2,255
   81b0c:	1080201c 	xori	r2,r2,128
   81b10:	10bfe004 	addi	r2,r2,-128
   81b14:	10800b98 	cmpnei	r2,r2,46
   81b18:	1000031e 	bne	r2,zero,81b28 <get_home_directory_cluster_for_file+0xe4>
            {
                ext_index = index;
   81b1c:	e0bff417 	ldw	r2,-48(fp)
   81b20:	e0bff215 	stw	r2,-56(fp)
   81b24:	00001c06 	br	81b98 <get_home_directory_cluster_for_file+0x154>
            }
            else if (ext_index < 0)
   81b28:	e0bff217 	ldw	r2,-56(fp)
   81b2c:	1004403a 	cmpge	r2,r2,zero
   81b30:	10000c1e 	bne	r2,zero,81b64 <get_home_directory_cluster_for_file+0x120>
            {
                name[index] = file_name[index+start_location];
   81b34:	e13ff417 	ldw	r4,-48(fp)
   81b38:	e0fff417 	ldw	r3,-48(fp)
   81b3c:	e0bff317 	ldw	r2,-52(fp)
   81b40:	1885883a 	add	r2,r3,r2
   81b44:	1007883a 	mov	r3,r2
   81b48:	e0bffc17 	ldw	r2,-16(fp)
   81b4c:	1885883a 	add	r2,r3,r2
   81b50:	10c00003 	ldbu	r3,0(r2)
   81b54:	e0bff804 	addi	r2,fp,-32
   81b58:	1105883a 	add	r2,r2,r4
   81b5c:	10c00005 	stb	r3,0(r2)
   81b60:	00000d06 	br	81b98 <get_home_directory_cluster_for_file+0x154>
            }
            else
            {
                extension[index-ext_index] = file_name[index+start_location];
   81b64:	e0fff417 	ldw	r3,-48(fp)
   81b68:	e0bff217 	ldw	r2,-56(fp)
   81b6c:	1889c83a 	sub	r4,r3,r2
   81b70:	e0fff417 	ldw	r3,-48(fp)
   81b74:	e0bff317 	ldw	r2,-52(fp)
   81b78:	1885883a 	add	r2,r3,r2
   81b7c:	1007883a 	mov	r3,r2
   81b80:	e0bffc17 	ldw	r2,-16(fp)
   81b84:	1885883a 	add	r2,r3,r2
   81b88:	10c00003 	ldbu	r3,0(r2)
   81b8c:	e0bffa04 	addi	r2,fp,-24
   81b90:	1105883a 	add	r2,r2,r4
   81b94:	10c00005 	stb	r3,0(r2)
        char extension[3] = { ' ', ' ', ' ' };
        int ext_index = -1;
        int new_cluster = home_dir_cluster;
        
        // Get the name of the directory in name/extension format.
        for (index = 0; index < location; index++)
   81b98:	e0bff417 	ldw	r2,-48(fp)
   81b9c:	10800044 	addi	r2,r2,1
   81ba0:	e0bff415 	stw	r2,-48(fp)
   81ba4:	e0fff417 	ldw	r3,-48(fp)
   81ba8:	e0bff517 	ldw	r2,-44(fp)
   81bac:	18bfcf16 	blt	r3,r2,81aec <get_home_directory_cluster_for_file+0xa8>
            {
                extension[index-ext_index] = file_name[index+start_location];
            }
        }
        
        if (home_dir_cluster == 0)
   81bb0:	e0bff617 	ldw	r2,-40(fp)
   81bb4:	1004c03a 	cmpne	r2,r2,zero
   81bb8:	1000551e 	bne	r2,zero,81d10 <get_home_directory_cluster_for_file+0x2cc>
        {
            /* We are in the root directory. Scan the directory (of predefined size) and see if you can find the specified file. */
            int max_root_dir_sectors = ((32*boot_sector_data.max_number_of_dir_entires) / boot_sector_data.sector_size_in_bytes);
   81bbc:	008002b4 	movhi	r2,10
   81bc0:	108e6a04 	addi	r2,r2,14760
   81bc4:	1080050b 	ldhu	r2,20(r2)
   81bc8:	10bfffcc 	andi	r2,r2,65535
   81bcc:	1008917a 	slli	r4,r2,5
   81bd0:	008002b4 	movhi	r2,10
   81bd4:	108e6a04 	addi	r2,r2,14760
   81bd8:	1080030b 	ldhu	r2,12(r2)
   81bdc:	117fffcc 	andi	r5,r2,65535
   81be0:	00877140 	call	87714 <__divsi3>
   81be4:	e0bff015 	stw	r2,-64(fp)
            int sector_index;
            
            for (sector_index = 0; sector_index < max_root_dir_sectors; sector_index++)
   81be8:	e03fef15 	stw	zero,-68(fp)
   81bec:	00003806 	br	81cd0 <get_home_directory_cluster_for_file+0x28c>
            {
                if (Read_Sector_Data(sector_index+boot_sector_data.root_directory_sector_offset, fat_partition_offset_in_512_byte_sectors))
   81bf0:	008002b4 	movhi	r2,10
   81bf4:	108e6a04 	addi	r2,r2,14760
   81bf8:	10c01317 	ldw	r3,76(r2)
   81bfc:	e0bfef17 	ldw	r2,-68(fp)
   81c00:	1885883a 	add	r2,r3,r2
   81c04:	1009883a 	mov	r4,r2
   81c08:	d1670717 	ldw	r5,-25572(gp)
   81c0c:	008053c0 	call	8053c <Read_Sector_Data>
   81c10:	1005003a 	cmpeq	r2,r2,zero
   81c14:	1000311e 	bne	r2,zero,81cdc <get_home_directory_cluster_for_file+0x298>
                {
                    int file_counter;
                    
                    for (file_counter = 0; file_counter < 16; file_counter++)
   81c18:	e03fee15 	stw	zero,-72(fp)
   81c1c:	00002306 	br	81cac <get_home_directory_cluster_for_file+0x268>
                    {
                       
                        // Read file record.
                        Read_File_Record_At_Offset(file_counter*32, file_record, 0, sector_index);
   81c20:	e0bfee17 	ldw	r2,-72(fp)
   81c24:	1008917a 	slli	r4,r2,5
   81c28:	e1ffef17 	ldw	r7,-68(fp)
   81c2c:	e17ffe17 	ldw	r5,-8(fp)
   81c30:	000d883a 	mov	r6,zero
   81c34:	00809000 	call	80900 <Read_File_Record_At_Offset>
                        if ((file_record->name[0] != 0xe5) && (file_record->name[0] != 0x00))
   81c38:	e0bffe17 	ldw	r2,-8(fp)
   81c3c:	10800003 	ldbu	r2,0(r2)
   81c40:	10803fcc 	andi	r2,r2,255
   81c44:	10803960 	cmpeqi	r2,r2,229
   81c48:	1000151e 	bne	r2,zero,81ca0 <get_home_directory_cluster_for_file+0x25c>
   81c4c:	e0bffe17 	ldw	r2,-8(fp)
   81c50:	10800003 	ldbu	r2,0(r2)
   81c54:	10803fcc 	andi	r2,r2,255
   81c58:	1005003a 	cmpeq	r2,r2,zero
   81c5c:	1000101e 	bne	r2,zero,81ca0 <get_home_directory_cluster_for_file+0x25c>
                        {
                            bool match = match_file_record_to_name_ext(file_record, name, extension);
   81c60:	e17ff804 	addi	r5,fp,-32
   81c64:	e1bffa04 	addi	r6,fp,-24
   81c68:	e13ffe17 	ldw	r4,-8(fp)
   81c6c:	00817580 	call	81758 <match_file_record_to_name_ext>
   81c70:	e0bfed15 	stw	r2,-76(fp)
                            if (match)
   81c74:	e0bfed17 	ldw	r2,-76(fp)
   81c78:	1005003a 	cmpeq	r2,r2,zero
   81c7c:	1000081e 	bne	r2,zero,81ca0 <get_home_directory_cluster_for_file+0x25c>
                            {
                                new_cluster = file_record->start_cluster_index;
   81c80:	e0bffe17 	ldw	r2,-8(fp)
   81c84:	1080058b 	ldhu	r2,22(r2)
   81c88:	10bfffcc 	andi	r2,r2,65535
   81c8c:	e0bff115 	stw	r2,-60(fp)
                                file_record->file_record_cluster = 1; // Home directory is a subdirectory in the root directory.
   81c90:	e0fffe17 	ldw	r3,-8(fp)
   81c94:	00800044 	movi	r2,1
   81c98:	18800a15 	stw	r2,40(r3)
                                break;
   81c9c:	00000606 	br	81cb8 <get_home_directory_cluster_for_file+0x274>
            {
                if (Read_Sector_Data(sector_index+boot_sector_data.root_directory_sector_offset, fat_partition_offset_in_512_byte_sectors))
                {
                    int file_counter;
                    
                    for (file_counter = 0; file_counter < 16; file_counter++)
   81ca0:	e0bfee17 	ldw	r2,-72(fp)
   81ca4:	10800044 	addi	r2,r2,1
   81ca8:	e0bfee15 	stw	r2,-72(fp)
   81cac:	e0bfee17 	ldw	r2,-72(fp)
   81cb0:	10800410 	cmplti	r2,r2,16
   81cb4:	103fda1e 	bne	r2,zero,81c20 <get_home_directory_cluster_for_file+0x1dc>
                }
                else
                {
                    break;
                }
                if (new_cluster != home_dir_cluster)
   81cb8:	e0fff117 	ldw	r3,-60(fp)
   81cbc:	e0bff617 	ldw	r2,-40(fp)
   81cc0:	1880061e 	bne	r3,r2,81cdc <get_home_directory_cluster_for_file+0x298>
        {
            /* We are in the root directory. Scan the directory (of predefined size) and see if you can find the specified file. */
            int max_root_dir_sectors = ((32*boot_sector_data.max_number_of_dir_entires) / boot_sector_data.sector_size_in_bytes);
            int sector_index;
            
            for (sector_index = 0; sector_index < max_root_dir_sectors; sector_index++)
   81cc4:	e0bfef17 	ldw	r2,-68(fp)
   81cc8:	10800044 	addi	r2,r2,1
   81ccc:	e0bfef15 	stw	r2,-68(fp)
   81cd0:	e0ffef17 	ldw	r3,-68(fp)
   81cd4:	e0bff017 	ldw	r2,-64(fp)
   81cd8:	18bfc516 	blt	r3,r2,81bf0 <get_home_directory_cluster_for_file+0x1ac>
                if (new_cluster != home_dir_cluster)
                {
                    break;
                }
            }
            if (new_cluster != home_dir_cluster)
   81cdc:	e0fff117 	ldw	r3,-60(fp)
   81ce0:	e0bff617 	ldw	r2,-40(fp)
   81ce4:	18800826 	beq	r3,r2,81d08 <get_home_directory_cluster_for_file+0x2c4>
            {
                // A valid directory is found, so go to it.
                home_dir_cluster = new_cluster;
   81ce8:	e0bff117 	ldw	r2,-60(fp)
   81cec:	e0bff615 	stw	r2,-40(fp)
                start_location = start_location+location+1;
   81cf0:	e0fff317 	ldw	r3,-52(fp)
   81cf4:	e0bff517 	ldw	r2,-44(fp)
   81cf8:	1885883a 	add	r2,r3,r2
   81cfc:	10800044 	addi	r2,r2,1
   81d00:	e0bff315 	stw	r2,-52(fp)
   81d04:	00007406 	br	81ed8 <get_home_directory_cluster_for_file+0x494>
            }
            else
            {
                // Directory path is invalid. 
                return false;
   81d08:	e03fff15 	stw	zero,-4(fp)
   81d0c:	00008c06 	br	81f40 <get_home_directory_cluster_for_file+0x4fc>
            }
        } else {
            // This is a subdirectory that can have any number of elements. So scan through it as though it was a file
            // and see if you can find the directory of interest.
            int cluster = home_dir_cluster;
   81d10:	e0bff617 	ldw	r2,-40(fp)
   81d14:	e0bfec15 	stw	r2,-80(fp)
            
            do {
                int start_sector = ( cluster - 2 ) * ( boot_sector_data.sectors_per_cluster ) + boot_sector_data.data_sector_offset;
   81d18:	e0bfec17 	ldw	r2,-80(fp)
   81d1c:	113fff84 	addi	r4,r2,-2
   81d20:	008002b4 	movhi	r2,10
   81d24:	108e6a04 	addi	r2,r2,14760
   81d28:	10800383 	ldbu	r2,14(r2)
   81d2c:	11403fcc 	andi	r5,r2,255
   81d30:	00877e40 	call	877e4 <__mulsi3>
   81d34:	1007883a 	mov	r3,r2
   81d38:	008002b4 	movhi	r2,10
   81d3c:	108e6a04 	addi	r2,r2,14760
   81d40:	10801417 	ldw	r2,80(r2)
   81d44:	1885883a 	add	r2,r3,r2
   81d48:	e0bfeb15 	stw	r2,-84(fp)
                int sector_index;
                
                for (sector_index = 0; sector_index < boot_sector_data.sectors_per_cluster; sector_index++)
   81d4c:	e03fea15 	stw	zero,-88(fp)
   81d50:	00003206 	br	81e1c <get_home_directory_cluster_for_file+0x3d8>
                {
                    if (Read_Sector_Data(sector_index + start_sector, fat_partition_offset_in_512_byte_sectors))
   81d54:	e0ffea17 	ldw	r3,-88(fp)
   81d58:	e0bfeb17 	ldw	r2,-84(fp)
   81d5c:	1889883a 	add	r4,r3,r2
   81d60:	d1670717 	ldw	r5,-25572(gp)
   81d64:	008053c0 	call	8053c <Read_Sector_Data>
   81d68:	1005003a 	cmpeq	r2,r2,zero
   81d6c:	1000311e 	bne	r2,zero,81e34 <get_home_directory_cluster_for_file+0x3f0>
                    {
                        int file_counter;
                        
                        for (file_counter = 0; file_counter < 16; file_counter++)
   81d70:	e03fe915 	stw	zero,-92(fp)
   81d74:	00002006 	br	81df8 <get_home_directory_cluster_for_file+0x3b4>
                        {                         
                            // Read file record.
                            Read_File_Record_At_Offset(file_counter*32, file_record, cluster, sector_index);
   81d78:	e0bfe917 	ldw	r2,-92(fp)
   81d7c:	1008917a 	slli	r4,r2,5
   81d80:	e1bfec17 	ldw	r6,-80(fp)
   81d84:	e1ffea17 	ldw	r7,-88(fp)
   81d88:	e17ffe17 	ldw	r5,-8(fp)
   81d8c:	00809000 	call	80900 <Read_File_Record_At_Offset>
                            if ((file_record->name[0] != 0xe5) && (file_record->name[0] != 0x00))
   81d90:	e0bffe17 	ldw	r2,-8(fp)
   81d94:	10800003 	ldbu	r2,0(r2)
   81d98:	10803fcc 	andi	r2,r2,255
   81d9c:	10803960 	cmpeqi	r2,r2,229
   81da0:	1000121e 	bne	r2,zero,81dec <get_home_directory_cluster_for_file+0x3a8>
   81da4:	e0bffe17 	ldw	r2,-8(fp)
   81da8:	10800003 	ldbu	r2,0(r2)
   81dac:	10803fcc 	andi	r2,r2,255
   81db0:	1005003a 	cmpeq	r2,r2,zero
   81db4:	10000d1e 	bne	r2,zero,81dec <get_home_directory_cluster_for_file+0x3a8>
                            {
								bool match = match_file_record_to_name_ext(file_record, name, extension);
   81db8:	e17ff804 	addi	r5,fp,-32
   81dbc:	e1bffa04 	addi	r6,fp,-24
   81dc0:	e13ffe17 	ldw	r4,-8(fp)
   81dc4:	00817580 	call	81758 <match_file_record_to_name_ext>
   81dc8:	e0bfe815 	stw	r2,-96(fp)
                                if (match)
   81dcc:	e0bfe817 	ldw	r2,-96(fp)
   81dd0:	1005003a 	cmpeq	r2,r2,zero
   81dd4:	1000051e 	bne	r2,zero,81dec <get_home_directory_cluster_for_file+0x3a8>
                                {
                                    new_cluster = file_record->start_cluster_index;                                   
   81dd8:	e0bffe17 	ldw	r2,-8(fp)
   81ddc:	1080058b 	ldhu	r2,22(r2)
   81de0:	10bfffcc 	andi	r2,r2,65535
   81de4:	e0bff115 	stw	r2,-60(fp)
                                    break;
   81de8:	00000606 	br	81e04 <get_home_directory_cluster_for_file+0x3c0>
                {
                    if (Read_Sector_Data(sector_index + start_sector, fat_partition_offset_in_512_byte_sectors))
                    {
                        int file_counter;
                        
                        for (file_counter = 0; file_counter < 16; file_counter++)
   81dec:	e0bfe917 	ldw	r2,-92(fp)
   81df0:	10800044 	addi	r2,r2,1
   81df4:	e0bfe915 	stw	r2,-92(fp)
   81df8:	e0bfe917 	ldw	r2,-92(fp)
   81dfc:	10800410 	cmplti	r2,r2,16
   81e00:	103fdd1e 	bne	r2,zero,81d78 <get_home_directory_cluster_for_file+0x334>
                    }
                    else
                    {
                        break;
                    }
                    if (new_cluster != home_dir_cluster)
   81e04:	e0fff117 	ldw	r3,-60(fp)
   81e08:	e0bff617 	ldw	r2,-40(fp)
   81e0c:	1880091e 	bne	r3,r2,81e34 <get_home_directory_cluster_for_file+0x3f0>
            
            do {
                int start_sector = ( cluster - 2 ) * ( boot_sector_data.sectors_per_cluster ) + boot_sector_data.data_sector_offset;
                int sector_index;
                
                for (sector_index = 0; sector_index < boot_sector_data.sectors_per_cluster; sector_index++)
   81e10:	e0bfea17 	ldw	r2,-88(fp)
   81e14:	10800044 	addi	r2,r2,1
   81e18:	e0bfea15 	stw	r2,-88(fp)
   81e1c:	008002b4 	movhi	r2,10
   81e20:	108e6a04 	addi	r2,r2,14760
   81e24:	10800383 	ldbu	r2,14(r2)
   81e28:	10c03fcc 	andi	r3,r2,255
   81e2c:	e0bfea17 	ldw	r2,-88(fp)
   81e30:	10ffc816 	blt	r2,r3,81d54 <get_home_directory_cluster_for_file+0x310>
                        break;
                    }
                }
                // If this is the end of the cluster and the directory has not been found, then see if there is another cluster
                // that holds data for the current directory.
                if (new_cluster == home_dir_cluster)
   81e34:	e0fff117 	ldw	r3,-60(fp)
   81e38:	e0bff617 	ldw	r2,-40(fp)
   81e3c:	1880131e 	bne	r3,r2,81e8c <get_home_directory_cluster_for_file+0x448>
                {
					unsigned short int next_cluster;

					if (get_cluster_flag(new_cluster, &next_cluster))
   81e40:	e13ff117 	ldw	r4,-60(fp)
   81e44:	e17ffb04 	addi	r5,fp,-20
   81e48:	008062c0 	call	8062c <get_cluster_flag>
   81e4c:	1005003a 	cmpeq	r2,r2,zero
   81e50:	10000c1e 	bne	r2,zero,81e84 <get_home_directory_cluster_for_file+0x440>
					{
						// The directory needs to be expanded to store more files.
						if ((next_cluster & 0x0000fff8) == 0x0000fff8)
   81e54:	e0bffb0b 	ldhu	r2,-20(fp)
   81e58:	10bfffcc 	andi	r2,r2,65535
   81e5c:	10fffe0c 	andi	r3,r2,65528
   81e60:	00bffe14 	movui	r2,65528
   81e64:	1880021e 	bne	r3,r2,81e70 <get_home_directory_cluster_for_file+0x42c>
						{
							return false;
   81e68:	e03fff15 	stw	zero,-4(fp)
   81e6c:	00003406 	br	81f40 <get_home_directory_cluster_for_file+0x4fc>
						}
						new_cluster = (next_cluster & 0x0000fff8);
   81e70:	e0bffb0b 	ldhu	r2,-20(fp)
   81e74:	10bfffcc 	andi	r2,r2,65535
   81e78:	10bffe0c 	andi	r2,r2,65528
   81e7c:	e0bff115 	stw	r2,-60(fp)
   81e80:	00000206 	br	81e8c <get_home_directory_cluster_for_file+0x448>
					}
					else
					{
						// Directory path is invalid.                 
						return false;
   81e84:	e03fff15 	stw	zero,-4(fp)
   81e88:	00002d06 	br	81f40 <get_home_directory_cluster_for_file+0x4fc>
					}
                }              
            } while ((cluster < 0x0000fff8) && (new_cluster == home_dir_cluster));
   81e8c:	e0ffec17 	ldw	r3,-80(fp)
   81e90:	00bffdd4 	movui	r2,65527
   81e94:	10c00316 	blt	r2,r3,81ea4 <get_home_directory_cluster_for_file+0x460>
   81e98:	e0fff117 	ldw	r3,-60(fp)
   81e9c:	e0bff617 	ldw	r2,-40(fp)
   81ea0:	18bf9d26 	beq	r3,r2,81d18 <get_home_directory_cluster_for_file+0x2d4>
            if (new_cluster != home_dir_cluster)
   81ea4:	e0fff117 	ldw	r3,-60(fp)
   81ea8:	e0bff617 	ldw	r2,-40(fp)
   81eac:	18800826 	beq	r3,r2,81ed0 <get_home_directory_cluster_for_file+0x48c>
            {
                // A valid directory is found, so go to it.
                home_dir_cluster = new_cluster;
   81eb0:	e0bff117 	ldw	r2,-60(fp)
   81eb4:	e0bff615 	stw	r2,-40(fp)
                start_location = start_location+location+1;
   81eb8:	e0fff317 	ldw	r3,-52(fp)
   81ebc:	e0bff517 	ldw	r2,-44(fp)
   81ec0:	1885883a 	add	r2,r3,r2
   81ec4:	10800044 	addi	r2,r2,1
   81ec8:	e0bff315 	stw	r2,-52(fp)
   81ecc:	00000206 	br	81ed8 <get_home_directory_cluster_for_file+0x494>
            }
            else
            {
                // Directory path is invalid. 
                return false;
   81ed0:	e03fff15 	stw	zero,-4(fp)
   81ed4:	00001a06 	br	81f40 <get_home_directory_cluster_for_file+0x4fc>
            }            
        }
        location = get_dir_divider_location(&(file_name[start_location]));
   81ed8:	e0bff317 	ldw	r2,-52(fp)
   81edc:	1007883a 	mov	r3,r2
   81ee0:	e0bffc17 	ldw	r2,-16(fp)
   81ee4:	1889883a 	add	r4,r3,r2
   81ee8:	00816980 	call	81698 <get_dir_divider_location>
   81eec:	e0bff515 	stw	r2,-44(fp)
        if (location < 0)
   81ef0:	e0bff517 	ldw	r2,-44(fp)
   81ef4:	1004403a 	cmpge	r2,r2,zero
   81ef8:	1000021e 	bne	r2,zero,81f04 <get_home_directory_cluster_for_file+0x4c0>
        {
            // Directory has been located.
            result = true;
   81efc:	00800044 	movi	r2,1
   81f00:	e0bff715 	stw	r2,-36(fp)
    int location, index;
    int start_location = 0;
    
    /* Get Next Directory. */
    location = get_dir_divider_location( file_name );
    while (location > 0)
   81f04:	e0bff517 	ldw	r2,-44(fp)
   81f08:	10800048 	cmpgei	r2,r2,1
   81f0c:	103edb1e 	bne	r2,zero,81a7c <get_home_directory_cluster_for_file+0x38>
            // Directory has been located.
            result = true;
        }
    }
    
    *home_directory_cluster = home_dir_cluster;
   81f10:	e0fffd17 	ldw	r3,-12(fp)
   81f14:	e0bff617 	ldw	r2,-40(fp)
   81f18:	18800015 	stw	r2,0(r3)
    if (home_dir_cluster == 0)
   81f1c:	e0bff617 	ldw	r2,-40(fp)
   81f20:	1004c03a 	cmpne	r2,r2,zero
   81f24:	1000041e 	bne	r2,zero,81f38 <get_home_directory_cluster_for_file+0x4f4>
    {
        file_record->file_record_cluster = 0; // Home directory is the root directory.
   81f28:	e0bffe17 	ldw	r2,-8(fp)
   81f2c:	10000a15 	stw	zero,40(r2)
		result = true;
   81f30:	00800044 	movi	r2,1
   81f34:	e0bff715 	stw	r2,-36(fp)
    }
    return result;
   81f38:	e0bff717 	ldw	r2,-36(fp)
   81f3c:	e0bfff15 	stw	r2,-4(fp)
   81f40:	e0bfff17 	ldw	r2,-4(fp)
}
   81f44:	e037883a 	mov	sp,fp
   81f48:	dfc00117 	ldw	ra,4(sp)
   81f4c:	df000017 	ldw	fp,0(sp)
   81f50:	dec00204 	addi	sp,sp,8
   81f54:	f800283a 	ret

00081f58 <find_file_in_directory>:


bool find_file_in_directory(int directory_start_cluster, char *file_name, t_file_record *file_record)
// Given a cluster and a file name, check if the file already exists. Return the file record if the file is found.
{
   81f58:	deffe704 	addi	sp,sp,-100
   81f5c:	dfc01815 	stw	ra,96(sp)
   81f60:	df001715 	stw	fp,92(sp)
   81f64:	df001704 	addi	fp,sp,92
   81f68:	e13ffc15 	stw	r4,-16(fp)
   81f6c:	e17ffd15 	stw	r5,-12(fp)
   81f70:	e1bffe15 	stw	r6,-8(fp)
    int location = get_dir_divider_location( file_name );
   81f74:	e13ffd17 	ldw	r4,-12(fp)
   81f78:	00816980 	call	81698 <get_dir_divider_location>
   81f7c:	e0bff715 	stw	r2,-36(fp)
    int last_dir_separator = 0;
   81f80:	e03ff615 	stw	zero,-40(fp)
    char name[8] = { ' ', ' ', ' ', ' ', ' ', ' ', ' ', ' ' };
   81f84:	00800804 	movi	r2,32
   81f88:	e0bff805 	stb	r2,-32(fp)
   81f8c:	00800804 	movi	r2,32
   81f90:	e0bff845 	stb	r2,-31(fp)
   81f94:	00800804 	movi	r2,32
   81f98:	e0bff885 	stb	r2,-30(fp)
   81f9c:	00800804 	movi	r2,32
   81fa0:	e0bff8c5 	stb	r2,-29(fp)
   81fa4:	00800804 	movi	r2,32
   81fa8:	e0bff905 	stb	r2,-28(fp)
   81fac:	00800804 	movi	r2,32
   81fb0:	e0bff945 	stb	r2,-27(fp)
   81fb4:	00800804 	movi	r2,32
   81fb8:	e0bff985 	stb	r2,-26(fp)
   81fbc:	00800804 	movi	r2,32
   81fc0:	e0bff9c5 	stb	r2,-25(fp)
    char extension[3] = { ' ', ' ', ' ' };
   81fc4:	00800804 	movi	r2,32
   81fc8:	e0bffa05 	stb	r2,-24(fp)
   81fcc:	00800804 	movi	r2,32
   81fd0:	e0bffa45 	stb	r2,-23(fp)
   81fd4:	00800804 	movi	r2,32
   81fd8:	e0bffa85 	stb	r2,-22(fp)
    int ext_index = -1;
   81fdc:	00bfffc4 	movi	r2,-1
   81fe0:	e0bff515 	stw	r2,-44(fp)
    int cluster = directory_start_cluster;
   81fe4:	e0bffc17 	ldw	r2,-16(fp)
   81fe8:	e0bff415 	stw	r2,-48(fp)
    int index;
	int length = strlen(file_name);
   81fec:	e13ffd17 	ldw	r4,-12(fp)
   81ff0:	0087b8c0 	call	87b8c <strlen>
   81ff4:	e0bff215 	stw	r2,-56(fp)
    bool result = false;
   81ff8:	e03ff115 	stw	zero,-60(fp)
    
    // Skip through all directory separators.
    while (location > 0)
   81ffc:	00000b06 	br	8202c <find_file_in_directory+0xd4>
    {
        last_dir_separator = last_dir_separator+location+1;
   82000:	e0fff617 	ldw	r3,-40(fp)
   82004:	e0bff717 	ldw	r2,-36(fp)
   82008:	1885883a 	add	r2,r3,r2
   8200c:	10800044 	addi	r2,r2,1
   82010:	e0bff615 	stw	r2,-40(fp)
        location = get_dir_divider_location( &(file_name[last_dir_separator]) );
   82014:	e0bff617 	ldw	r2,-40(fp)
   82018:	1007883a 	mov	r3,r2
   8201c:	e0bffd17 	ldw	r2,-12(fp)
   82020:	1889883a 	add	r4,r3,r2
   82024:	00816980 	call	81698 <get_dir_divider_location>
   82028:	e0bff715 	stw	r2,-36(fp)
    int index;
	int length = strlen(file_name);
    bool result = false;
    
    // Skip through all directory separators.
    while (location > 0)
   8202c:	e0bff717 	ldw	r2,-36(fp)
   82030:	10800048 	cmpgei	r2,r2,1
   82034:	103ff21e 	bne	r2,zero,82000 <find_file_in_directory+0xa8>
        last_dir_separator = last_dir_separator+location+1;
        location = get_dir_divider_location( &(file_name[last_dir_separator]) );
    }
        
    // Get the name of the file in name/extension format.
    for (index = last_dir_separator; index < length; index++)
   82038:	e0bff617 	ldw	r2,-40(fp)
   8203c:	e0bff315 	stw	r2,-52(fp)
   82040:	00002b06 	br	820f0 <find_file_in_directory+0x198>
    {
        if (file_name[index] == '.')
   82044:	e0bff317 	ldw	r2,-52(fp)
   82048:	1007883a 	mov	r3,r2
   8204c:	e0bffd17 	ldw	r2,-12(fp)
   82050:	1885883a 	add	r2,r3,r2
   82054:	10800003 	ldbu	r2,0(r2)
   82058:	10803fcc 	andi	r2,r2,255
   8205c:	1080201c 	xori	r2,r2,128
   82060:	10bfe004 	addi	r2,r2,-128
   82064:	10800b98 	cmpnei	r2,r2,46
   82068:	1000031e 	bne	r2,zero,82078 <find_file_in_directory+0x120>
        {
            ext_index = index;
   8206c:	e0bff317 	ldw	r2,-52(fp)
   82070:	e0bff515 	stw	r2,-44(fp)
   82074:	00001b06 	br	820e4 <find_file_in_directory+0x18c>
        }
        else if (ext_index < 0)
   82078:	e0bff517 	ldw	r2,-44(fp)
   8207c:	1004403a 	cmpge	r2,r2,zero
   82080:	10000c1e 	bne	r2,zero,820b4 <find_file_in_directory+0x15c>
        {
            name[index-last_dir_separator] = file_name[index];
   82084:	e0fff317 	ldw	r3,-52(fp)
   82088:	e0bff617 	ldw	r2,-40(fp)
   8208c:	1889c83a 	sub	r4,r3,r2
   82090:	e0bff317 	ldw	r2,-52(fp)
   82094:	1007883a 	mov	r3,r2
   82098:	e0bffd17 	ldw	r2,-12(fp)
   8209c:	1885883a 	add	r2,r3,r2
   820a0:	10c00003 	ldbu	r3,0(r2)
   820a4:	e0bff804 	addi	r2,fp,-32
   820a8:	1105883a 	add	r2,r2,r4
   820ac:	10c00005 	stb	r3,0(r2)
   820b0:	00000c06 	br	820e4 <find_file_in_directory+0x18c>
        }
        else
        {
            extension[index-ext_index-1] = file_name[index];
   820b4:	e0fff317 	ldw	r3,-52(fp)
   820b8:	e0bff517 	ldw	r2,-44(fp)
   820bc:	1885c83a 	sub	r2,r3,r2
   820c0:	113fffc4 	addi	r4,r2,-1
   820c4:	e0bff317 	ldw	r2,-52(fp)
   820c8:	1007883a 	mov	r3,r2
   820cc:	e0bffd17 	ldw	r2,-12(fp)
   820d0:	1885883a 	add	r2,r3,r2
   820d4:	10c00003 	ldbu	r3,0(r2)
   820d8:	e0bffa04 	addi	r2,fp,-24
   820dc:	1105883a 	add	r2,r2,r4
   820e0:	10c00005 	stb	r3,0(r2)
        last_dir_separator = last_dir_separator+location+1;
        location = get_dir_divider_location( &(file_name[last_dir_separator]) );
    }
        
    // Get the name of the file in name/extension format.
    for (index = last_dir_separator; index < length; index++)
   820e4:	e0bff317 	ldw	r2,-52(fp)
   820e8:	10800044 	addi	r2,r2,1
   820ec:	e0bff315 	stw	r2,-52(fp)
   820f0:	e0fff317 	ldw	r3,-52(fp)
   820f4:	e0bff217 	ldw	r2,-56(fp)
   820f8:	18bfd216 	blt	r3,r2,82044 <find_file_in_directory+0xec>
            extension[index-ext_index-1] = file_name[index];
        }
    }

    // Look for the file.
    if (directory_start_cluster == 0)
   820fc:	e0bffc17 	ldw	r2,-16(fp)
   82100:	1004c03a 	cmpne	r2,r2,zero
   82104:	1000441e 	bne	r2,zero,82218 <find_file_in_directory+0x2c0>
    {
        /* We are in the root directory. Scan the directory (of predefined size) and see if you can find the specified file. */
        int max_root_dir_sectors = ((32*boot_sector_data.max_number_of_dir_entires) / boot_sector_data.sector_size_in_bytes);
   82108:	008002b4 	movhi	r2,10
   8210c:	108e6a04 	addi	r2,r2,14760
   82110:	1080050b 	ldhu	r2,20(r2)
   82114:	10bfffcc 	andi	r2,r2,65535
   82118:	1008917a 	slli	r4,r2,5
   8211c:	008002b4 	movhi	r2,10
   82120:	108e6a04 	addi	r2,r2,14760
   82124:	1080030b 	ldhu	r2,12(r2)
   82128:	117fffcc 	andi	r5,r2,65535
   8212c:	00877140 	call	87714 <__divsi3>
   82130:	e0bff015 	stw	r2,-64(fp)
        int sector_index;
        
        for (sector_index = 0; sector_index < max_root_dir_sectors; sector_index++)
   82134:	e03fef15 	stw	zero,-68(fp)
   82138:	00003306 	br	82208 <find_file_in_directory+0x2b0>
        {
            if (Read_Sector_Data(   sector_index + boot_sector_data.root_directory_sector_offset,
   8213c:	008002b4 	movhi	r2,10
   82140:	108e6a04 	addi	r2,r2,14760
   82144:	10c01317 	ldw	r3,76(r2)
   82148:	e0bfef17 	ldw	r2,-68(fp)
   8214c:	1885883a 	add	r2,r3,r2
   82150:	1009883a 	mov	r4,r2
   82154:	d1670717 	ldw	r5,-25572(gp)
   82158:	008053c0 	call	8053c <Read_Sector_Data>
   8215c:	1005003a 	cmpeq	r2,r2,zero
   82160:	10008e1e 	bne	r2,zero,8239c <find_file_in_directory+0x444>
                                    fat_partition_offset_in_512_byte_sectors))
            {
                int file_counter;
                
                for (file_counter = 0; file_counter < 16; file_counter++)
   82164:	e03fee15 	stw	zero,-72(fp)
   82168:	00001e06 	br	821e4 <find_file_in_directory+0x28c>
                {
                    // Read file record.
                    Read_File_Record_At_Offset(file_counter*32, file_record, 0, sector_index);
   8216c:	e0bfee17 	ldw	r2,-72(fp)
   82170:	1008917a 	slli	r4,r2,5
   82174:	e1ffef17 	ldw	r7,-68(fp)
   82178:	e17ffe17 	ldw	r5,-8(fp)
   8217c:	000d883a 	mov	r6,zero
   82180:	00809000 	call	80900 <Read_File_Record_At_Offset>
                    if ((file_record->name[0] != 0xe5) && (file_record->name[0] != 0x00))
   82184:	e0bffe17 	ldw	r2,-8(fp)
   82188:	10800003 	ldbu	r2,0(r2)
   8218c:	10803fcc 	andi	r2,r2,255
   82190:	10803960 	cmpeqi	r2,r2,229
   82194:	1000101e 	bne	r2,zero,821d8 <find_file_in_directory+0x280>
   82198:	e0bffe17 	ldw	r2,-8(fp)
   8219c:	10800003 	ldbu	r2,0(r2)
   821a0:	10803fcc 	andi	r2,r2,255
   821a4:	1005003a 	cmpeq	r2,r2,zero
   821a8:	10000b1e 	bne	r2,zero,821d8 <find_file_in_directory+0x280>
                    {
                        bool match = match_file_record_to_name_ext(file_record, name, extension);
   821ac:	e17ff804 	addi	r5,fp,-32
   821b0:	e1bffa04 	addi	r6,fp,-24
   821b4:	e13ffe17 	ldw	r4,-8(fp)
   821b8:	00817580 	call	81758 <match_file_record_to_name_ext>
   821bc:	e0bfed15 	stw	r2,-76(fp)

                        if (match)
   821c0:	e0bfed17 	ldw	r2,-76(fp)
   821c4:	1005003a 	cmpeq	r2,r2,zero
   821c8:	1000031e 	bne	r2,zero,821d8 <find_file_in_directory+0x280>
                        {
                            result = true;
   821cc:	00800044 	movi	r2,1
   821d0:	e0bff115 	stw	r2,-60(fp)
                            break;
   821d4:	00000606 	br	821f0 <find_file_in_directory+0x298>
            if (Read_Sector_Data(   sector_index + boot_sector_data.root_directory_sector_offset,
                                    fat_partition_offset_in_512_byte_sectors))
            {
                int file_counter;
                
                for (file_counter = 0; file_counter < 16; file_counter++)
   821d8:	e0bfee17 	ldw	r2,-72(fp)
   821dc:	10800044 	addi	r2,r2,1
   821e0:	e0bfee15 	stw	r2,-72(fp)
   821e4:	e0bfee17 	ldw	r2,-72(fp)
   821e8:	10800410 	cmplti	r2,r2,16
   821ec:	103fdf1e 	bne	r2,zero,8216c <find_file_in_directory+0x214>
            }
            else
            {
                break;
            }
            if (result)
   821f0:	e0bff117 	ldw	r2,-60(fp)
   821f4:	1004c03a 	cmpne	r2,r2,zero
   821f8:	1000681e 	bne	r2,zero,8239c <find_file_in_directory+0x444>
    {
        /* We are in the root directory. Scan the directory (of predefined size) and see if you can find the specified file. */
        int max_root_dir_sectors = ((32*boot_sector_data.max_number_of_dir_entires) / boot_sector_data.sector_size_in_bytes);
        int sector_index;
        
        for (sector_index = 0; sector_index < max_root_dir_sectors; sector_index++)
   821fc:	e0bfef17 	ldw	r2,-68(fp)
   82200:	10800044 	addi	r2,r2,1
   82204:	e0bfef15 	stw	r2,-68(fp)
   82208:	e0ffef17 	ldw	r3,-68(fp)
   8220c:	e0bff017 	ldw	r2,-64(fp)
   82210:	18bfca16 	blt	r3,r2,8213c <find_file_in_directory+0x1e4>
   82214:	00006106 	br	8239c <find_file_in_directory+0x444>
        }
    }
    else
    {          
        do {
            int start_sector = ( cluster - 2 ) * ( boot_sector_data.sectors_per_cluster ) + boot_sector_data.data_sector_offset;
   82218:	e0bff417 	ldw	r2,-48(fp)
   8221c:	113fff84 	addi	r4,r2,-2
   82220:	008002b4 	movhi	r2,10
   82224:	108e6a04 	addi	r2,r2,14760
   82228:	10800383 	ldbu	r2,14(r2)
   8222c:	11403fcc 	andi	r5,r2,255
   82230:	00877e40 	call	877e4 <__mulsi3>
   82234:	1007883a 	mov	r3,r2
   82238:	008002b4 	movhi	r2,10
   8223c:	108e6a04 	addi	r2,r2,14760
   82240:	10801417 	ldw	r2,80(r2)
   82244:	1885883a 	add	r2,r3,r2
   82248:	e0bfec15 	stw	r2,-80(fp)
            int sector_index;
            
            for (sector_index = 0; sector_index < boot_sector_data.sectors_per_cluster; sector_index++)
   8224c:	e03feb15 	stw	zero,-84(fp)
   82250:	00003006 	br	82314 <find_file_in_directory+0x3bc>
            {
                if (Read_Sector_Data(sector_index + start_sector, fat_partition_offset_in_512_byte_sectors))
   82254:	e0ffeb17 	ldw	r3,-84(fp)
   82258:	e0bfec17 	ldw	r2,-80(fp)
   8225c:	1889883a 	add	r4,r3,r2
   82260:	d1670717 	ldw	r5,-25572(gp)
   82264:	008053c0 	call	8053c <Read_Sector_Data>
   82268:	1005003a 	cmpeq	r2,r2,zero
   8226c:	10002f1e 	bne	r2,zero,8232c <find_file_in_directory+0x3d4>
                {
                    int file_counter;
                    
                    for (file_counter = 0; file_counter < 16; file_counter++)
   82270:	e03fea15 	stw	zero,-88(fp)
   82274:	00001e06 	br	822f0 <find_file_in_directory+0x398>
                    {
                        // Read file record.
                        Read_File_Record_At_Offset(file_counter*32, file_record, cluster, sector_index);
   82278:	e0bfea17 	ldw	r2,-88(fp)
   8227c:	1008917a 	slli	r4,r2,5
   82280:	e1bff417 	ldw	r6,-48(fp)
   82284:	e1ffeb17 	ldw	r7,-84(fp)
   82288:	e17ffe17 	ldw	r5,-8(fp)
   8228c:	00809000 	call	80900 <Read_File_Record_At_Offset>
                        if ((file_record->name[0] != 0xe5) && (file_record->name[0] != 0x00))
   82290:	e0bffe17 	ldw	r2,-8(fp)
   82294:	10800003 	ldbu	r2,0(r2)
   82298:	10803fcc 	andi	r2,r2,255
   8229c:	10803960 	cmpeqi	r2,r2,229
   822a0:	1000101e 	bne	r2,zero,822e4 <find_file_in_directory+0x38c>
   822a4:	e0bffe17 	ldw	r2,-8(fp)
   822a8:	10800003 	ldbu	r2,0(r2)
   822ac:	10803fcc 	andi	r2,r2,255
   822b0:	1005003a 	cmpeq	r2,r2,zero
   822b4:	10000b1e 	bne	r2,zero,822e4 <find_file_in_directory+0x38c>
                        {
                            bool match = match_file_record_to_name_ext(file_record, name, extension);
   822b8:	e17ff804 	addi	r5,fp,-32
   822bc:	e1bffa04 	addi	r6,fp,-24
   822c0:	e13ffe17 	ldw	r4,-8(fp)
   822c4:	00817580 	call	81758 <match_file_record_to_name_ext>
   822c8:	e0bfe915 	stw	r2,-92(fp)

                            if (match)
   822cc:	e0bfe917 	ldw	r2,-92(fp)
   822d0:	1005003a 	cmpeq	r2,r2,zero
   822d4:	1000031e 	bne	r2,zero,822e4 <find_file_in_directory+0x38c>
                            {                               
                                result = true;
   822d8:	00800044 	movi	r2,1
   822dc:	e0bff115 	stw	r2,-60(fp)
                                break;
   822e0:	00000606 	br	822fc <find_file_in_directory+0x3a4>
            {
                if (Read_Sector_Data(sector_index + start_sector, fat_partition_offset_in_512_byte_sectors))
                {
                    int file_counter;
                    
                    for (file_counter = 0; file_counter < 16; file_counter++)
   822e4:	e0bfea17 	ldw	r2,-88(fp)
   822e8:	10800044 	addi	r2,r2,1
   822ec:	e0bfea15 	stw	r2,-88(fp)
   822f0:	e0bfea17 	ldw	r2,-88(fp)
   822f4:	10800410 	cmplti	r2,r2,16
   822f8:	103fdf1e 	bne	r2,zero,82278 <find_file_in_directory+0x320>
                }
                else
                {
                    break;
                }
                if (result)
   822fc:	e0bff117 	ldw	r2,-60(fp)
   82300:	1004c03a 	cmpne	r2,r2,zero
   82304:	1000091e 	bne	r2,zero,8232c <find_file_in_directory+0x3d4>
    {          
        do {
            int start_sector = ( cluster - 2 ) * ( boot_sector_data.sectors_per_cluster ) + boot_sector_data.data_sector_offset;
            int sector_index;
            
            for (sector_index = 0; sector_index < boot_sector_data.sectors_per_cluster; sector_index++)
   82308:	e0bfeb17 	ldw	r2,-84(fp)
   8230c:	10800044 	addi	r2,r2,1
   82310:	e0bfeb15 	stw	r2,-84(fp)
   82314:	008002b4 	movhi	r2,10
   82318:	108e6a04 	addi	r2,r2,14760
   8231c:	10800383 	ldbu	r2,14(r2)
   82320:	10c03fcc 	andi	r3,r2,255
   82324:	e0bfeb17 	ldw	r2,-84(fp)
   82328:	10ffca16 	blt	r2,r3,82254 <find_file_in_directory+0x2fc>
                    break;
                }
            }
            // If this is the end of the cluster and the file has not been found, then see if there is another cluster
            // that holds data for the current directory.
            if (result == false)
   8232c:	e0bff117 	ldw	r2,-60(fp)
   82330:	1004c03a 	cmpne	r2,r2,zero
   82334:	1000131e 	bne	r2,zero,82384 <find_file_in_directory+0x42c>
            {
				unsigned short int new_cluster;

				if (get_cluster_flag(cluster, &new_cluster))
   82338:	e13ff417 	ldw	r4,-48(fp)
   8233c:	e17ffb04 	addi	r5,fp,-20
   82340:	008062c0 	call	8062c <get_cluster_flag>
   82344:	1005003a 	cmpeq	r2,r2,zero
   82348:	10000c1e 	bne	r2,zero,8237c <find_file_in_directory+0x424>
				{
					// The directory needs to be expanded to store more files.
					if ((new_cluster & 0x0000fff8) == 0x0000fff8)
   8234c:	e0bffb0b 	ldhu	r2,-20(fp)
   82350:	10bfffcc 	andi	r2,r2,65535
   82354:	10fffe0c 	andi	r3,r2,65528
   82358:	00bffe14 	movui	r2,65528
   8235c:	1880021e 	bne	r3,r2,82368 <find_file_in_directory+0x410>
					{
						return false;
   82360:	e03fff15 	stw	zero,-4(fp)
   82364:	00000f06 	br	823a4 <find_file_in_directory+0x44c>
					}
					cluster = (new_cluster & 0x0000fff8);
   82368:	e0bffb0b 	ldhu	r2,-20(fp)
   8236c:	10bfffcc 	andi	r2,r2,65535
   82370:	10bffe0c 	andi	r2,r2,65528
   82374:	e0bff415 	stw	r2,-48(fp)
   82378:	00000206 	br	82384 <find_file_in_directory+0x42c>
				}
				else
                {
                    // Directory path is invalid.                 
                    return false;
   8237c:	e03fff15 	stw	zero,-4(fp)
   82380:	00000806 	br	823a4 <find_file_in_directory+0x44c>
                }
            }              
        } while ((cluster < 0x0000fff8) && (result == false));
   82384:	e0fff417 	ldw	r3,-48(fp)
   82388:	00bffdd4 	movui	r2,65527
   8238c:	10c00316 	blt	r2,r3,8239c <find_file_in_directory+0x444>
   82390:	e0bff117 	ldw	r2,-60(fp)
   82394:	1005003a 	cmpeq	r2,r2,zero
   82398:	103f9f1e 	bne	r2,zero,82218 <find_file_in_directory+0x2c0>
    }
    
    return result;   
   8239c:	e0bff117 	ldw	r2,-60(fp)
   823a0:	e0bfff15 	stw	r2,-4(fp)
   823a4:	e0bfff17 	ldw	r2,-4(fp)
}
   823a8:	e037883a 	mov	sp,fp
   823ac:	dfc00117 	ldw	ra,4(sp)
   823b0:	df000017 	ldw	fp,0(sp)
   823b4:	dec00204 	addi	sp,sp,8
   823b8:	f800283a 	ret

000823bc <find_first_empty_cluster>:


bool find_first_empty_cluster(unsigned int *cluster_number)
// Find the first empty cluster. It will be marked by a 0 entry in the File Allocation Table.
{
   823bc:	defff504 	addi	sp,sp,-44
   823c0:	dfc00a15 	stw	ra,40(sp)
   823c4:	df000915 	stw	fp,36(sp)
   823c8:	df000904 	addi	fp,sp,36
   823cc:	e13fff15 	stw	r4,-4(fp)
    unsigned int sector = boot_sector_data.first_fat_sector_offset;
   823d0:	008002b4 	movhi	r2,10
   823d4:	108e6a04 	addi	r2,r2,14760
   823d8:	10801117 	ldw	r2,68(r2)
   823dc:	e0bffe15 	stw	r2,-8(fp)
    unsigned int cluster_index = 2;
   823e0:	00800084 	movi	r2,2
   823e4:	e0bffd15 	stw	r2,-12(fp)
    short int cluster = -1;
   823e8:	00bfffc4 	movi	r2,-1
   823ec:	e0bffc0d 	sth	r2,-16(fp)
    bool result = false;
   823f0:	e03ffb15 	stw	zero,-20(fp)
	unsigned max_cluster_index = 0;
   823f4:	e03ffa15 	stw	zero,-24(fp)
	unsigned int non_data_sectors = boot_sector_data.data_sector_offset;
   823f8:	008002b4 	movhi	r2,10
   823fc:	108e6a04 	addi	r2,r2,14760
   82400:	10801417 	ldw	r2,80(r2)
   82404:	e0bff915 	stw	r2,-28(fp)
	unsigned int less_than_32 = boot_sector_data.number_of_sectors_in_partition;
   82408:	008002b4 	movhi	r2,10
   8240c:	108e6a04 	addi	r2,r2,14760
   82410:	1080058b 	ldhu	r2,22(r2)
   82414:	10bfffcc 	andi	r2,r2,65535
   82418:	e0bff815 	stw	r2,-32(fp)
	unsigned int greater_than_32 = boot_sector_data.total_sector_count_if_above_32MB;
   8241c:	008002b4 	movhi	r2,10
   82420:	108e6a04 	addi	r2,r2,14760
   82424:	10800917 	ldw	r2,36(r2)
   82428:	e0bff715 	stw	r2,-36(fp)

	if (less_than_32 > greater_than_32)
   8242c:	e0fff817 	ldw	r3,-32(fp)
   82430:	e0bff717 	ldw	r2,-36(fp)
   82434:	10c00b2e 	bgeu	r2,r3,82464 <find_first_empty_cluster+0xa8>
	{
		max_cluster_index = ((less_than_32 - non_data_sectors) / boot_sector_data.sectors_per_cluster) + 1;
   82438:	e0fff817 	ldw	r3,-32(fp)
   8243c:	e0bff917 	ldw	r2,-28(fp)
   82440:	1889c83a 	sub	r4,r3,r2
   82444:	008002b4 	movhi	r2,10
   82448:	108e6a04 	addi	r2,r2,14760
   8244c:	10800383 	ldbu	r2,14(r2)
   82450:	11403fcc 	andi	r5,r2,255
   82454:	00877d40 	call	877d4 <__udivsi3>
   82458:	10800044 	addi	r2,r2,1
   8245c:	e0bffa15 	stw	r2,-24(fp)
   82460:	00002506 	br	824f8 <find_first_empty_cluster+0x13c>
	}
	else
	{
		max_cluster_index = ((greater_than_32 - non_data_sectors) / boot_sector_data.sectors_per_cluster) + 1;
   82464:	e0fff717 	ldw	r3,-36(fp)
   82468:	e0bff917 	ldw	r2,-28(fp)
   8246c:	1889c83a 	sub	r4,r3,r2
   82470:	008002b4 	movhi	r2,10
   82474:	108e6a04 	addi	r2,r2,14760
   82478:	10800383 	ldbu	r2,14(r2)
   8247c:	11403fcc 	andi	r5,r2,255
   82480:	00877d40 	call	877d4 <__udivsi3>
   82484:	10800044 	addi	r2,r2,1
   82488:	e0bffa15 	stw	r2,-24(fp)
	}
    // Find an empty cluster for the file.
    while (sector != boot_sector_data.second_fat_sector_offset)
   8248c:	00001a06 	br	824f8 <find_first_empty_cluster+0x13c>
    {
        if (Read_Sector_Data( sector, fat_partition_offset_in_512_byte_sectors))
   82490:	e13ffe17 	ldw	r4,-8(fp)
   82494:	d1670717 	ldw	r5,-25572(gp)
   82498:	008053c0 	call	8053c <Read_Sector_Data>
   8249c:	1005003a 	cmpeq	r2,r2,zero
   824a0:	10000f1e 	bne	r2,zero,824e0 <find_first_empty_cluster+0x124>
        {
            do {
                cluster = (*((volatile unsigned short int *)SD_CARD_BUFFER(SD_CARD_0_BASE, 2*(cluster_index % 256))));
   824a4:	e0bffd17 	ldw	r2,-12(fp)
   824a8:	10803fcc 	andi	r2,r2,255
   824ac:	1085883a 	add	r2,r2,r2
   824b0:	1080000b 	ldhu	r2,0(r2)
   824b4:	e0bffc0d 	sth	r2,-16(fp)
                if (cluster == 0)
   824b8:	e0bffc0f 	ldh	r2,-16(fp)
   824bc:	1005003a 	cmpeq	r2,r2,zero
   824c0:	1000071e 	bne	r2,zero,824e0 <find_first_empty_cluster+0x124>
                    // Free cluster found.
                    break;
                }
                else
                {
                    cluster_index++;
   824c4:	e0bffd17 	ldw	r2,-12(fp)
   824c8:	10800044 	addi	r2,r2,1
   824cc:	e0bffd15 	stw	r2,-12(fp)
                } 
            } while ((cluster_index % 256) != 0);
   824d0:	e0bffd17 	ldw	r2,-12(fp)
   824d4:	10803fcc 	andi	r2,r2,255
   824d8:	1004c03a 	cmpne	r2,r2,zero
   824dc:	103ff11e 	bne	r2,zero,824a4 <find_first_empty_cluster+0xe8>
        }
        if (cluster == 0)
   824e0:	e0bffc0f 	ldh	r2,-16(fp)
   824e4:	1005003a 	cmpeq	r2,r2,zero
   824e8:	1000081e 	bne	r2,zero,8250c <find_first_empty_cluster+0x150>
        {
            break;
        }
        sector++;
   824ec:	e0bffe17 	ldw	r2,-8(fp)
   824f0:	10800044 	addi	r2,r2,1
   824f4:	e0bffe15 	stw	r2,-8(fp)
	else
	{
		max_cluster_index = ((greater_than_32 - non_data_sectors) / boot_sector_data.sectors_per_cluster) + 1;
	}
    // Find an empty cluster for the file.
    while (sector != boot_sector_data.second_fat_sector_offset)
   824f8:	008002b4 	movhi	r2,10
   824fc:	108e6a04 	addi	r2,r2,14760
   82500:	10c01217 	ldw	r3,72(r2)
   82504:	e0bffe17 	ldw	r2,-8(fp)
   82508:	18bfe11e 	bne	r3,r2,82490 <find_first_empty_cluster+0xd4>
        {
            break;
        }
        sector++;
    }
    if ((cluster == 0) && (cluster <= max_cluster_index))
   8250c:	e0bffc0f 	ldh	r2,-16(fp)
   82510:	1004c03a 	cmpne	r2,r2,zero
   82514:	1000081e 	bne	r2,zero,82538 <find_first_empty_cluster+0x17c>
   82518:	e0fffc0f 	ldh	r3,-16(fp)
   8251c:	e0bffa17 	ldw	r2,-24(fp)
   82520:	10c00536 	bltu	r2,r3,82538 <find_first_empty_cluster+0x17c>
    {
        *cluster_number = cluster_index;
   82524:	e0bfff17 	ldw	r2,-4(fp)
   82528:	e0fffd17 	ldw	r3,-12(fp)
   8252c:	10c00015 	stw	r3,0(r2)
		result = true;
   82530:	00800044 	movi	r2,1
   82534:	e0bffb15 	stw	r2,-20(fp)
    }
    return result;
   82538:	e0bffb17 	ldw	r2,-20(fp)
}
   8253c:	e037883a 	mov	sp,fp
   82540:	dfc00117 	ldw	ra,4(sp)
   82544:	df000017 	ldw	fp,0(sp)
   82548:	dec00204 	addi	sp,sp,8
   8254c:	f800283a 	ret

00082550 <find_first_empty_record_in_a_subdirectory>:


int find_first_empty_record_in_a_subdirectory(int start_cluster_index)
// Search for a free spot in a subdirectory. Return an encoded location for the file record.
{
   82550:	defff404 	addi	sp,sp,-48
   82554:	dfc00b15 	stw	ra,44(sp)
   82558:	df000a15 	stw	fp,40(sp)
   8255c:	df000a04 	addi	fp,sp,40
   82560:	e13ffe15 	stw	r4,-8(fp)
    int result = -1;
   82564:	00bfffc4 	movi	r2,-1
   82568:	e0bffb15 	stw	r2,-20(fp)
    int cluster = start_cluster_index;
   8256c:	e0bffe17 	ldw	r2,-8(fp)
   82570:	e0bffa15 	stw	r2,-24(fp)
    do {
        int start_sector = ( cluster - 2 ) * ( boot_sector_data.sectors_per_cluster ) + boot_sector_data.data_sector_offset;
   82574:	e0bffa17 	ldw	r2,-24(fp)
   82578:	113fff84 	addi	r4,r2,-2
   8257c:	008002b4 	movhi	r2,10
   82580:	108e6a04 	addi	r2,r2,14760
   82584:	10800383 	ldbu	r2,14(r2)
   82588:	11403fcc 	andi	r5,r2,255
   8258c:	00877e40 	call	877e4 <__mulsi3>
   82590:	1007883a 	mov	r3,r2
   82594:	008002b4 	movhi	r2,10
   82598:	108e6a04 	addi	r2,r2,14760
   8259c:	10801417 	ldw	r2,80(r2)
   825a0:	1885883a 	add	r2,r3,r2
   825a4:	e0bff915 	stw	r2,-28(fp)
        int sector_index;
        
        for (sector_index = 0; sector_index < boot_sector_data.sectors_per_cluster; sector_index++)
   825a8:	e03ff815 	stw	zero,-32(fp)
   825ac:	00002806 	br	82650 <find_first_empty_record_in_a_subdirectory+0x100>
        {
            if (Read_Sector_Data(sector_index + start_sector, fat_partition_offset_in_512_byte_sectors))
   825b0:	e0fff817 	ldw	r3,-32(fp)
   825b4:	e0bff917 	ldw	r2,-28(fp)
   825b8:	1889883a 	add	r4,r3,r2
   825bc:	d1670717 	ldw	r5,-25572(gp)
   825c0:	008053c0 	call	8053c <Read_Sector_Data>
   825c4:	1005003a 	cmpeq	r2,r2,zero
   825c8:	1000271e 	bne	r2,zero,82668 <find_first_empty_record_in_a_subdirectory+0x118>
            {
                int file_counter;
                
                for (file_counter = 0; file_counter < 16; file_counter++)
   825cc:	e03ff715 	stw	zero,-36(fp)
   825d0:	00001906 	br	82638 <find_first_empty_record_in_a_subdirectory+0xe8>
                {
                    unsigned short int leading_char;
                    
                    // Read file record.
                    leading_char = (*((volatile unsigned char *)SD_CARD_BUFFER(SD_CARD_0_BASE, file_counter*32)));
   825d4:	e0bff717 	ldw	r2,-36(fp)
   825d8:	1004917a 	slli	r2,r2,5
   825dc:	10800003 	ldbu	r2,0(r2)
   825e0:	10803fcc 	andi	r2,r2,255
   825e4:	e0bff60d 	sth	r2,-40(fp)
                    if ((leading_char == 0x00e5) || (leading_char == 0))
   825e8:	e0bff60b 	ldhu	r2,-40(fp)
   825ec:	10803960 	cmpeqi	r2,r2,229
   825f0:	1000031e 	bne	r2,zero,82600 <find_first_empty_record_in_a_subdirectory+0xb0>
   825f4:	e0bff60b 	ldhu	r2,-40(fp)
   825f8:	1004c03a 	cmpne	r2,r2,zero
   825fc:	10000b1e 	bne	r2,zero,8262c <find_first_empty_record_in_a_subdirectory+0xdc>
                    {
                        result = (cluster) | ((sector_index*16 + file_counter) << 16);
   82600:	e0bff817 	ldw	r2,-32(fp)
   82604:	1006913a 	slli	r3,r2,4
   82608:	e0bff717 	ldw	r2,-36(fp)
   8260c:	1885883a 	add	r2,r3,r2
   82610:	1006943a 	slli	r3,r2,16
   82614:	e0bffa17 	ldw	r2,-24(fp)
   82618:	1884b03a 	or	r2,r3,r2
   8261c:	e0bffb15 	stw	r2,-20(fp)
                        return result;
   82620:	e0bffb17 	ldw	r2,-20(fp)
   82624:	e0bfff15 	stw	r2,-4(fp)
   82628:	00005206 	br	82774 <find_first_empty_record_in_a_subdirectory+0x224>
        {
            if (Read_Sector_Data(sector_index + start_sector, fat_partition_offset_in_512_byte_sectors))
            {
                int file_counter;
                
                for (file_counter = 0; file_counter < 16; file_counter++)
   8262c:	e0bff717 	ldw	r2,-36(fp)
   82630:	10800044 	addi	r2,r2,1
   82634:	e0bff715 	stw	r2,-36(fp)
   82638:	e0bff717 	ldw	r2,-36(fp)
   8263c:	10800410 	cmplti	r2,r2,16
   82640:	103fe41e 	bne	r2,zero,825d4 <find_first_empty_record_in_a_subdirectory+0x84>
    int cluster = start_cluster_index;
    do {
        int start_sector = ( cluster - 2 ) * ( boot_sector_data.sectors_per_cluster ) + boot_sector_data.data_sector_offset;
        int sector_index;
        
        for (sector_index = 0; sector_index < boot_sector_data.sectors_per_cluster; sector_index++)
   82644:	e0bff817 	ldw	r2,-32(fp)
   82648:	10800044 	addi	r2,r2,1
   8264c:	e0bff815 	stw	r2,-32(fp)
   82650:	008002b4 	movhi	r2,10
   82654:	108e6a04 	addi	r2,r2,14760
   82658:	10800383 	ldbu	r2,14(r2)
   8265c:	10c03fcc 	andi	r3,r2,255
   82660:	e0bff817 	ldw	r2,-32(fp)
   82664:	10ffd216 	blt	r2,r3,825b0 <find_first_empty_record_in_a_subdirectory+0x60>
                break;
            }
        }
        // If this is the end of the cluster and the file has not been found, then see if there is another cluster
        // that holds data for the current directory.
        if (result < 0)
   82668:	e0bffb17 	ldw	r2,-20(fp)
   8266c:	1004403a 	cmpge	r2,r2,zero
   82670:	1000381e 	bne	r2,zero,82754 <find_first_empty_record_in_a_subdirectory+0x204>
        {
			unsigned short int new_cluster;
			if (get_cluster_flag(cluster, &new_cluster))
   82674:	e13ffa17 	ldw	r4,-24(fp)
   82678:	e17ffc04 	addi	r5,fp,-16
   8267c:	008062c0 	call	8062c <get_cluster_flag>
   82680:	1005003a 	cmpeq	r2,r2,zero
   82684:	1000311e 	bne	r2,zero,8274c <find_first_empty_record_in_a_subdirectory+0x1fc>
			{
                // The directory needs to be expanded to store more files.
				if ((new_cluster & 0x0000fff8) == 0x0000fff8)
   82688:	e0bffc0b 	ldhu	r2,-16(fp)
   8268c:	10bfffcc 	andi	r2,r2,65535
   82690:	10fffe0c 	andi	r3,r2,65528
   82694:	00bffe14 	movui	r2,65528
   82698:	18802e1e 	bne	r3,r2,82754 <find_first_empty_record_in_a_subdirectory+0x204>
				{
					int new_dir_cluster; 
					if (find_first_empty_cluster(&new_dir_cluster))
   8269c:	e13ffd04 	addi	r4,fp,-12
   826a0:	00823bc0 	call	823bc <find_first_empty_cluster>
   826a4:	1005003a 	cmpeq	r2,r2,zero
   826a8:	1000231e 	bne	r2,zero,82738 <find_first_empty_record_in_a_subdirectory+0x1e8>
					{
						// Add the new cluster to the linked list of the given directory.
						if (mark_cluster(cluster, ((short int) (new_dir_cluster)), true) &&
   826ac:	e13ffa17 	ldw	r4,-24(fp)
   826b0:	e0bffd17 	ldw	r2,-12(fp)
   826b4:	117fffcc 	andi	r5,r2,65535
   826b8:	2960001c 	xori	r5,r5,32768
   826bc:	29600004 	addi	r5,r5,-32768
   826c0:	01800044 	movi	r6,1
   826c4:	00806d00 	call	806d0 <mark_cluster>
   826c8:	1005003a 	cmpeq	r2,r2,zero
   826cc:	10001a1e 	bne	r2,zero,82738 <find_first_empty_record_in_a_subdirectory+0x1e8>
   826d0:	e0bffd17 	ldw	r2,-12(fp)
   826d4:	1009883a 	mov	r4,r2
   826d8:	017fffc4 	movi	r5,-1
   826dc:	01800044 	movi	r6,1
   826e0:	00806d00 	call	806d0 <mark_cluster>
   826e4:	1005003a 	cmpeq	r2,r2,zero
   826e8:	1000131e 	bne	r2,zero,82738 <find_first_empty_record_in_a_subdirectory+0x1e8>
   826ec:	e13ffa17 	ldw	r4,-24(fp)
   826f0:	e0bffd17 	ldw	r2,-12(fp)
   826f4:	117fffcc 	andi	r5,r2,65535
   826f8:	2960001c 	xori	r5,r5,32768
   826fc:	29600004 	addi	r5,r5,-32768
   82700:	000d883a 	mov	r6,zero
   82704:	00806d00 	call	806d0 <mark_cluster>
   82708:	1005003a 	cmpeq	r2,r2,zero
   8270c:	10000a1e 	bne	r2,zero,82738 <find_first_empty_record_in_a_subdirectory+0x1e8>
   82710:	e0bffd17 	ldw	r2,-12(fp)
   82714:	1009883a 	mov	r4,r2
   82718:	017fffc4 	movi	r5,-1
   8271c:	000d883a 	mov	r6,zero
   82720:	00806d00 	call	806d0 <mark_cluster>
   82724:	1005003a 	cmpeq	r2,r2,zero
   82728:	1000031e 	bne	r2,zero,82738 <find_first_empty_record_in_a_subdirectory+0x1e8>
							mark_cluster(new_dir_cluster, ((short int) (0xffff)), true) &&
							mark_cluster(cluster, ((short int) (new_dir_cluster)), false) &&
							mark_cluster(new_dir_cluster, ((short int) (0xffff)), false))
						{
							Save_Modified_Sector();
   8272c:	00804ec0 	call	804ec <Save_Modified_Sector>
							// The new file will begin at the first entry of the directory.
							result = new_dir_cluster;                           
   82730:	e0bffd17 	ldw	r2,-12(fp)
   82734:	e0bffb15 	stw	r2,-20(fp)
						}
					}
					cluster = (new_cluster & 0x0000fff8);
   82738:	e0bffc0b 	ldhu	r2,-16(fp)
   8273c:	10bfffcc 	andi	r2,r2,65535
   82740:	10bffe0c 	andi	r2,r2,65528
   82744:	e0bffa15 	stw	r2,-24(fp)
   82748:	00000206 	br	82754 <find_first_empty_record_in_a_subdirectory+0x204>
				}
			}
			else
			{
				// Error encountered.                 
				result = -1;
   8274c:	00bfffc4 	movi	r2,-1
   82750:	e0bffb15 	stw	r2,-20(fp)
			}
        }              
    } while ((cluster < 0x0000fff8) && (result == -1)); 
   82754:	e0fffa17 	ldw	r3,-24(fp)
   82758:	00bffdd4 	movui	r2,65527
   8275c:	10c00316 	blt	r2,r3,8276c <find_first_empty_record_in_a_subdirectory+0x21c>
   82760:	e0bffb17 	ldw	r2,-20(fp)
   82764:	10bfffe0 	cmpeqi	r2,r2,-1
   82768:	103f821e 	bne	r2,zero,82574 <find_first_empty_record_in_a_subdirectory+0x24>
    return result; 
   8276c:	e0bffb17 	ldw	r2,-20(fp)
   82770:	e0bfff15 	stw	r2,-4(fp)
   82774:	e0bfff17 	ldw	r2,-4(fp)
}
   82778:	e037883a 	mov	sp,fp
   8277c:	dfc00117 	ldw	ra,4(sp)
   82780:	df000017 	ldw	fp,0(sp)
   82784:	dec00204 	addi	sp,sp,8
   82788:	f800283a 	ret

0008278c <find_first_empty_record_in_root_directory>:


int find_first_empty_record_in_root_directory()
// Find a first unused record location to use. Return -1 if none is found.
{
   8278c:	defff804 	addi	sp,sp,-32
   82790:	dfc00715 	stw	ra,28(sp)
   82794:	df000615 	stw	fp,24(sp)
   82798:	df000604 	addi	fp,sp,24
    int max_root_dir_sectors = ((32*boot_sector_data.max_number_of_dir_entires) / boot_sector_data.sector_size_in_bytes);
   8279c:	008002b4 	movhi	r2,10
   827a0:	108e6a04 	addi	r2,r2,14760
   827a4:	1080050b 	ldhu	r2,20(r2)
   827a8:	10bfffcc 	andi	r2,r2,65535
   827ac:	1008917a 	slli	r4,r2,5
   827b0:	008002b4 	movhi	r2,10
   827b4:	108e6a04 	addi	r2,r2,14760
   827b8:	1080030b 	ldhu	r2,12(r2)
   827bc:	117fffcc 	andi	r5,r2,65535
   827c0:	00877140 	call	87714 <__divsi3>
   827c4:	e0bffe15 	stw	r2,-8(fp)
    int sector_index;
    int result = -1;
   827c8:	00bfffc4 	movi	r2,-1
   827cc:	e0bffc15 	stw	r2,-16(fp)
    
    for (sector_index = 0; sector_index < max_root_dir_sectors; sector_index++)
   827d0:	e03ffd15 	stw	zero,-12(fp)
   827d4:	00002906 	br	8287c <find_first_empty_record_in_root_directory+0xf0>
    {
        if (Read_Sector_Data(   sector_index + boot_sector_data.root_directory_sector_offset,
   827d8:	008002b4 	movhi	r2,10
   827dc:	108e6a04 	addi	r2,r2,14760
   827e0:	10c01317 	ldw	r3,76(r2)
   827e4:	e0bffd17 	ldw	r2,-12(fp)
   827e8:	1885883a 	add	r2,r3,r2
   827ec:	1009883a 	mov	r4,r2
   827f0:	d1670717 	ldw	r5,-25572(gp)
   827f4:	008053c0 	call	8053c <Read_Sector_Data>
   827f8:	1005003a 	cmpeq	r2,r2,zero
   827fc:	1000221e 	bne	r2,zero,82888 <find_first_empty_record_in_root_directory+0xfc>
                                fat_partition_offset_in_512_byte_sectors))
        {
            int file_counter;
            
            for (file_counter = 0; file_counter < 16; file_counter++)
   82800:	e03ffb15 	stw	zero,-20(fp)
   82804:	00001706 	br	82864 <find_first_empty_record_in_root_directory+0xd8>
            {
                unsigned short int leading_char;
                
                // Read first character of the file record.
                leading_char = (*((volatile unsigned char *)SD_CARD_BUFFER(SD_CARD_0_BASE, file_counter*32)));
   82808:	e0bffb17 	ldw	r2,-20(fp)
   8280c:	1004917a 	slli	r2,r2,5
   82810:	10800003 	ldbu	r2,0(r2)
   82814:	10803fcc 	andi	r2,r2,255
   82818:	e0bffa0d 	sth	r2,-24(fp)
                if ((leading_char == 0x00e5) || (leading_char == 0))
   8281c:	e0bffa0b 	ldhu	r2,-24(fp)
   82820:	10803960 	cmpeqi	r2,r2,229
   82824:	1000031e 	bne	r2,zero,82834 <find_first_empty_record_in_root_directory+0xa8>
   82828:	e0bffa0b 	ldhu	r2,-24(fp)
   8282c:	1004c03a 	cmpne	r2,r2,zero
   82830:	1000091e 	bne	r2,zero,82858 <find_first_empty_record_in_root_directory+0xcc>
                {
                    result = (sector_index*16 + file_counter) << 16;
   82834:	e0bffd17 	ldw	r2,-12(fp)
   82838:	1006913a 	slli	r3,r2,4
   8283c:	e0bffb17 	ldw	r2,-20(fp)
   82840:	1885883a 	add	r2,r3,r2
   82844:	1004943a 	slli	r2,r2,16
   82848:	e0bffc15 	stw	r2,-16(fp)
                    return result;
   8284c:	e0bffc17 	ldw	r2,-16(fp)
   82850:	e0bfff15 	stw	r2,-4(fp)
   82854:	00000e06 	br	82890 <find_first_empty_record_in_root_directory+0x104>
        if (Read_Sector_Data(   sector_index + boot_sector_data.root_directory_sector_offset,
                                fat_partition_offset_in_512_byte_sectors))
        {
            int file_counter;
            
            for (file_counter = 0; file_counter < 16; file_counter++)
   82858:	e0bffb17 	ldw	r2,-20(fp)
   8285c:	10800044 	addi	r2,r2,1
   82860:	e0bffb15 	stw	r2,-20(fp)
   82864:	e0bffb17 	ldw	r2,-20(fp)
   82868:	10800410 	cmplti	r2,r2,16
   8286c:	103fe61e 	bne	r2,zero,82808 <find_first_empty_record_in_root_directory+0x7c>
{
    int max_root_dir_sectors = ((32*boot_sector_data.max_number_of_dir_entires) / boot_sector_data.sector_size_in_bytes);
    int sector_index;
    int result = -1;
    
    for (sector_index = 0; sector_index < max_root_dir_sectors; sector_index++)
   82870:	e0bffd17 	ldw	r2,-12(fp)
   82874:	10800044 	addi	r2,r2,1
   82878:	e0bffd15 	stw	r2,-12(fp)
   8287c:	e0fffd17 	ldw	r3,-12(fp)
   82880:	e0bffe17 	ldw	r2,-8(fp)
   82884:	18bfd416 	blt	r3,r2,827d8 <find_first_empty_record_in_root_directory+0x4c>
        else
        {
            break;
        }
    }
    return result;
   82888:	e0bffc17 	ldw	r2,-16(fp)
   8288c:	e0bfff15 	stw	r2,-4(fp)
   82890:	e0bfff17 	ldw	r2,-4(fp)
}
   82894:	e037883a 	mov	sp,fp
   82898:	dfc00117 	ldw	ra,4(sp)
   8289c:	df000017 	ldw	fp,0(sp)
   828a0:	dec00204 	addi	sp,sp,8
   828a4:	f800283a 	ret

000828a8 <convert_filename_to_name_extension>:

void convert_filename_to_name_extension(char *filename, char *name, char *extension)
// This function converts the file name into a name . extension format.
{
   828a8:	defffa04 	addi	sp,sp,-24
   828ac:	df000515 	stw	fp,20(sp)
   828b0:	df000504 	addi	fp,sp,20
   828b4:	e13ffd15 	stw	r4,-12(fp)
   828b8:	e17ffe15 	stw	r5,-8(fp)
   828bc:	e1bfff15 	stw	r6,-4(fp)
    int counter;
    int local = 0;
   828c0:	e03ffb15 	stw	zero,-20(fp)
    
    for(counter = 0; counter < 8; counter++)
   828c4:	e03ffc15 	stw	zero,-16(fp)
   828c8:	00002b06 	br	82978 <convert_filename_to_name_extension+0xd0>
    {
        if (filename[local] != '.')
   828cc:	e0bffb17 	ldw	r2,-20(fp)
   828d0:	1007883a 	mov	r3,r2
   828d4:	e0bffd17 	ldw	r2,-12(fp)
   828d8:	1885883a 	add	r2,r3,r2
   828dc:	10800003 	ldbu	r2,0(r2)
   828e0:	10803fcc 	andi	r2,r2,255
   828e4:	1080201c 	xori	r2,r2,128
   828e8:	10bfe004 	addi	r2,r2,-128
   828ec:	10800ba0 	cmpeqi	r2,r2,46
   828f0:	1000181e 	bne	r2,zero,82954 <convert_filename_to_name_extension+0xac>
        {
            name[counter] = filename[local];
   828f4:	e0bffc17 	ldw	r2,-16(fp)
   828f8:	1007883a 	mov	r3,r2
   828fc:	e0bffe17 	ldw	r2,-8(fp)
   82900:	1889883a 	add	r4,r3,r2
   82904:	e0bffb17 	ldw	r2,-20(fp)
   82908:	1007883a 	mov	r3,r2
   8290c:	e0bffd17 	ldw	r2,-12(fp)
   82910:	1885883a 	add	r2,r3,r2
   82914:	10800003 	ldbu	r2,0(r2)
   82918:	20800005 	stb	r2,0(r4)
            if (filename[local] != 0) local++;
   8291c:	e0bffb17 	ldw	r2,-20(fp)
   82920:	1007883a 	mov	r3,r2
   82924:	e0bffd17 	ldw	r2,-12(fp)
   82928:	1885883a 	add	r2,r3,r2
   8292c:	10800003 	ldbu	r2,0(r2)
   82930:	10803fcc 	andi	r2,r2,255
   82934:	1080201c 	xori	r2,r2,128
   82938:	10bfe004 	addi	r2,r2,-128
   8293c:	1005003a 	cmpeq	r2,r2,zero
   82940:	10000a1e 	bne	r2,zero,8296c <convert_filename_to_name_extension+0xc4>
   82944:	e0bffb17 	ldw	r2,-20(fp)
   82948:	10800044 	addi	r2,r2,1
   8294c:	e0bffb15 	stw	r2,-20(fp)
   82950:	00000606 	br	8296c <convert_filename_to_name_extension+0xc4>
        }
        else
        {
            name[counter] = ' ';
   82954:	e0bffc17 	ldw	r2,-16(fp)
   82958:	1007883a 	mov	r3,r2
   8295c:	e0bffe17 	ldw	r2,-8(fp)
   82960:	1887883a 	add	r3,r3,r2
   82964:	00800804 	movi	r2,32
   82968:	18800005 	stb	r2,0(r3)
// This function converts the file name into a name . extension format.
{
    int counter;
    int local = 0;
    
    for(counter = 0; counter < 8; counter++)
   8296c:	e0bffc17 	ldw	r2,-16(fp)
   82970:	10800044 	addi	r2,r2,1
   82974:	e0bffc15 	stw	r2,-16(fp)
   82978:	e0bffc17 	ldw	r2,-16(fp)
   8297c:	10800210 	cmplti	r2,r2,8
   82980:	103fd21e 	bne	r2,zero,828cc <convert_filename_to_name_extension+0x24>
        else
        {
            name[counter] = ' ';
        }
    }
    if (filename[local] == '.') local++;
   82984:	e0bffb17 	ldw	r2,-20(fp)
   82988:	1007883a 	mov	r3,r2
   8298c:	e0bffd17 	ldw	r2,-12(fp)
   82990:	1885883a 	add	r2,r3,r2
   82994:	10800003 	ldbu	r2,0(r2)
   82998:	10803fcc 	andi	r2,r2,255
   8299c:	1080201c 	xori	r2,r2,128
   829a0:	10bfe004 	addi	r2,r2,-128
   829a4:	10800b98 	cmpnei	r2,r2,46
   829a8:	1000031e 	bne	r2,zero,829b8 <convert_filename_to_name_extension+0x110>
   829ac:	e0bffb17 	ldw	r2,-20(fp)
   829b0:	10800044 	addi	r2,r2,1
   829b4:	e0bffb15 	stw	r2,-20(fp)
    for(counter = 0; counter < 3; counter++)
   829b8:	e03ffc15 	stw	zero,-16(fp)
   829bc:	00002106 	br	82a44 <convert_filename_to_name_extension+0x19c>
    {
        if (filename[local] != 0)
   829c0:	e0bffb17 	ldw	r2,-20(fp)
   829c4:	1007883a 	mov	r3,r2
   829c8:	e0bffd17 	ldw	r2,-12(fp)
   829cc:	1885883a 	add	r2,r3,r2
   829d0:	10800003 	ldbu	r2,0(r2)
   829d4:	10803fcc 	andi	r2,r2,255
   829d8:	1080201c 	xori	r2,r2,128
   829dc:	10bfe004 	addi	r2,r2,-128
   829e0:	1005003a 	cmpeq	r2,r2,zero
   829e4:	10000e1e 	bne	r2,zero,82a20 <convert_filename_to_name_extension+0x178>
        {
            extension[counter] = filename[local];
   829e8:	e0bffc17 	ldw	r2,-16(fp)
   829ec:	1007883a 	mov	r3,r2
   829f0:	e0bfff17 	ldw	r2,-4(fp)
   829f4:	1889883a 	add	r4,r3,r2
   829f8:	e0bffb17 	ldw	r2,-20(fp)
   829fc:	1007883a 	mov	r3,r2
   82a00:	e0bffd17 	ldw	r2,-12(fp)
   82a04:	1885883a 	add	r2,r3,r2
   82a08:	10800003 	ldbu	r2,0(r2)
   82a0c:	20800005 	stb	r2,0(r4)
            local++;
   82a10:	e0bffb17 	ldw	r2,-20(fp)
   82a14:	10800044 	addi	r2,r2,1
   82a18:	e0bffb15 	stw	r2,-20(fp)
   82a1c:	00000606 	br	82a38 <convert_filename_to_name_extension+0x190>
        }
        else
        {
            extension[counter] = ' ';
   82a20:	e0bffc17 	ldw	r2,-16(fp)
   82a24:	1007883a 	mov	r3,r2
   82a28:	e0bfff17 	ldw	r2,-4(fp)
   82a2c:	1887883a 	add	r3,r3,r2
   82a30:	00800804 	movi	r2,32
   82a34:	18800005 	stb	r2,0(r3)
        {
            name[counter] = ' ';
        }
    }
    if (filename[local] == '.') local++;
    for(counter = 0; counter < 3; counter++)
   82a38:	e0bffc17 	ldw	r2,-16(fp)
   82a3c:	10800044 	addi	r2,r2,1
   82a40:	e0bffc15 	stw	r2,-16(fp)
   82a44:	e0bffc17 	ldw	r2,-16(fp)
   82a48:	108000d0 	cmplti	r2,r2,3
   82a4c:	103fdc1e 	bne	r2,zero,829c0 <convert_filename_to_name_extension+0x118>
        {
            extension[counter] = ' ';
        }
    }

}
   82a50:	e037883a 	mov	sp,fp
   82a54:	df000017 	ldw	fp,0(sp)
   82a58:	dec00104 	addi	sp,sp,4
   82a5c:	f800283a 	ret

00082a60 <create_file>:

bool create_file(char *name, t_file_record *file_record, t_file_record *home_dir)
// Create a file in a given directory. Expand the directory if needed.
{
   82a60:	defff204 	addi	sp,sp,-56
   82a64:	dfc00d15 	stw	ra,52(sp)
   82a68:	df000c15 	stw	fp,48(sp)
   82a6c:	dc000b15 	stw	r16,44(sp)
   82a70:	df000b04 	addi	fp,sp,44
   82a74:	e13ffb15 	stw	r4,-20(fp)
   82a78:	e17ffc15 	stw	r5,-16(fp)
   82a7c:	e1bffd15 	stw	r6,-12(fp)
    unsigned int cluster_number;
    bool result = false;
   82a80:	e03ff915 	stw	zero,-28(fp)
    
    if (find_first_empty_cluster(&cluster_number))
   82a84:	e13ffa04 	addi	r4,fp,-24
   82a88:	00823bc0 	call	823bc <find_first_empty_cluster>
   82a8c:	1005003a 	cmpeq	r2,r2,zero
   82a90:	1000a71e 	bne	r2,zero,82d30 <create_file+0x2d0>
    {
        int record_index;
        
        if (home_dir->file_record_cluster == 0)
   82a94:	e0bffd17 	ldw	r2,-12(fp)
   82a98:	10800a17 	ldw	r2,40(r2)
   82a9c:	1004c03a 	cmpne	r2,r2,zero
   82aa0:	1000031e 	bne	r2,zero,82ab0 <create_file+0x50>
        {
            // Put a file in the root directory.
            record_index = find_first_empty_record_in_root_directory();
   82aa4:	008278c0 	call	8278c <find_first_empty_record_in_root_directory>
   82aa8:	e0bff815 	stw	r2,-32(fp)
   82aac:	00000506 	br	82ac4 <create_file+0x64>
        }
        else
        {
            // Put a file in a subdirectory.
            record_index = find_first_empty_record_in_a_subdirectory(home_dir->start_cluster_index);           
   82ab0:	e0bffd17 	ldw	r2,-12(fp)
   82ab4:	1080058b 	ldhu	r2,22(r2)
   82ab8:	113fffcc 	andi	r4,r2,65535
   82abc:	00825500 	call	82550 <find_first_empty_record_in_a_subdirectory>
   82ac0:	e0bff815 	stw	r2,-32(fp)
        }
        if (record_index >= 0)
   82ac4:	e0bff817 	ldw	r2,-32(fp)
   82ac8:	1004803a 	cmplt	r2,r2,zero
   82acc:	1000981e 	bne	r2,zero,82d30 <create_file+0x2d0>
        {   
            unsigned int file_record_sector;
            int location = get_dir_divider_location( name );
   82ad0:	e13ffb17 	ldw	r4,-20(fp)
   82ad4:	00816980 	call	81698 <get_dir_divider_location>
   82ad8:	e0bff615 	stw	r2,-40(fp)
            int last_dir_separator = 0;
   82adc:	e03ff515 	stw	zero,-44(fp)

            // Skip through all directory separators.
            while (location > 0)
   82ae0:	00000b06 	br	82b10 <create_file+0xb0>
            {
                last_dir_separator = last_dir_separator+location+1;
   82ae4:	e0fff517 	ldw	r3,-44(fp)
   82ae8:	e0bff617 	ldw	r2,-40(fp)
   82aec:	1885883a 	add	r2,r3,r2
   82af0:	10800044 	addi	r2,r2,1
   82af4:	e0bff515 	stw	r2,-44(fp)
                location = get_dir_divider_location( &(name[last_dir_separator]) );
   82af8:	e0bff517 	ldw	r2,-44(fp)
   82afc:	1007883a 	mov	r3,r2
   82b00:	e0bffb17 	ldw	r2,-20(fp)
   82b04:	1889883a 	add	r4,r3,r2
   82b08:	00816980 	call	81698 <get_dir_divider_location>
   82b0c:	e0bff615 	stw	r2,-40(fp)
            unsigned int file_record_sector;
            int location = get_dir_divider_location( name );
            int last_dir_separator = 0;

            // Skip through all directory separators.
            while (location > 0)
   82b10:	e0bff617 	ldw	r2,-40(fp)
   82b14:	10800048 	cmpgei	r2,r2,1
   82b18:	103ff21e 	bne	r2,zero,82ae4 <create_file+0x84>
            {
                last_dir_separator = last_dir_separator+location+1;
                location = get_dir_divider_location( &(name[last_dir_separator]) );
            }
            
            convert_filename_to_name_extension(&(name[last_dir_separator]), file_record->name, file_record->extension);
   82b1c:	e0bff517 	ldw	r2,-44(fp)
   82b20:	1007883a 	mov	r3,r2
   82b24:	e0bffb17 	ldw	r2,-20(fp)
   82b28:	1889883a 	add	r4,r3,r2
   82b2c:	e0bffc17 	ldw	r2,-16(fp)
   82b30:	100b883a 	mov	r5,r2
   82b34:	e0bffc17 	ldw	r2,-16(fp)
   82b38:	10800204 	addi	r2,r2,8
   82b3c:	100d883a 	mov	r6,r2
   82b40:	00828a80 	call	828a8 <convert_filename_to_name_extension>
                         
            file_record->attributes = 0x20;
   82b44:	e0fffc17 	ldw	r3,-16(fp)
   82b48:	00800804 	movi	r2,32
   82b4c:	188002c5 	stb	r2,11(r3)
            file_record->create_time = 0;
   82b50:	e0bffc17 	ldw	r2,-16(fp)
   82b54:	1000030d 	sth	zero,12(r2)
            file_record->create_date = (30 << 9) + (1 << 5) + 1;
   82b58:	e0fffc17 	ldw	r3,-16(fp)
   82b5c:	008f0844 	movi	r2,15393
   82b60:	1880038d 	sth	r2,14(r3)
            file_record->last_access_date = (30 << 9) + (1 << 5) + 1;
   82b64:	e0fffc17 	ldw	r3,-16(fp)
   82b68:	008f0844 	movi	r2,15393
   82b6c:	1880040d 	sth	r2,16(r3)
            file_record->last_modified_time = 0;
   82b70:	e0bffc17 	ldw	r2,-16(fp)
   82b74:	1000048d 	sth	zero,18(r2)
            file_record->last_modified_date = (30 << 9) + (1 << 5) + 1;
   82b78:	e0fffc17 	ldw	r3,-16(fp)
   82b7c:	008f0844 	movi	r2,15393
   82b80:	1880050d 	sth	r2,20(r3)
            file_record->start_cluster_index = cluster_number;
   82b84:	e0bffa17 	ldw	r2,-24(fp)
   82b88:	1007883a 	mov	r3,r2
   82b8c:	e0bffc17 	ldw	r2,-16(fp)
   82b90:	10c0058d 	sth	r3,22(r2)
            file_record->file_size_in_bytes = 0;
   82b94:	e0bffc17 	ldw	r2,-16(fp)
   82b98:	10000615 	stw	zero,24(r2)
            file_record->current_cluster_index = cluster_number;
   82b9c:	e0fffa17 	ldw	r3,-24(fp)
   82ba0:	e0bffc17 	ldw	r2,-16(fp)
   82ba4:	10c00715 	stw	r3,28(r2)
            file_record->current_sector_in_cluster = 0;
   82ba8:	e0bffc17 	ldw	r2,-16(fp)
   82bac:	10000815 	stw	zero,32(r2)
            file_record->current_byte_position = 0;
   82bb0:	e0bffc17 	ldw	r2,-16(fp)
   82bb4:	10000915 	stw	zero,36(r2)
            file_record->file_record_cluster = record_index & 0x0000ffff;
   82bb8:	e0bff817 	ldw	r2,-32(fp)
   82bbc:	10ffffcc 	andi	r3,r2,65535
   82bc0:	e0bffc17 	ldw	r2,-16(fp)
   82bc4:	10c00a15 	stw	r3,40(r2)
            file_record->file_record_sector_in_cluster = ((record_index >> 16) & 0x0000ffff) / 16;
   82bc8:	e0bff817 	ldw	r2,-32(fp)
   82bcc:	1005d43a 	srai	r2,r2,16
   82bd0:	10bfffcc 	andi	r2,r2,65535
   82bd4:	e0bfff15 	stw	r2,-4(fp)
   82bd8:	e0ffff17 	ldw	r3,-4(fp)
   82bdc:	1804403a 	cmpge	r2,r3,zero
   82be0:	1000031e 	bne	r2,zero,82bf0 <create_file+0x190>
   82be4:	e0bfff17 	ldw	r2,-4(fp)
   82be8:	108003c4 	addi	r2,r2,15
   82bec:	e0bfff15 	stw	r2,-4(fp)
   82bf0:	e0ffff17 	ldw	r3,-4(fp)
   82bf4:	1805d13a 	srai	r2,r3,4
   82bf8:	1007883a 	mov	r3,r2
   82bfc:	e0bffc17 	ldw	r2,-16(fp)
   82c00:	10c00b15 	stw	r3,44(r2)
            file_record->file_record_offset = (((record_index >> 16) & 0x0000ffff) % 16)*32;   
   82c04:	e0bff817 	ldw	r2,-32(fp)
   82c08:	1005d43a 	srai	r2,r2,16
   82c0c:	108003cc 	andi	r2,r2,15
   82c10:	1004917a 	slli	r2,r2,5
   82c14:	1007883a 	mov	r3,r2
   82c18:	e0bffc17 	ldw	r2,-16(fp)
   82c1c:	10c00c0d 	sth	r3,48(r2)
            file_record->home_directory_cluster = home_dir->start_cluster_index;
   82c20:	e0bffd17 	ldw	r2,-12(fp)
   82c24:	1080058b 	ldhu	r2,22(r2)
   82c28:	10ffffcc 	andi	r3,r2,65535
   82c2c:	e0bffc17 	ldw	r2,-16(fp)
   82c30:	10c00d15 	stw	r3,52(r2)
            file_record->in_use = true;
   82c34:	e0fffc17 	ldw	r3,-16(fp)
   82c38:	00800044 	movi	r2,1
   82c3c:	18800f15 	stw	r2,60(r3)
            file_record->modified = true;
   82c40:	e0fffc17 	ldw	r3,-16(fp)
   82c44:	00800044 	movi	r2,1
   82c48:	18800e15 	stw	r2,56(r3)
            // Now write the record at the specified location.
            file_record_sector = (file_record->file_record_cluster == 0) ? 
   82c4c:	e0bffc17 	ldw	r2,-16(fp)
   82c50:	10800a17 	ldw	r2,40(r2)
   82c54:	1004c03a 	cmpne	r2,r2,zero
   82c58:	1000081e 	bne	r2,zero,82c7c <create_file+0x21c>
   82c5c:	008002b4 	movhi	r2,10
   82c60:	108e6a04 	addi	r2,r2,14760
   82c64:	10c01317 	ldw	r3,76(r2)
   82c68:	e0bffc17 	ldw	r2,-16(fp)
   82c6c:	10800b17 	ldw	r2,44(r2)
   82c70:	1887883a 	add	r3,r3,r2
   82c74:	e0fffe15 	stw	r3,-8(fp)
   82c78:	00001006 	br	82cbc <create_file+0x25c>
   82c7c:	008002b4 	movhi	r2,10
   82c80:	108e6a04 	addi	r2,r2,14760
   82c84:	14001417 	ldw	r16,80(r2)
   82c88:	e0bffc17 	ldw	r2,-16(fp)
   82c8c:	10800a17 	ldw	r2,40(r2)
   82c90:	113fff84 	addi	r4,r2,-2
   82c94:	008002b4 	movhi	r2,10
   82c98:	108e6a04 	addi	r2,r2,14760
   82c9c:	10800383 	ldbu	r2,14(r2)
   82ca0:	11403fcc 	andi	r5,r2,255
   82ca4:	00877e40 	call	877e4 <__mulsi3>
   82ca8:	8087883a 	add	r3,r16,r2
   82cac:	e0bffc17 	ldw	r2,-16(fp)
   82cb0:	10800b17 	ldw	r2,44(r2)
   82cb4:	1887883a 	add	r3,r3,r2
   82cb8:	e0fffe15 	stw	r3,-8(fp)
   82cbc:	e0bffe17 	ldw	r2,-8(fp)
   82cc0:	e0bff715 	stw	r2,-36(fp)
                                    (boot_sector_data.root_directory_sector_offset + file_record->file_record_sector_in_cluster):  
                                    (boot_sector_data.data_sector_offset + (file_record->file_record_cluster-2)*boot_sector_data.sectors_per_cluster +
                                     file_record->file_record_sector_in_cluster);

			if (Read_Sector_Data(file_record_sector, fat_partition_offset_in_512_byte_sectors))
   82cc4:	e13ff717 	ldw	r4,-36(fp)
   82cc8:	d1670717 	ldw	r5,-25572(gp)
   82ccc:	008053c0 	call	8053c <Read_Sector_Data>
   82cd0:	1005003a 	cmpeq	r2,r2,zero
   82cd4:	1000161e 	bne	r2,zero,82d30 <create_file+0x2d0>
            {
                if (Write_File_Record_At_Offset(file_record->file_record_offset, file_record))
   82cd8:	e0bffc17 	ldw	r2,-16(fp)
   82cdc:	10800c0b 	ldhu	r2,48(r2)
   82ce0:	113fffcc 	andi	r4,r2,65535
   82ce4:	2120001c 	xori	r4,r4,32768
   82ce8:	21200004 	addi	r4,r4,-32768
   82cec:	e17ffc17 	ldw	r5,-16(fp)
   82cf0:	0080ac80 	call	80ac8 <Write_File_Record_At_Offset>
   82cf4:	1005003a 	cmpeq	r2,r2,zero
   82cf8:	10000d1e 	bne	r2,zero,82d30 <create_file+0x2d0>
                {
                    Save_Modified_Sector();
   82cfc:	00804ec0 	call	804ec <Save_Modified_Sector>
                    // Mark the first cluster of the file as the last cluster at first.
                    mark_cluster(cluster_number, ((short int) (0xffff)), true);
   82d00:	e13ffa17 	ldw	r4,-24(fp)
   82d04:	017fffc4 	movi	r5,-1
   82d08:	01800044 	movi	r6,1
   82d0c:	00806d00 	call	806d0 <mark_cluster>
                    if (mark_cluster(cluster_number, ((short int) (0xffff)), false))
   82d10:	e13ffa17 	ldw	r4,-24(fp)
   82d14:	017fffc4 	movi	r5,-1
   82d18:	000d883a 	mov	r6,zero
   82d1c:	00806d00 	call	806d0 <mark_cluster>
   82d20:	1005003a 	cmpeq	r2,r2,zero
   82d24:	1000021e 	bne	r2,zero,82d30 <create_file+0x2d0>
                    {
                        result = true;
   82d28:	00800044 	movi	r2,1
   82d2c:	e0bff915 	stw	r2,-28(fp)
                }
            }
        }

    }
    return result;           
   82d30:	e0bff917 	ldw	r2,-28(fp)
}
   82d34:	e037883a 	mov	sp,fp
   82d38:	dfc00217 	ldw	ra,8(sp)
   82d3c:	df000117 	ldw	fp,4(sp)
   82d40:	dc000017 	ldw	r16,0(sp)
   82d44:	dec00304 	addi	sp,sp,12
   82d48:	f800283a 	ret

00082d4c <copy_file_record_name_to_string>:


void copy_file_record_name_to_string(t_file_record *file_record, char *file_name)
/* Copy a file name from the file record to a given string */
{
   82d4c:	defffb04 	addi	sp,sp,-20
   82d50:	df000415 	stw	fp,16(sp)
   82d54:	df000404 	addi	fp,sp,16
   82d58:	e13ffe15 	stw	r4,-8(fp)
   82d5c:	e17fff15 	stw	r5,-4(fp)
	int index;
	int flength = 0;
   82d60:	e03ffc15 	stw	zero,-16(fp)

	/* Copy file name.*/
	for (index = 0; index < 8; index++)
   82d64:	e03ffd15 	stw	zero,-12(fp)
   82d68:	00001606 	br	82dc4 <copy_file_record_name_to_string+0x78>
	{
		if (file_record->name[index] != ' ')
   82d6c:	e0fffd17 	ldw	r3,-12(fp)
   82d70:	e0bffe17 	ldw	r2,-8(fp)
   82d74:	10c5883a 	add	r2,r2,r3
   82d78:	10800003 	ldbu	r2,0(r2)
   82d7c:	10803fcc 	andi	r2,r2,255
   82d80:	10800820 	cmpeqi	r2,r2,32
   82d84:	10000c1e 	bne	r2,zero,82db8 <copy_file_record_name_to_string+0x6c>
		{
			file_name[flength] = file_record->name[index];
   82d88:	e0bffc17 	ldw	r2,-16(fp)
   82d8c:	1007883a 	mov	r3,r2
   82d90:	e0bfff17 	ldw	r2,-4(fp)
   82d94:	1889883a 	add	r4,r3,r2
   82d98:	e0fffd17 	ldw	r3,-12(fp)
   82d9c:	e0bffe17 	ldw	r2,-8(fp)
   82da0:	10c5883a 	add	r2,r2,r3
   82da4:	10800003 	ldbu	r2,0(r2)
   82da8:	20800005 	stb	r2,0(r4)
			flength = flength + 1;
   82dac:	e0bffc17 	ldw	r2,-16(fp)
   82db0:	10800044 	addi	r2,r2,1
   82db4:	e0bffc15 	stw	r2,-16(fp)
{
	int index;
	int flength = 0;

	/* Copy file name.*/
	for (index = 0; index < 8; index++)
   82db8:	e0bffd17 	ldw	r2,-12(fp)
   82dbc:	10800044 	addi	r2,r2,1
   82dc0:	e0bffd15 	stw	r2,-12(fp)
   82dc4:	e0bffd17 	ldw	r2,-12(fp)
   82dc8:	10800210 	cmplti	r2,r2,8
   82dcc:	103fe71e 	bne	r2,zero,82d6c <copy_file_record_name_to_string+0x20>
		{
			file_name[flength] = file_record->name[index];
			flength = flength + 1;
		}
	}
	if (file_record->extension[0] != ' ')
   82dd0:	e0bffe17 	ldw	r2,-8(fp)
   82dd4:	10800203 	ldbu	r2,8(r2)
   82dd8:	10803fcc 	andi	r2,r2,255
   82ddc:	10800820 	cmpeqi	r2,r2,32
   82de0:	1000261e 	bne	r2,zero,82e7c <copy_file_record_name_to_string+0x130>
	{
		file_name[flength] = '.';
   82de4:	e0bffc17 	ldw	r2,-16(fp)
   82de8:	1007883a 	mov	r3,r2
   82dec:	e0bfff17 	ldw	r2,-4(fp)
   82df0:	1887883a 	add	r3,r3,r2
   82df4:	00800b84 	movi	r2,46
   82df8:	18800005 	stb	r2,0(r3)
		flength = flength + 1;
   82dfc:	e0bffc17 	ldw	r2,-16(fp)
   82e00:	10800044 	addi	r2,r2,1
   82e04:	e0bffc15 	stw	r2,-16(fp)
		for (index = 0; index < 3; index++)
   82e08:	e03ffd15 	stw	zero,-12(fp)
   82e0c:	00001806 	br	82e70 <copy_file_record_name_to_string+0x124>
		{
			if (file_record->extension[index] != ' ')
   82e10:	e0fffd17 	ldw	r3,-12(fp)
   82e14:	e0bffe17 	ldw	r2,-8(fp)
   82e18:	1885883a 	add	r2,r3,r2
   82e1c:	10800204 	addi	r2,r2,8
   82e20:	10800003 	ldbu	r2,0(r2)
   82e24:	10803fcc 	andi	r2,r2,255
   82e28:	10800820 	cmpeqi	r2,r2,32
   82e2c:	10000d1e 	bne	r2,zero,82e64 <copy_file_record_name_to_string+0x118>
			{
				file_name[flength] = file_record->extension[index];
   82e30:	e0bffc17 	ldw	r2,-16(fp)
   82e34:	1007883a 	mov	r3,r2
   82e38:	e0bfff17 	ldw	r2,-4(fp)
   82e3c:	1889883a 	add	r4,r3,r2
   82e40:	e0fffd17 	ldw	r3,-12(fp)
   82e44:	e0bffe17 	ldw	r2,-8(fp)
   82e48:	1885883a 	add	r2,r3,r2
   82e4c:	10800204 	addi	r2,r2,8
   82e50:	10800003 	ldbu	r2,0(r2)
   82e54:	20800005 	stb	r2,0(r4)
				flength = flength + 1;
   82e58:	e0bffc17 	ldw	r2,-16(fp)
   82e5c:	10800044 	addi	r2,r2,1
   82e60:	e0bffc15 	stw	r2,-16(fp)
	}
	if (file_record->extension[0] != ' ')
	{
		file_name[flength] = '.';
		flength = flength + 1;
		for (index = 0; index < 3; index++)
   82e64:	e0bffd17 	ldw	r2,-12(fp)
   82e68:	10800044 	addi	r2,r2,1
   82e6c:	e0bffd15 	stw	r2,-12(fp)
   82e70:	e0bffd17 	ldw	r2,-12(fp)
   82e74:	108000d0 	cmplti	r2,r2,3
   82e78:	103fe51e 	bne	r2,zero,82e10 <copy_file_record_name_to_string+0xc4>
				file_name[flength] = file_record->extension[index];
				flength = flength + 1;
			}
		}
	}
	file_name[flength] = 0;
   82e7c:	e0bffc17 	ldw	r2,-16(fp)
   82e80:	1007883a 	mov	r3,r2
   82e84:	e0bfff17 	ldw	r2,-4(fp)
   82e88:	1885883a 	add	r2,r3,r2
   82e8c:	10000005 	stb	zero,0(r2)
}
   82e90:	e037883a 	mov	sp,fp
   82e94:	df000017 	ldw	fp,0(sp)
   82e98:	dec00104 	addi	sp,sp,4
   82e9c:	f800283a 	ret

00082ea0 <sd_card_open_dev>:
// Direct functions
///////////////////////////////////////////////////////////////////////////


void sd_card_open_dev()
{
   82ea0:	deffff04 	addi	sp,sp,-4
   82ea4:	df000015 	stw	fp,0(sp)
   82ea8:	d839883a 	mov	fp,sp
	// for details)
	// alt_up_sd_card_dev *dev = (alt_up_sd_card_dev *) alt_find_dev(name, &alt_dev_list);

	// if (dev != NULL)
	// {
		aux_status_register = ((short int *) SD_CARD_AUX_STATUS(SD_CARD_0_BASE));
   82eac:	00808d04 	movi	r2,564
   82eb0:	d0a70215 	stw	r2,-25592(gp)
		status_register = ((int *) SD_CARD_STATUS(SD_CARD_0_BASE));
   82eb4:	00808904 	movi	r2,548
   82eb8:	d0a70315 	stw	r2,-25588(gp)
		CSD_register_w0 = ((short int *) SD_CARD_CSD(SD_CARD_0_BASE, 0));
   82ebc:	00808404 	movi	r2,528
   82ec0:	d0a70415 	stw	r2,-25584(gp)
		command_register = ((short int *) SD_CARD_COMMAND(SD_CARD_0_BASE));
   82ec4:	00808c04 	movi	r2,560
   82ec8:	d0a70515 	stw	r2,-25580(gp)
		command_argument_register = ((int *) SD_CARD_ARGUMENT(SD_CARD_0_BASE));
   82ecc:	00808b04 	movi	r2,556
   82ed0:	d0a70615 	stw	r2,-25576(gp)
		// device_pointer = dev;
		initialized = false;
   82ed4:	d0270015 	stw	zero,-25600(gp)
		is_sd_card_formated_as_FAT16 = false;
   82ed8:	d0270115 	stw	zero,-25596(gp)
		search_data.valid = false;
   82edc:	008002b4 	movhi	r2,10
   82ee0:	108e6504 	addi	r2,r2,14740
   82ee4:	10000415 	stw	zero,16(r2)
	// }
	// return dev;
}
   82ee8:	e037883a 	mov	sp,fp
   82eec:	df000017 	ldw	fp,0(sp)
   82ef0:	dec00104 	addi	sp,sp,4
   82ef4:	f800283a 	ret

00082ef8 <sd_card_is_Present>:


bool sd_card_is_Present(void)
// Check if there is an SD Card insterted into the SD Card socket.
{
   82ef8:	defffe04 	addi	sp,sp,-8
   82efc:	df000115 	stw	fp,4(sp)
   82f00:	df000104 	addi	fp,sp,4
    bool result = false;
   82f04:	e03fff15 	stw	zero,-4(fp)

    if ((*aux_status_register & 0x02) != 0)
   82f08:	d0a70217 	ldw	r2,-25592(gp)
   82f0c:	1080000b 	ldhu	r2,0(r2)
   82f10:	10bfffcc 	andi	r2,r2,65535
   82f14:	1080008c 	andi	r2,r2,2
   82f18:	1005003a 	cmpeq	r2,r2,zero
   82f1c:	1000031e 	bne	r2,zero,82f2c <sd_card_is_Present+0x34>
    {
        result = true;
   82f20:	00800044 	movi	r2,1
   82f24:	e0bfff15 	stw	r2,-4(fp)
   82f28:	00000106 	br	82f30 <sd_card_is_Present+0x38>
    } else {
		initialized = false;
   82f2c:	d0270015 	stw	zero,-25600(gp)
	}
    return result;
   82f30:	e0bfff17 	ldw	r2,-4(fp)
}
   82f34:	e037883a 	mov	sp,fp
   82f38:	df000017 	ldw	fp,0(sp)
   82f3c:	dec00104 	addi	sp,sp,4
   82f40:	f800283a 	ret

00082f44 <sd_card_is_FAT16>:
/* This function reads the SD card data in an effort to determine if the card is formated as a FAT16
 * volume. Please note that FAT12 has a similar format, but will not be supported by this driver.
 * If the card contains a FAT16 volume, the local data structures will be initialized to allow reading and writing
 * to the SD card as though it was a hard drive.
 */
{
   82f44:	defffd04 	addi	sp,sp,-12
   82f48:	dfc00215 	stw	ra,8(sp)
   82f4c:	df000115 	stw	fp,4(sp)
   82f50:	df000104 	addi	fp,sp,4
	bool result = false;
   82f54:	e03fff15 	stw	zero,-4(fp)

	if (sd_card_is_Present())
   82f58:	0082ef80 	call	82ef8 <sd_card_is_Present>
   82f5c:	1005003a 	cmpeq	r2,r2,zero
   82f60:	1000151e 	bne	r2,zero,82fb8 <sd_card_is_FAT16+0x74>
	{
		// Check if an SD Card is in the SD Card slot.
		if ((*aux_status_register & 0x02) != 0)
   82f64:	d0a70217 	ldw	r2,-25592(gp)
   82f68:	1080000b 	ldhu	r2,0(r2)
   82f6c:	10bfffcc 	andi	r2,r2,65535
   82f70:	1080008c 	andi	r2,r2,2
   82f74:	1005003a 	cmpeq	r2,r2,zero
   82f78:	10000b1e 	bne	r2,zero,82fa8 <sd_card_is_FAT16+0x64>
		{
			if (initialized == false)
   82f7c:	d0a70017 	ldw	r2,-25600(gp)
   82f80:	1004c03a 	cmpne	r2,r2,zero
   82f84:	10000a1e 	bne	r2,zero,82fb0 <sd_card_is_FAT16+0x6c>
			{
				// Now determine if the card is formatted as FAT 16.
				is_sd_card_formated_as_FAT16 = Look_for_FAT16();
   82f88:	00812140 	call	81214 <Look_for_FAT16>
   82f8c:	d0a70115 	stw	r2,-25596(gp)
				initialized = is_sd_card_formated_as_FAT16;
   82f90:	d0a70117 	ldw	r2,-25596(gp)
   82f94:	d0a70015 	stw	r2,-25600(gp)
				search_data.valid = false;
   82f98:	008002b4 	movhi	r2,10
   82f9c:	108e6504 	addi	r2,r2,14740
   82fa0:	10000415 	stw	zero,16(r2)
   82fa4:	00000206 	br	82fb0 <sd_card_is_FAT16+0x6c>
			}
		}
		else
		{
			// If not then you may as well not open the device.
			initialized = false;
   82fa8:	d0270015 	stw	zero,-25600(gp)
			is_sd_card_formated_as_FAT16 = false;
   82fac:	d0270115 	stw	zero,-25596(gp)
		}
		result = is_sd_card_formated_as_FAT16;
   82fb0:	d0a70117 	ldw	r2,-25596(gp)
   82fb4:	e0bfff15 	stw	r2,-4(fp)
	}

	return result;
   82fb8:	e0bfff17 	ldw	r2,-4(fp)
}
   82fbc:	e037883a 	mov	sp,fp
   82fc0:	dfc00117 	ldw	ra,4(sp)
   82fc4:	df000017 	ldw	fp,0(sp)
   82fc8:	dec00204 	addi	sp,sp,8
   82fcc:	f800283a 	ret

00082fd0 <sd_card_find_first>:
 * "first/sub/." - look through a directory named "sub", that is located within the subdirectory named "first". "first" is located in the root directory.
 * Invalid examples include:
 * "/.", "/////." - this is not the root directory.
 * "/first/." - the first character may not be a '/'.
 */
{
   82fd0:	deffea04 	addi	sp,sp,-88
   82fd4:	dfc01515 	stw	ra,84(sp)
   82fd8:	df001415 	stw	fp,80(sp)
   82fdc:	df001404 	addi	fp,sp,80
   82fe0:	e13ffe15 	stw	r4,-8(fp)
   82fe4:	e17fff15 	stw	r5,-4(fp)
	short int result = 2;
   82fe8:	00800084 	movi	r2,2
   82fec:	e0bfec0d 	sth	r2,-80(fp)
	if ((sd_card_is_Present()) && (is_sd_card_formated_as_FAT16))
   82ff0:	0082ef80 	call	82ef8 <sd_card_is_Present>
   82ff4:	1005003a 	cmpeq	r2,r2,zero
   82ff8:	1000241e 	bne	r2,zero,8308c <sd_card_find_first+0xbc>
   82ffc:	d0a70117 	ldw	r2,-25596(gp)
   83000:	1005003a 	cmpeq	r2,r2,zero
   83004:	1000211e 	bne	r2,zero,8308c <sd_card_find_first+0xbc>
	{
		int home_directory_cluster;
		t_file_record file_record;

		if (get_home_directory_cluster_for_file(directory_to_search_through, &home_directory_cluster, &file_record))
   83008:	e17fed04 	addi	r5,fp,-76
   8300c:	e1bfee04 	addi	r6,fp,-72
   83010:	e13ffe17 	ldw	r4,-8(fp)
   83014:	0081a440 	call	81a44 <get_home_directory_cluster_for_file>
   83018:	1005003a 	cmpeq	r2,r2,zero
   8301c:	1000191e 	bne	r2,zero,83084 <sd_card_find_first+0xb4>
		{
			search_data.directory_root_cluster = home_directory_cluster;
   83020:	e0bfed17 	ldw	r2,-76(fp)
   83024:	1007883a 	mov	r3,r2
   83028:	008002b4 	movhi	r2,10
   8302c:	108e6504 	addi	r2,r2,14740
   83030:	10c00015 	stw	r3,0(r2)
			search_data.current_cluster_index = home_directory_cluster;
   83034:	e0bfed17 	ldw	r2,-76(fp)
   83038:	1007883a 	mov	r3,r2
   8303c:	008002b4 	movhi	r2,10
   83040:	108e6504 	addi	r2,r2,14740
   83044:	10c00115 	stw	r3,4(r2)
			search_data.current_sector_in_cluster = 0;
   83048:	008002b4 	movhi	r2,10
   8304c:	108e6504 	addi	r2,r2,14740
   83050:	10000215 	stw	zero,8(r2)
			search_data.file_index_in_sector = -1;
   83054:	00c002b4 	movhi	r3,10
   83058:	18ce6504 	addi	r3,r3,14740
   8305c:	00bfffc4 	movi	r2,-1
   83060:	1880030d 	sth	r2,12(r3)
			search_data.valid = true;
   83064:	00c002b4 	movhi	r3,10
   83068:	18ce6504 	addi	r3,r3,14740
   8306c:	00800044 	movi	r2,1
   83070:	18800415 	stw	r2,16(r3)
			result = sd_card_find_next(file_name);
   83074:	e13fff17 	ldw	r4,-4(fp)
   83078:	00830a40 	call	830a4 <sd_card_find_next>
   8307c:	e0bfec0d 	sth	r2,-80(fp)
   83080:	00000206 	br	8308c <sd_card_find_first+0xbc>
		}
		else
		{
			result = 1;
   83084:	00800044 	movi	r2,1
   83088:	e0bfec0d 	sth	r2,-80(fp)
		}
	}
	return result;
   8308c:	e0bfec0f 	ldh	r2,-80(fp)
}
   83090:	e037883a 	mov	sp,fp
   83094:	dfc00117 	ldw	ra,4(sp)
   83098:	df000017 	ldw	fp,0(sp)
   8309c:	dec00204 	addi	sp,sp,8
   830a0:	f800283a 	ret

000830a4 <sd_card_find_next>:
 *		-1 - end of directory.
 *		0 - success
 *		2 - No card or incorrect card format.
 *		3 - find_first has not been called successfully.
 */
{
   830a4:	deffe404 	addi	sp,sp,-112
   830a8:	dfc01b15 	stw	ra,108(sp)
   830ac:	df001a15 	stw	fp,104(sp)
   830b0:	df001a04 	addi	fp,sp,104
   830b4:	e13ffe15 	stw	r4,-8(fp)
	short int result = 2;
   830b8:	00800084 	movi	r2,2
   830bc:	e0bfed0d 	sth	r2,-76(fp)
	if ((sd_card_is_Present()) && (is_sd_card_formated_as_FAT16))
   830c0:	0082ef80 	call	82ef8 <sd_card_is_Present>
   830c4:	1005003a 	cmpeq	r2,r2,zero
   830c8:	1000d81e 	bne	r2,zero,8342c <sd_card_find_next+0x388>
   830cc:	d0a70117 	ldw	r2,-25596(gp)
   830d0:	1005003a 	cmpeq	r2,r2,zero
   830d4:	1000d51e 	bne	r2,zero,8342c <sd_card_find_next+0x388>
	{
		if (search_data.valid)
   830d8:	008002b4 	movhi	r2,10
   830dc:	108e6504 	addi	r2,r2,14740
   830e0:	10800417 	ldw	r2,16(r2)
   830e4:	1005003a 	cmpeq	r2,r2,zero
   830e8:	1000ce1e 	bne	r2,zero,83424 <sd_card_find_next+0x380>
		{
			t_file_record file_record;
			int cluster = search_data.current_cluster_index;
   830ec:	008002b4 	movhi	r2,10
   830f0:	108e6504 	addi	r2,r2,14740
   830f4:	10800117 	ldw	r2,4(r2)
   830f8:	e0bfec15 	stw	r2,-80(fp)

			if (cluster == 0)
   830fc:	e0bfec17 	ldw	r2,-80(fp)
   83100:	1004c03a 	cmpne	r2,r2,zero
   83104:	1000521e 	bne	r2,zero,83250 <sd_card_find_next+0x1ac>
			{
				// Searching through the root directory
				int max_root_dir_sectors = ((32*boot_sector_data.max_number_of_dir_entires) / boot_sector_data.sector_size_in_bytes);
   83108:	008002b4 	movhi	r2,10
   8310c:	108e6a04 	addi	r2,r2,14760
   83110:	1080050b 	ldhu	r2,20(r2)
   83114:	10bfffcc 	andi	r2,r2,65535
   83118:	1008917a 	slli	r4,r2,5
   8311c:	008002b4 	movhi	r2,10
   83120:	108e6a04 	addi	r2,r2,14760
   83124:	1080030b 	ldhu	r2,12(r2)
   83128:	117fffcc 	andi	r5,r2,65535
   8312c:	00877140 	call	87714 <__divsi3>
   83130:	e0bfeb15 	stw	r2,-84(fp)
				int sector_index = search_data.current_sector_in_cluster;
   83134:	008002b4 	movhi	r2,10
   83138:	108e6504 	addi	r2,r2,14740
   8313c:	10800217 	ldw	r2,8(r2)
   83140:	e0bfea15 	stw	r2,-88(fp)
				int file_counter = search_data.file_index_in_sector+1;
   83144:	008002b4 	movhi	r2,10
   83148:	108e6504 	addi	r2,r2,14740
   8314c:	1080030b 	ldhu	r2,12(r2)
   83150:	10bfffcc 	andi	r2,r2,65535
   83154:	10a0001c 	xori	r2,r2,32768
   83158:	10a00004 	addi	r2,r2,-32768
   8315c:	10800044 	addi	r2,r2,1
   83160:	e0bfe915 	stw	r2,-92(fp)
    
				for (sector_index = 0; sector_index < max_root_dir_sectors; sector_index++)
   83164:	e03fea15 	stw	zero,-88(fp)
   83168:	00003306 	br	83238 <sd_card_find_next+0x194>
				{
					if (Read_Sector_Data(   sector_index + boot_sector_data.root_directory_sector_offset,
   8316c:	008002b4 	movhi	r2,10
   83170:	108e6a04 	addi	r2,r2,14760
   83174:	10c01317 	ldw	r3,76(r2)
   83178:	e0bfea17 	ldw	r2,-88(fp)
   8317c:	1885883a 	add	r2,r3,r2
   83180:	1009883a 	mov	r4,r2
   83184:	d1670717 	ldw	r5,-25572(gp)
   83188:	008053c0 	call	8053c <Read_Sector_Data>
   8318c:	1005003a 	cmpeq	r2,r2,zero
   83190:	10002c1e 	bne	r2,zero,83244 <sd_card_find_next+0x1a0>
											fat_partition_offset_in_512_byte_sectors))
					{
						for (; file_counter < 16; file_counter++)
   83194:	00002106 	br	8321c <sd_card_find_next+0x178>
						{
							if (Read_File_Record_At_Offset(file_counter*32, &file_record, 0, sector_index))
   83198:	e0bfe917 	ldw	r2,-92(fp)
   8319c:	1008917a 	slli	r4,r2,5
   831a0:	e1ffea17 	ldw	r7,-88(fp)
   831a4:	e17fee04 	addi	r5,fp,-72
   831a8:	000d883a 	mov	r6,zero
   831ac:	00809000 	call	80900 <Read_File_Record_At_Offset>
   831b0:	1005003a 	cmpeq	r2,r2,zero
   831b4:	1000161e 	bne	r2,zero,83210 <sd_card_find_next+0x16c>
							{
								if ((file_record.name[0] != 0) && (file_record.name[0] != 0xe5))
   831b8:	e0bfee03 	ldbu	r2,-72(fp)
   831bc:	10803fcc 	andi	r2,r2,255
   831c0:	1005003a 	cmpeq	r2,r2,zero
   831c4:	1000121e 	bne	r2,zero,83210 <sd_card_find_next+0x16c>
   831c8:	e0bfee03 	ldbu	r2,-72(fp)
   831cc:	10803fcc 	andi	r2,r2,255
   831d0:	10803960 	cmpeqi	r2,r2,229
   831d4:	10000e1e 	bne	r2,zero,83210 <sd_card_find_next+0x16c>
								{
									/* Update search structure. */
									search_data.file_index_in_sector = file_counter;
   831d8:	e0bfe917 	ldw	r2,-92(fp)
   831dc:	1007883a 	mov	r3,r2
   831e0:	008002b4 	movhi	r2,10
   831e4:	108e6504 	addi	r2,r2,14740
   831e8:	10c0030d 	sth	r3,12(r2)
									search_data.current_sector_in_cluster = sector_index;
   831ec:	e0ffea17 	ldw	r3,-88(fp)
   831f0:	008002b4 	movhi	r2,10
   831f4:	108e6504 	addi	r2,r2,14740
   831f8:	10c00215 	stw	r3,8(r2)

									/* Copy file name.*/
									copy_file_record_name_to_string(&file_record, file_name);
   831fc:	e13fee04 	addi	r4,fp,-72
   83200:	e17ffe17 	ldw	r5,-8(fp)
   83204:	0082d4c0 	call	82d4c <copy_file_record_name_to_string>
									return 0;
   83208:	e03fff15 	stw	zero,-4(fp)
   8320c:	00008906 	br	83434 <sd_card_find_next+0x390>
				for (sector_index = 0; sector_index < max_root_dir_sectors; sector_index++)
				{
					if (Read_Sector_Data(   sector_index + boot_sector_data.root_directory_sector_offset,
											fat_partition_offset_in_512_byte_sectors))
					{
						for (; file_counter < 16; file_counter++)
   83210:	e0bfe917 	ldw	r2,-92(fp)
   83214:	10800044 	addi	r2,r2,1
   83218:	e0bfe915 	stw	r2,-92(fp)
   8321c:	e0bfe917 	ldw	r2,-92(fp)
   83220:	10800410 	cmplti	r2,r2,16
   83224:	103fdc1e 	bne	r2,zero,83198 <sd_card_find_next+0xf4>
									copy_file_record_name_to_string(&file_record, file_name);
									return 0;
								}
							}
						}
						file_counter = 0;
   83228:	e03fe915 	stw	zero,-92(fp)
				// Searching through the root directory
				int max_root_dir_sectors = ((32*boot_sector_data.max_number_of_dir_entires) / boot_sector_data.sector_size_in_bytes);
				int sector_index = search_data.current_sector_in_cluster;
				int file_counter = search_data.file_index_in_sector+1;
    
				for (sector_index = 0; sector_index < max_root_dir_sectors; sector_index++)
   8322c:	e0bfea17 	ldw	r2,-88(fp)
   83230:	10800044 	addi	r2,r2,1
   83234:	e0bfea15 	stw	r2,-88(fp)
   83238:	e0ffea17 	ldw	r3,-88(fp)
   8323c:	e0bfeb17 	ldw	r2,-84(fp)
   83240:	18bfca16 	blt	r3,r2,8316c <sd_card_find_next+0xc8>
					else
					{
						break;
					}
				}
				result = -1;
   83244:	00bfffc4 	movi	r2,-1
   83248:	e0bfed0d 	sth	r2,-76(fp)
   8324c:	00007706 	br	8342c <sd_card_find_next+0x388>
			}
			else
			{
				int file_counter = search_data.file_index_in_sector+1;
   83250:	008002b4 	movhi	r2,10
   83254:	108e6504 	addi	r2,r2,14740
   83258:	1080030b 	ldhu	r2,12(r2)
   8325c:	10bfffcc 	andi	r2,r2,65535
   83260:	10a0001c 	xori	r2,r2,32768
   83264:	10a00004 	addi	r2,r2,-32768
   83268:	10800044 	addi	r2,r2,1
   8326c:	e0bfe815 	stw	r2,-96(fp)
				do 
				{
					int start_sector = ( cluster - 2 ) * ( boot_sector_data.sectors_per_cluster ) + boot_sector_data.data_sector_offset;
   83270:	e0bfec17 	ldw	r2,-80(fp)
   83274:	113fff84 	addi	r4,r2,-2
   83278:	008002b4 	movhi	r2,10
   8327c:	108e6a04 	addi	r2,r2,14760
   83280:	10800383 	ldbu	r2,14(r2)
   83284:	11403fcc 	andi	r5,r2,255
   83288:	00877e40 	call	877e4 <__mulsi3>
   8328c:	1007883a 	mov	r3,r2
   83290:	008002b4 	movhi	r2,10
   83294:	108e6a04 	addi	r2,r2,14760
   83298:	10801417 	ldw	r2,80(r2)
   8329c:	1885883a 	add	r2,r3,r2
   832a0:	e0bfe715 	stw	r2,-100(fp)
					int sector_index;
			        
					for (sector_index = 0; sector_index < boot_sector_data.sectors_per_cluster; sector_index++)
   832a4:	e03fe615 	stw	zero,-104(fp)
   832a8:	00003406 	br	8337c <sd_card_find_next+0x2d8>
					{
						if (Read_Sector_Data(sector_index + start_sector, fat_partition_offset_in_512_byte_sectors))
   832ac:	e0ffe617 	ldw	r3,-104(fp)
   832b0:	e0bfe717 	ldw	r2,-100(fp)
   832b4:	1889883a 	add	r4,r3,r2
   832b8:	d1670717 	ldw	r5,-25572(gp)
   832bc:	008053c0 	call	8053c <Read_Sector_Data>
   832c0:	1005003a 	cmpeq	r2,r2,zero
   832c4:	1000331e 	bne	r2,zero,83394 <sd_card_find_next+0x2f0>
						{        
							for (; file_counter < 16; file_counter++)
   832c8:	00002506 	br	83360 <sd_card_find_next+0x2bc>
							{
								if (Read_File_Record_At_Offset(file_counter*32, &file_record, cluster, sector_index))
   832cc:	e0bfe817 	ldw	r2,-96(fp)
   832d0:	1008917a 	slli	r4,r2,5
   832d4:	e1bfec17 	ldw	r6,-80(fp)
   832d8:	e1ffe617 	ldw	r7,-104(fp)
   832dc:	e17fee04 	addi	r5,fp,-72
   832e0:	00809000 	call	80900 <Read_File_Record_At_Offset>
   832e4:	1005003a 	cmpeq	r2,r2,zero
   832e8:	10001a1e 	bne	r2,zero,83354 <sd_card_find_next+0x2b0>
								{
									if ((file_record.name[0] != 0) && (file_record.name[0] != 0xe5))
   832ec:	e0bfee03 	ldbu	r2,-72(fp)
   832f0:	10803fcc 	andi	r2,r2,255
   832f4:	1005003a 	cmpeq	r2,r2,zero
   832f8:	1000161e 	bne	r2,zero,83354 <sd_card_find_next+0x2b0>
   832fc:	e0bfee03 	ldbu	r2,-72(fp)
   83300:	10803fcc 	andi	r2,r2,255
   83304:	10803960 	cmpeqi	r2,r2,229
   83308:	1000121e 	bne	r2,zero,83354 <sd_card_find_next+0x2b0>
									{
										/* Update search structure. */
										search_data.current_cluster_index = cluster;
   8330c:	e0ffec17 	ldw	r3,-80(fp)
   83310:	008002b4 	movhi	r2,10
   83314:	108e6504 	addi	r2,r2,14740
   83318:	10c00115 	stw	r3,4(r2)
										search_data.file_index_in_sector = file_counter;
   8331c:	e0bfe817 	ldw	r2,-96(fp)
   83320:	1007883a 	mov	r3,r2
   83324:	008002b4 	movhi	r2,10
   83328:	108e6504 	addi	r2,r2,14740
   8332c:	10c0030d 	sth	r3,12(r2)
										search_data.current_sector_in_cluster = sector_index;
   83330:	e0ffe617 	ldw	r3,-104(fp)
   83334:	008002b4 	movhi	r2,10
   83338:	108e6504 	addi	r2,r2,14740
   8333c:	10c00215 	stw	r3,8(r2)

										/* Copy file name.*/
										copy_file_record_name_to_string(&file_record, file_name);
   83340:	e13fee04 	addi	r4,fp,-72
   83344:	e17ffe17 	ldw	r5,-8(fp)
   83348:	0082d4c0 	call	82d4c <copy_file_record_name_to_string>
										return 0;
   8334c:	e03fff15 	stw	zero,-4(fp)
   83350:	00003806 	br	83434 <sd_card_find_next+0x390>
			        
					for (sector_index = 0; sector_index < boot_sector_data.sectors_per_cluster; sector_index++)
					{
						if (Read_Sector_Data(sector_index + start_sector, fat_partition_offset_in_512_byte_sectors))
						{        
							for (; file_counter < 16; file_counter++)
   83354:	e0bfe817 	ldw	r2,-96(fp)
   83358:	10800044 	addi	r2,r2,1
   8335c:	e0bfe815 	stw	r2,-96(fp)
   83360:	e0bfe817 	ldw	r2,-96(fp)
   83364:	10800410 	cmplti	r2,r2,16
   83368:	103fd81e 	bne	r2,zero,832cc <sd_card_find_next+0x228>
										copy_file_record_name_to_string(&file_record, file_name);
										return 0;
									}
								}
							}
							file_counter = 0;
   8336c:	e03fe815 	stw	zero,-96(fp)
				do 
				{
					int start_sector = ( cluster - 2 ) * ( boot_sector_data.sectors_per_cluster ) + boot_sector_data.data_sector_offset;
					int sector_index;
			        
					for (sector_index = 0; sector_index < boot_sector_data.sectors_per_cluster; sector_index++)
   83370:	e0bfe617 	ldw	r2,-104(fp)
   83374:	10800044 	addi	r2,r2,1
   83378:	e0bfe615 	stw	r2,-104(fp)
   8337c:	008002b4 	movhi	r2,10
   83380:	108e6a04 	addi	r2,r2,14760
   83384:	10800383 	ldbu	r2,14(r2)
   83388:	10c03fcc 	andi	r3,r2,255
   8338c:	e0bfe617 	ldw	r2,-104(fp)
   83390:	10ffc616 	blt	r2,r3,832ac <sd_card_find_next+0x208>
							break;
						}
					}
					// If this is the end of the cluster and the file has not been found, then see if there is another cluster
					// that holds data for the current directory.
					if (sector_index >= boot_sector_data.sectors_per_cluster)
   83394:	008002b4 	movhi	r2,10
   83398:	108e6a04 	addi	r2,r2,14760
   8339c:	10800383 	ldbu	r2,14(r2)
   833a0:	10c03fcc 	andi	r3,r2,255
   833a4:	e0bfe617 	ldw	r2,-104(fp)
   833a8:	10c01a16 	blt	r2,r3,83414 <sd_card_find_next+0x370>
					{
						short int new_cluster;

						if (get_cluster_flag(cluster, &new_cluster))
   833ac:	e13fec17 	ldw	r4,-80(fp)
   833b0:	e17fed84 	addi	r5,fp,-74
   833b4:	008062c0 	call	8062c <get_cluster_flag>
   833b8:	1005003a 	cmpeq	r2,r2,zero
   833bc:	1000131e 	bne	r2,zero,8340c <sd_card_find_next+0x368>
						{
							if ((new_cluster & 0x0000fff8) == 0x0000fff8)
   833c0:	e0bfed8b 	ldhu	r2,-74(fp)
   833c4:	10bfffcc 	andi	r2,r2,65535
   833c8:	10a0001c 	xori	r2,r2,32768
   833cc:	10a00004 	addi	r2,r2,-32768
   833d0:	10fffe0c 	andi	r3,r2,65528
   833d4:	00bffe14 	movui	r2,65528
   833d8:	1880051e 	bne	r3,r2,833f0 <sd_card_find_next+0x34c>
							{
								result = -1;
   833dc:	00bfffc4 	movi	r2,-1
   833e0:	e0bfed0d 	sth	r2,-76(fp)
								search_data.valid = false;
   833e4:	008002b4 	movhi	r2,10
   833e8:	108e6504 	addi	r2,r2,14740
   833ec:	10000415 	stw	zero,16(r2)
							}
							cluster = ((new_cluster) & 0x0000fff8);
   833f0:	e0bfed8b 	ldhu	r2,-74(fp)
   833f4:	10bfffcc 	andi	r2,r2,65535
   833f8:	10a0001c 	xori	r2,r2,32768
   833fc:	10a00004 	addi	r2,r2,-32768
   83400:	10bffe0c 	andi	r2,r2,65528
   83404:	e0bfec15 	stw	r2,-80(fp)
   83408:	00000206 	br	83414 <sd_card_find_next+0x370>
						}
						else
						{
							// Error encountered.                 
							result = -1;
   8340c:	00bfffc4 	movi	r2,-1
   83410:	e0bfed0d 	sth	r2,-76(fp)
						}
					}              
				} while (cluster < 0x0000fff8);
   83414:	e0ffec17 	ldw	r3,-80(fp)
   83418:	00bffdd4 	movui	r2,65527
   8341c:	10ff940e 	bge	r2,r3,83270 <sd_card_find_next+0x1cc>
   83420:	00000206 	br	8342c <sd_card_find_next+0x388>
			}
		}
		else
		{
			// Call Find_First first.
			result = 3;
   83424:	008000c4 	movi	r2,3
   83428:	e0bfed0d 	sth	r2,-76(fp)
		}
	}
	return result;
   8342c:	e0bfed0f 	ldh	r2,-76(fp)
   83430:	e0bfff15 	stw	r2,-4(fp)
   83434:	e0bfff17 	ldw	r2,-4(fp)
}
   83438:	e037883a 	mov	sp,fp
   8343c:	dfc00117 	ldw	ra,4(sp)
   83440:	df000017 	ldw	fp,0(sp)
   83444:	dec00204 	addi	sp,sp,8
   83448:	f800283a 	ret

0008344c <sd_card_fopen>:
 *      create - a flag set to true to create a file if it does not already exist
 * Output:
 *      An index to the file record assigned to the specified file. -1 is returned if the file could not be opened.
 *		Return -2 if the specified file has already been opened previously.
 */
{
   8344c:	deffe804 	addi	sp,sp,-96
   83450:	dfc01715 	stw	ra,92(sp)
   83454:	df001615 	stw	fp,88(sp)
   83458:	df001604 	addi	fp,sp,88
   8345c:	e13ffd15 	stw	r4,-12(fp)
   83460:	e17ffe15 	stw	r5,-8(fp)
	short int file_record_index = -1;
   83464:	00bfffc4 	movi	r2,-1
   83468:	e0bfeb0d 	sth	r2,-84(fp)

	if ((sd_card_is_Present()) && (is_sd_card_formated_as_FAT16))
   8346c:	0082ef80 	call	82ef8 <sd_card_is_Present>
   83470:	1005003a 	cmpeq	r2,r2,zero
   83474:	1000d71e 	bne	r2,zero,837d4 <sd_card_fopen+0x388>
   83478:	d0a70117 	ldw	r2,-25596(gp)
   8347c:	1005003a 	cmpeq	r2,r2,zero
   83480:	1000d41e 	bne	r2,zero,837d4 <sd_card_fopen+0x388>
	{
        unsigned int home_directory_cluster = 0;
   83484:	e03fec15 	stw	zero,-80(fp)
         * Rules:
         *  - no spaces
         *  - at most 12 chatacters per name, with a period in 9th position.
         *  - a / or a \ every at most 12 characters.
         */
        filename_to_upper_case(name);
   83488:	e13ffd17 	ldw	r4,-12(fp)
   8348c:	00813380 	call	81338 <filename_to_upper_case>
        if (check_file_name_for_FAT16_compliance(name))
   83490:	e13ffd17 	ldw	r4,-12(fp)
   83494:	00814080 	call	81408 <check_file_name_for_FAT16_compliance>
   83498:	1005003a 	cmpeq	r2,r2,zero
   8349c:	1000cd1e 	bne	r2,zero,837d4 <sd_card_fopen+0x388>
        {
			int index;

            /* Get home directory cluster location for the specified file. 0 means root directory. */
            if (!get_home_directory_cluster_for_file(name, &home_directory_cluster, &home_dir))
   834a0:	e17fec04 	addi	r5,fp,-80
   834a4:	e1bfed04 	addi	r6,fp,-76
   834a8:	e13ffd17 	ldw	r4,-12(fp)
   834ac:	0081a440 	call	81a44 <get_home_directory_cluster_for_file>
   834b0:	1004c03a 	cmpne	r2,r2,zero
   834b4:	1000031e 	bne	r2,zero,834c4 <sd_card_fopen+0x78>
            {
                return file_record_index;
   834b8:	e0bfeb0f 	ldh	r2,-84(fp)
   834bc:	e0bfff15 	stw	r2,-4(fp)
   834c0:	0000c606 	br	837dc <sd_card_fopen+0x390>
            }
            
    		/* Find a free file slot to store file specs in. */
    		for (index = 0; index < MAX_FILES_OPENED; index++)
   834c4:	e03fea15 	stw	zero,-88(fp)
   834c8:	00000f06 	br	83508 <sd_card_fopen+0xbc>
    		{
    			if (active_files[index].in_use == false)
   834cc:	e0bfea17 	ldw	r2,-88(fp)
   834d0:	00c002b4 	movhi	r3,10
   834d4:	18ce7f04 	addi	r3,r3,14844
   834d8:	100491ba 	slli	r2,r2,6
   834dc:	10c5883a 	add	r2,r2,r3
   834e0:	10800f04 	addi	r2,r2,60
   834e4:	10800017 	ldw	r2,0(r2)
   834e8:	1004c03a 	cmpne	r2,r2,zero
   834ec:	1000031e 	bne	r2,zero,834fc <sd_card_fopen+0xb0>
    			{
    				file_record_index = index;
   834f0:	e0bfea17 	ldw	r2,-88(fp)
   834f4:	e0bfeb0d 	sth	r2,-84(fp)
    				break;
   834f8:	00000606 	br	83514 <sd_card_fopen+0xc8>
            {
                return file_record_index;
            }
            
    		/* Find a free file slot to store file specs in. */
    		for (index = 0; index < MAX_FILES_OPENED; index++)
   834fc:	e0bfea17 	ldw	r2,-88(fp)
   83500:	10800044 	addi	r2,r2,1
   83504:	e0bfea15 	stw	r2,-88(fp)
   83508:	e0bfea17 	ldw	r2,-88(fp)
   8350c:	10800510 	cmplti	r2,r2,20
   83510:	103fee1e 	bne	r2,zero,834cc <sd_card_fopen+0x80>
    			{
    				file_record_index = index;
    				break;
    			}
    		}
    		if (file_record_index >= 0)
   83514:	e0bfeb0f 	ldh	r2,-84(fp)
   83518:	1004803a 	cmplt	r2,r2,zero
   8351c:	1000ad1e 	bne	r2,zero,837d4 <sd_card_fopen+0x388>
    		{
    			/* If file record is found, then look for the specified file. If the create flag is set to true 
    			 * and the file is not found, then it should be created in the current directory. 
    			 */
                
                if (find_file_in_directory(home_directory_cluster, name, &(active_files[file_record_index])))
   83520:	e0bfec17 	ldw	r2,-80(fp)
   83524:	1009883a 	mov	r4,r2
   83528:	e0bfeb0f 	ldh	r2,-84(fp)
   8352c:	100491ba 	slli	r2,r2,6
   83530:	1007883a 	mov	r3,r2
   83534:	008002b4 	movhi	r2,10
   83538:	108e7f04 	addi	r2,r2,14844
   8353c:	188d883a 	add	r6,r3,r2
   83540:	e17ffd17 	ldw	r5,-12(fp)
   83544:	0081f580 	call	81f58 <find_file_in_directory>
   83548:	1005003a 	cmpeq	r2,r2,zero
   8354c:	10007d1e 	bne	r2,zero,83744 <sd_card_fopen+0x2f8>
                {
                    if (create)
   83550:	e0bffe17 	ldw	r2,-8(fp)
   83554:	1005003a 	cmpeq	r2,r2,zero
   83558:	1000031e 	bne	r2,zero,83568 <sd_card_fopen+0x11c>
                    {
                        /* Do not allow overwriting existing files for now. */
                        return -1;
   8355c:	00bfffc4 	movi	r2,-1
   83560:	e0bfff15 	stw	r2,-4(fp)
   83564:	00009d06 	br	837dc <sd_card_fopen+0x390>
                    }
                    active_files[file_record_index].current_cluster_index = active_files[file_record_index].start_cluster_index;
   83568:	e17feb0f 	ldh	r5,-84(fp)
   8356c:	e0bfeb0f 	ldh	r2,-84(fp)
   83570:	00c002b4 	movhi	r3,10
   83574:	18ce7f04 	addi	r3,r3,14844
   83578:	100491ba 	slli	r2,r2,6
   8357c:	10c5883a 	add	r2,r2,r3
   83580:	10800504 	addi	r2,r2,20
   83584:	1080008b 	ldhu	r2,2(r2)
   83588:	113fffcc 	andi	r4,r2,65535
   8358c:	00c002b4 	movhi	r3,10
   83590:	18ce7f04 	addi	r3,r3,14844
   83594:	280491ba 	slli	r2,r5,6
   83598:	10c5883a 	add	r2,r2,r3
   8359c:	10800704 	addi	r2,r2,28
   835a0:	11000015 	stw	r4,0(r2)
                    active_files[file_record_index].current_sector_in_cluster = 0;
   835a4:	e0bfeb0f 	ldh	r2,-84(fp)
   835a8:	00c002b4 	movhi	r3,10
   835ac:	18ce7f04 	addi	r3,r3,14844
   835b0:	100491ba 	slli	r2,r2,6
   835b4:	10c5883a 	add	r2,r2,r3
   835b8:	10800804 	addi	r2,r2,32
   835bc:	10000015 	stw	zero,0(r2)
                    active_files[file_record_index].current_byte_position = 0;
   835c0:	e0bfeb0f 	ldh	r2,-84(fp)
   835c4:	00c002b4 	movhi	r3,10
   835c8:	18ce7f04 	addi	r3,r3,14844
   835cc:	100491ba 	slli	r2,r2,6
   835d0:	10c5883a 	add	r2,r2,r3
   835d4:	10800904 	addi	r2,r2,36
   835d8:	10000015 	stw	zero,0(r2)
                    active_files[file_record_index].in_use = true;
   835dc:	e0bfeb0f 	ldh	r2,-84(fp)
   835e0:	00c002b4 	movhi	r3,10
   835e4:	18ce7f04 	addi	r3,r3,14844
   835e8:	100491ba 	slli	r2,r2,6
   835ec:	10c5883a 	add	r2,r2,r3
   835f0:	10c00f04 	addi	r3,r2,60
   835f4:	00800044 	movi	r2,1
   835f8:	18800015 	stw	r2,0(r3)
    				active_files[file_record_index].modified = false;
   835fc:	e0bfeb0f 	ldh	r2,-84(fp)
   83600:	00c002b4 	movhi	r3,10
   83604:	18ce7f04 	addi	r3,r3,14844
   83608:	100491ba 	slli	r2,r2,6
   8360c:	10c5883a 	add	r2,r2,r3
   83610:	10800e04 	addi	r2,r2,56
   83614:	10000015 	stw	zero,0(r2)

					/* Check if the file has already been opened. */
					for (index = 0; index < MAX_FILES_OPENED; index++)
   83618:	e03fea15 	stw	zero,-88(fp)
   8361c:	00004506 	br	83734 <sd_card_fopen+0x2e8>
					{
						if ((file_record_index != index) && (active_files[index].in_use == true))
   83620:	e0ffeb0f 	ldh	r3,-84(fp)
   83624:	e0bfea17 	ldw	r2,-88(fp)
   83628:	18803f26 	beq	r3,r2,83728 <sd_card_fopen+0x2dc>
   8362c:	e0bfea17 	ldw	r2,-88(fp)
   83630:	00c002b4 	movhi	r3,10
   83634:	18ce7f04 	addi	r3,r3,14844
   83638:	100491ba 	slli	r2,r2,6
   8363c:	10c5883a 	add	r2,r2,r3
   83640:	10800f04 	addi	r2,r2,60
   83644:	10800017 	ldw	r2,0(r2)
   83648:	10800058 	cmpnei	r2,r2,1
   8364c:	1000361e 	bne	r2,zero,83728 <sd_card_fopen+0x2dc>
						{
							if ((active_files[file_record_index].file_record_cluster == active_files[index].file_record_cluster) &&
   83650:	e0bfeb0f 	ldh	r2,-84(fp)
   83654:	00c002b4 	movhi	r3,10
   83658:	18ce7f04 	addi	r3,r3,14844
   8365c:	100491ba 	slli	r2,r2,6
   83660:	10c5883a 	add	r2,r2,r3
   83664:	10800a04 	addi	r2,r2,40
   83668:	11000017 	ldw	r4,0(r2)
   8366c:	e0bfea17 	ldw	r2,-88(fp)
   83670:	00c002b4 	movhi	r3,10
   83674:	18ce7f04 	addi	r3,r3,14844
   83678:	100491ba 	slli	r2,r2,6
   8367c:	10c5883a 	add	r2,r2,r3
   83680:	10800a04 	addi	r2,r2,40
   83684:	10800017 	ldw	r2,0(r2)
   83688:	2080271e 	bne	r4,r2,83728 <sd_card_fopen+0x2dc>
   8368c:	e0bfeb0f 	ldh	r2,-84(fp)
   83690:	00c002b4 	movhi	r3,10
   83694:	18ce7f04 	addi	r3,r3,14844
   83698:	100491ba 	slli	r2,r2,6
   8369c:	10c5883a 	add	r2,r2,r3
   836a0:	10800b04 	addi	r2,r2,44
   836a4:	11000017 	ldw	r4,0(r2)
   836a8:	e0bfea17 	ldw	r2,-88(fp)
   836ac:	00c002b4 	movhi	r3,10
   836b0:	18ce7f04 	addi	r3,r3,14844
   836b4:	100491ba 	slli	r2,r2,6
   836b8:	10c5883a 	add	r2,r2,r3
   836bc:	10800b04 	addi	r2,r2,44
   836c0:	10800017 	ldw	r2,0(r2)
   836c4:	2080181e 	bne	r4,r2,83728 <sd_card_fopen+0x2dc>
   836c8:	e0bfeb0f 	ldh	r2,-84(fp)
   836cc:	00c002b4 	movhi	r3,10
   836d0:	18ce7f04 	addi	r3,r3,14844
   836d4:	100491ba 	slli	r2,r2,6
   836d8:	10c5883a 	add	r2,r2,r3
   836dc:	10800c04 	addi	r2,r2,48
   836e0:	1100000b 	ldhu	r4,0(r2)
   836e4:	e0bfea17 	ldw	r2,-88(fp)
   836e8:	00c002b4 	movhi	r3,10
   836ec:	18ce7f04 	addi	r3,r3,14844
   836f0:	100491ba 	slli	r2,r2,6
   836f4:	10c5883a 	add	r2,r2,r3
   836f8:	10800c04 	addi	r2,r2,48
   836fc:	1080000b 	ldhu	r2,0(r2)
   83700:	20ffffcc 	andi	r3,r4,65535
   83704:	18e0001c 	xori	r3,r3,32768
   83708:	18e00004 	addi	r3,r3,-32768
   8370c:	10bfffcc 	andi	r2,r2,65535
   83710:	10a0001c 	xori	r2,r2,32768
   83714:	10a00004 	addi	r2,r2,-32768
   83718:	1880031e 	bne	r3,r2,83728 <sd_card_fopen+0x2dc>
								(active_files[file_record_index].file_record_sector_in_cluster == active_files[index].file_record_sector_in_cluster) &&
								(active_files[file_record_index].file_record_offset == active_files[index].file_record_offset))
							{
								// file already in use.
								file_record_index = -2;
   8371c:	00bfff84 	movi	r2,-2
   83720:	e0bfeb0d 	sth	r2,-84(fp)
								break;
   83724:	00002b06 	br	837d4 <sd_card_fopen+0x388>
                    active_files[file_record_index].current_byte_position = 0;
                    active_files[file_record_index].in_use = true;
    				active_files[file_record_index].modified = false;

					/* Check if the file has already been opened. */
					for (index = 0; index < MAX_FILES_OPENED; index++)
   83728:	e0bfea17 	ldw	r2,-88(fp)
   8372c:	10800044 	addi	r2,r2,1
   83730:	e0bfea15 	stw	r2,-88(fp)
   83734:	e0bfea17 	ldw	r2,-88(fp)
   83738:	10800510 	cmplti	r2,r2,20
   8373c:	103fb81e 	bne	r2,zero,83620 <sd_card_fopen+0x1d4>
   83740:	00002406 	br	837d4 <sd_card_fopen+0x388>
							}
						}
					}

                }
                else if (create)
   83744:	e0bffe17 	ldw	r2,-8(fp)
   83748:	1005003a 	cmpeq	r2,r2,zero
   8374c:	10001f1e 	bne	r2,zero,837cc <sd_card_fopen+0x380>
                {
                    /* Create file if needed. */
                    if (create_file(name, &(active_files[file_record_index]), &home_dir))
   83750:	e0bfeb0f 	ldh	r2,-84(fp)
   83754:	100491ba 	slli	r2,r2,6
   83758:	1007883a 	mov	r3,r2
   8375c:	008002b4 	movhi	r2,10
   83760:	108e7f04 	addi	r2,r2,14844
   83764:	188b883a 	add	r5,r3,r2
   83768:	e1bfed04 	addi	r6,fp,-76
   8376c:	e13ffd17 	ldw	r4,-12(fp)
   83770:	0082a600 	call	82a60 <create_file>
   83774:	1005003a 	cmpeq	r2,r2,zero
   83778:	1000111e 	bne	r2,zero,837c0 <sd_card_fopen+0x374>
                    {
                        active_files[file_record_index].in_use = true;
   8377c:	e0bfeb0f 	ldh	r2,-84(fp)
   83780:	00c002b4 	movhi	r3,10
   83784:	18ce7f04 	addi	r3,r3,14844
   83788:	100491ba 	slli	r2,r2,6
   8378c:	10c5883a 	add	r2,r2,r3
   83790:	10c00f04 	addi	r3,r2,60
   83794:	00800044 	movi	r2,1
   83798:	18800015 	stw	r2,0(r3)
    					active_files[file_record_index].modified = true;
   8379c:	e0bfeb0f 	ldh	r2,-84(fp)
   837a0:	00c002b4 	movhi	r3,10
   837a4:	18ce7f04 	addi	r3,r3,14844
   837a8:	100491ba 	slli	r2,r2,6
   837ac:	10c5883a 	add	r2,r2,r3
   837b0:	10c00e04 	addi	r3,r2,56
   837b4:	00800044 	movi	r2,1
   837b8:	18800015 	stw	r2,0(r3)
   837bc:	00000506 	br	837d4 <sd_card_fopen+0x388>
                    }
                    else
                    {
                        /* If file creation fails then return an invalid file handle. */
                        file_record_index = -1;
   837c0:	00bfffc4 	movi	r2,-1
   837c4:	e0bfeb0d 	sth	r2,-84(fp)
   837c8:	00000206 	br	837d4 <sd_card_fopen+0x388>
                    }                
                }
                else
                {
                    /* Otherwise the file could not be opened.*/
                    file_record_index = -1;
   837cc:	00bfffc4 	movi	r2,-1
   837d0:	e0bfeb0d 	sth	r2,-84(fp)
                }
    		}
        }
	}

	return file_record_index;
   837d4:	e0bfeb0f 	ldh	r2,-84(fp)
   837d8:	e0bfff15 	stw	r2,-4(fp)
   837dc:	e0bfff17 	ldw	r2,-4(fp)
}
   837e0:	e037883a 	mov	sp,fp
   837e4:	dfc00117 	ldw	ra,4(sp)
   837e8:	df000017 	ldw	fp,0(sp)
   837ec:	dec00204 	addi	sp,sp,8
   837f0:	f800283a 	ret

000837f4 <sd_card_set_attributes>:


void sd_card_set_attributes(short int file_handle, short int attributes)
/* Return file attributes, or -1 if the file_handle is invalid.
 */
{
   837f4:	defffd04 	addi	sp,sp,-12
   837f8:	df000215 	stw	fp,8(sp)
   837fc:	df000204 	addi	fp,sp,8
   83800:	e13ffe0d 	sth	r4,-8(fp)
   83804:	e17fff0d 	sth	r5,-4(fp)
    if ((file_handle >= 0) && (file_handle < MAX_FILES_OPENED))
   83808:	e0bffe0f 	ldh	r2,-8(fp)
   8380c:	1004803a 	cmplt	r2,r2,zero
   83810:	1000181e 	bne	r2,zero,83874 <sd_card_set_attributes+0x80>
   83814:	e0bffe0f 	ldh	r2,-8(fp)
   83818:	10800508 	cmpgei	r2,r2,20
   8381c:	1000151e 	bne	r2,zero,83874 <sd_card_set_attributes+0x80>
    {
        if (active_files[file_handle].in_use)
   83820:	e0bffe0f 	ldh	r2,-8(fp)
   83824:	00c002b4 	movhi	r3,10
   83828:	18ce7f04 	addi	r3,r3,14844
   8382c:	100491ba 	slli	r2,r2,6
   83830:	10c5883a 	add	r2,r2,r3
   83834:	10800f04 	addi	r2,r2,60
   83838:	10800017 	ldw	r2,0(r2)
   8383c:	1005003a 	cmpeq	r2,r2,zero
   83840:	10000c1e 	bne	r2,zero,83874 <sd_card_set_attributes+0x80>
        {
            active_files[file_handle].attributes = ((char)(attributes & 0x00ff));
   83844:	e17ffe0f 	ldh	r5,-8(fp)
   83848:	e0bfff0b 	ldhu	r2,-4(fp)
   8384c:	1007883a 	mov	r3,r2
   83850:	00bfffc4 	movi	r2,-1
   83854:	1884703a 	and	r2,r3,r2
   83858:	1009883a 	mov	r4,r2
   8385c:	00c002b4 	movhi	r3,10
   83860:	18ce7f04 	addi	r3,r3,14844
   83864:	280491ba 	slli	r2,r5,6
   83868:	10c5883a 	add	r2,r2,r3
   8386c:	10800204 	addi	r2,r2,8
   83870:	110000c5 	stb	r4,3(r2)
        }
    }
}
   83874:	e037883a 	mov	sp,fp
   83878:	df000017 	ldw	fp,0(sp)
   8387c:	dec00104 	addi	sp,sp,4
   83880:	f800283a 	ret

00083884 <sd_card_get_attributes>:


short int sd_card_get_attributes(short int file_handle)
/* Return file attributes, or -1 if the file_handle is invalid.
 */
{
   83884:	defffd04 	addi	sp,sp,-12
   83888:	df000215 	stw	fp,8(sp)
   8388c:	df000204 	addi	fp,sp,8
   83890:	e13fff0d 	sth	r4,-4(fp)
	short int result = -1;
   83894:	00bfffc4 	movi	r2,-1
   83898:	e0bffe0d 	sth	r2,-8(fp)
    if ((file_handle >= 0) && (file_handle < MAX_FILES_OPENED))
   8389c:	e0bfff0f 	ldh	r2,-4(fp)
   838a0:	1004803a 	cmplt	r2,r2,zero
   838a4:	1000151e 	bne	r2,zero,838fc <sd_card_get_attributes+0x78>
   838a8:	e0bfff0f 	ldh	r2,-4(fp)
   838ac:	10800508 	cmpgei	r2,r2,20
   838b0:	1000121e 	bne	r2,zero,838fc <sd_card_get_attributes+0x78>
    {
        if (active_files[file_handle].in_use)
   838b4:	e0bfff0f 	ldh	r2,-4(fp)
   838b8:	00c002b4 	movhi	r3,10
   838bc:	18ce7f04 	addi	r3,r3,14844
   838c0:	100491ba 	slli	r2,r2,6
   838c4:	10c5883a 	add	r2,r2,r3
   838c8:	10800f04 	addi	r2,r2,60
   838cc:	10800017 	ldw	r2,0(r2)
   838d0:	1005003a 	cmpeq	r2,r2,zero
   838d4:	1000091e 	bne	r2,zero,838fc <sd_card_get_attributes+0x78>
		{
			result = ((active_files[file_handle].attributes) & 0x00ff);
   838d8:	e0bfff0f 	ldh	r2,-4(fp)
   838dc:	00c002b4 	movhi	r3,10
   838e0:	18ce7f04 	addi	r3,r3,14844
   838e4:	100491ba 	slli	r2,r2,6
   838e8:	10c5883a 	add	r2,r2,r3
   838ec:	10800204 	addi	r2,r2,8
   838f0:	108000c3 	ldbu	r2,3(r2)
   838f4:	10803fcc 	andi	r2,r2,255
   838f8:	e0bffe0d 	sth	r2,-8(fp)
		}
	}
	return result;
   838fc:	e0bffe0f 	ldh	r2,-8(fp)
}
   83900:	e037883a 	mov	sp,fp
   83904:	df000017 	ldw	fp,0(sp)
   83908:	dec00104 	addi	sp,sp,4
   8390c:	f800283a 	ret

00083910 <sd_card_read>:

short int sd_card_read(short int file_handle)
/* Read a single character from a given file. Return -1 if at the end of a file. Any other negative number
