Archive member included because of file (symbol)

/tools/altera/12.0/nios2eds/bin/gnu/H-i686-pc-linux-gnu/bin/../lib/gcc/nios2-elf/4.1.2/mno-hw-mul/libgcc.a(lib2-divmod.o)
                              obj/default/tasks.o (__umodsi3)
/tools/altera/12.0/nios2eds/bin/gnu/H-i686-pc-linux-gnu/bin/../lib/gcc/nios2-elf/4.1.2/mno-hw-mul/libgcc.a(lib2-mul.o)
                              obj/default/PB_button.o (__mulsi3)
/tools/altera/12.0/nios2eds/bin/gnu/H-i686-pc-linux-gnu/bin/../lib/gcc/nios2-elf/4.1.2/../../../../nios2-elf/lib/mno-hw-mul/libc.a(lib_a-fprintf.o)
                              obj/default/alt_ucosii_simple_error_check.o (fprintf)
/tools/altera/12.0/nios2eds/bin/gnu/H-i686-pc-linux-gnu/bin/../lib/gcc/nios2-elf/4.1.2/../../../../nios2-elf/lib/mno-hw-mul/libc.a(lib_a-fwrite.o)
                              obj/default/alt_ucosii_simple_error_check.o (fwrite)
/tools/altera/12.0/nios2eds/bin/gnu/H-i686-pc-linux-gnu/bin/../lib/gcc/nios2-elf/4.1.2/../../../../nios2-elf/lib/mno-hw-mul/libc.a(lib_a-impure.o)
                              obj/default/alt_ucosii_simple_error_check.o (_impure_ptr)
/tools/altera/12.0/nios2eds/bin/gnu/H-i686-pc-linux-gnu/bin/../lib/gcc/nios2-elf/4.1.2/../../../../nios2-elf/lib/mno-hw-mul/libc.a(lib_a-printf.o)
                              obj/default/tasks.o (printf)
/tools/altera/12.0/nios2eds/bin/gnu/H-i686-pc-linux-gnu/bin/../lib/gcc/nios2-elf/4.1.2/../../../../nios2-elf/lib/mno-hw-mul/libc.a(lib_a-putchar.o)
                              obj/default/tasks.o (putchar)
/tools/altera/12.0/nios2eds/bin/gnu/H-i686-pc-linux-gnu/bin/../lib/gcc/nios2-elf/4.1.2/../../../../nios2-elf/lib/mno-hw-mul/libc.a(lib_a-puts.o)
                              obj/default/alt_ucosii_simple_error_check.o (puts)
/tools/altera/12.0/nios2eds/bin/gnu/H-i686-pc-linux-gnu/bin/../lib/gcc/nios2-elf/4.1.2/../../../../nios2-elf/lib/mno-hw-mul/libc.a(lib_a-rand.o)
                              obj/default/tasks.o (srand)
/tools/altera/12.0/nios2eds/bin/gnu/H-i686-pc-linux-gnu/bin/../lib/gcc/nios2-elf/4.1.2/../../../../nios2-elf/lib/mno-hw-mul/libc.a(lib_a-strlen.o)
                              /tools/altera/12.0/nios2eds/bin/gnu/H-i686-pc-linux-gnu/bin/../lib/gcc/nios2-elf/4.1.2/../../../../nios2-elf/lib/mno-hw-mul/libc.a(lib_a-puts.o) (strlen)
/tools/altera/12.0/nios2eds/bin/gnu/H-i686-pc-linux-gnu/bin/../lib/gcc/nios2-elf/4.1.2/../../../../nios2-elf/lib/mno-hw-mul/libc.a(lib_a-vfprintf.o)
                              /tools/altera/12.0/nios2eds/bin/gnu/H-i686-pc-linux-gnu/bin/../lib/gcc/nios2-elf/4.1.2/../../../../nios2-elf/lib/mno-hw-mul/libc.a(lib_a-printf.o) (___vfprintf_internal_r)
/tools/altera/12.0/nios2eds/bin/gnu/H-i686-pc-linux-gnu/bin/../lib/gcc/nios2-elf/4.1.2/../../../../nios2-elf/lib/mno-hw-mul/libc.a(lib_a-wsetup.o)
                              /tools/altera/12.0/nios2eds/bin/gnu/H-i686-pc-linux-gnu/bin/../lib/gcc/nios2-elf/4.1.2/../../../../nios2-elf/lib/mno-hw-mul/libc.a(lib_a-vfprintf.o) (__swsetup_r)
/tools/altera/12.0/nios2eds/bin/gnu/H-i686-pc-linux-gnu/bin/../lib/gcc/nios2-elf/4.1.2/../../../../nios2-elf/lib/mno-hw-mul/libc.a(lib_a-dtoa.o)
                              /tools/altera/12.0/nios2eds/bin/gnu/H-i686-pc-linux-gnu/bin/../lib/gcc/nios2-elf/4.1.2/../../../../nios2-elf/lib/mno-hw-mul/libc.a(lib_a-vfprintf.o) (_dtoa_r)
/tools/altera/12.0/nios2eds/bin/gnu/H-i686-pc-linux-gnu/bin/../lib/gcc/nios2-elf/4.1.2/../../../../nios2-elf/lib/mno-hw-mul/libc.a(lib_a-fflush.o)
                              /tools/altera/12.0/nios2eds/bin/gnu/H-i686-pc-linux-gnu/bin/../lib/gcc/nios2-elf/4.1.2/../../../../nios2-elf/lib/mno-hw-mul/libc.a(lib_a-vfprintf.o) (_fflush_r)
/tools/altera/12.0/nios2eds/bin/gnu/H-i686-pc-linux-gnu/bin/../lib/gcc/nios2-elf/4.1.2/../../../../nios2-elf/lib/mno-hw-mul/libc.a(lib_a-findfp.o)
                              /tools/altera/12.0/nios2eds/bin/gnu/H-i686-pc-linux-gnu/bin/../lib/gcc/nios2-elf/4.1.2/../../../../nios2-elf/lib/mno-hw-mul/libc.a(lib_a-fwrite.o) (__sinit)
/tools/altera/12.0/nios2eds/bin/gnu/H-i686-pc-linux-gnu/bin/../lib/gcc/nios2-elf/4.1.2/../../../../nios2-elf/lib/mno-hw-mul/libc.a(lib_a-freer.o)
                              /tools/altera/12.0/nios2eds/bin/gnu/H-i686-pc-linux-gnu/bin/../lib/gcc/nios2-elf/4.1.2/../../../../nios2-elf/lib/mno-hw-mul/libc.a(lib_a-wsetup.o) (_free_r)
/tools/altera/12.0/nios2eds/bin/gnu/H-i686-pc-linux-gnu/bin/../lib/gcc/nios2-elf/4.1.2/../../../../nios2-elf/lib/mno-hw-mul/libc.a(lib_a-fvwrite.o)
                              /tools/altera/12.0/nios2eds/bin/gnu/H-i686-pc-linux-gnu/bin/../lib/gcc/nios2-elf/4.1.2/../../../../nios2-elf/lib/mno-hw-mul/libc.a(lib_a-fwrite.o) (__sfvwrite_r)
/tools/altera/12.0/nios2eds/bin/gnu/H-i686-pc-linux-gnu/bin/../lib/gcc/nios2-elf/4.1.2/../../../../nios2-elf/lib/mno-hw-mul/libc.a(lib_a-fwalk.o)
                              /tools/altera/12.0/nios2eds/bin/gnu/H-i686-pc-linux-gnu/bin/../lib/gcc/nios2-elf/4.1.2/../../../../nios2-elf/lib/mno-hw-mul/libc.a(lib_a-fflush.o) (_fwalk_reent)
/tools/altera/12.0/nios2eds/bin/gnu/H-i686-pc-linux-gnu/bin/../lib/gcc/nios2-elf/4.1.2/../../../../nios2-elf/lib/mno-hw-mul/libc.a(lib_a-locale.o)
                              /tools/altera/12.0/nios2eds/bin/gnu/H-i686-pc-linux-gnu/bin/../lib/gcc/nios2-elf/4.1.2/../../../../nios2-elf/lib/mno-hw-mul/libc.a(lib_a-vfprintf.o) (_localeconv_r)
/tools/altera/12.0/nios2eds/bin/gnu/H-i686-pc-linux-gnu/bin/../lib/gcc/nios2-elf/4.1.2/../../../../nios2-elf/lib/mno-hw-mul/libc.a(lib_a-makebuf.o)
                              /tools/altera/12.0/nios2eds/bin/gnu/H-i686-pc-linux-gnu/bin/../lib/gcc/nios2-elf/4.1.2/../../../../nios2-elf/lib/mno-hw-mul/libc.a(lib_a-wsetup.o) (__smakebuf_r)
/tools/altera/12.0/nios2eds/bin/gnu/H-i686-pc-linux-gnu/bin/../lib/gcc/nios2-elf/4.1.2/../../../../nios2-elf/lib/mno-hw-mul/libc.a(lib_a-mallocr.o)
                              /tools/altera/12.0/nios2eds/bin/gnu/H-i686-pc-linux-gnu/bin/../lib/gcc/nios2-elf/4.1.2/../../../../nios2-elf/lib/mno-hw-mul/libc.a(lib_a-findfp.o) (_malloc_r)
/tools/altera/12.0/nios2eds/bin/gnu/H-i686-pc-linux-gnu/bin/../lib/gcc/nios2-elf/4.1.2/../../../../nios2-elf/lib/mno-hw-mul/libc.a(lib_a-memchr.o)
                              /tools/altera/12.0/nios2eds/bin/gnu/H-i686-pc-linux-gnu/bin/../lib/gcc/nios2-elf/4.1.2/../../../../nios2-elf/lib/mno-hw-mul/libc.a(lib_a-vfprintf.o) (memchr)
/tools/altera/12.0/nios2eds/bin/gnu/H-i686-pc-linux-gnu/bin/../lib/gcc/nios2-elf/4.1.2/../../../../nios2-elf/lib/mno-hw-mul/libc.a(lib_a-memcpy.o)
                              /tools/altera/12.0/nios2eds/bin/gnu/H-i686-pc-linux-gnu/bin/../lib/gcc/nios2-elf/4.1.2/../../../../nios2-elf/lib/mno-hw-mul/libc.a(lib_a-dtoa.o) (memcpy)
/tools/altera/12.0/nios2eds/bin/gnu/H-i686-pc-linux-gnu/bin/../lib/gcc/nios2-elf/4.1.2/../../../../nios2-elf/lib/mno-hw-mul/libc.a(lib_a-memmove.o)
                              /tools/altera/12.0/nios2eds/bin/gnu/H-i686-pc-linux-gnu/bin/../lib/gcc/nios2-elf/4.1.2/../../../../nios2-elf/lib/mno-hw-mul/libc.a(lib_a-fvwrite.o) (memmove)
/tools/altera/12.0/nios2eds/bin/gnu/H-i686-pc-linux-gnu/bin/../lib/gcc/nios2-elf/4.1.2/../../../../nios2-elf/lib/mno-hw-mul/libc.a(lib_a-memset.o)
                              /tools/altera/12.0/nios2eds/bin/gnu/H-i686-pc-linux-gnu/bin/../lib/gcc/nios2-elf/4.1.2/../../../../nios2-elf/lib/mno-hw-mul/libc.a(lib_a-findfp.o) (memset)
/tools/altera/12.0/nios2eds/bin/gnu/H-i686-pc-linux-gnu/bin/../lib/gcc/nios2-elf/4.1.2/../../../../nios2-elf/lib/mno-hw-mul/libc.a(lib_a-mprec.o)
                              /tools/altera/12.0/nios2eds/bin/gnu/H-i686-pc-linux-gnu/bin/../lib/gcc/nios2-elf/4.1.2/../../../../nios2-elf/lib/mno-hw-mul/libc.a(lib_a-dtoa.o) (_Bfree)
/tools/altera/12.0/nios2eds/bin/gnu/H-i686-pc-linux-gnu/bin/../lib/gcc/nios2-elf/4.1.2/../../../../nios2-elf/lib/mno-hw-mul/libc.a(lib_a-putc.o)
                              /tools/altera/12.0/nios2eds/bin/gnu/H-i686-pc-linux-gnu/bin/../lib/gcc/nios2-elf/4.1.2/../../../../nios2-elf/lib/mno-hw-mul/libc.a(lib_a-putchar.o) (_putc_r)
/tools/altera/12.0/nios2eds/bin/gnu/H-i686-pc-linux-gnu/bin/../lib/gcc/nios2-elf/4.1.2/../../../../nios2-elf/lib/mno-hw-mul/libc.a(lib_a-reallocr.o)
                              /tools/altera/12.0/nios2eds/bin/gnu/H-i686-pc-linux-gnu/bin/../lib/gcc/nios2-elf/4.1.2/../../../../nios2-elf/lib/mno-hw-mul/libc.a(lib_a-fvwrite.o) (_realloc_r)
/tools/altera/12.0/nios2eds/bin/gnu/H-i686-pc-linux-gnu/bin/../lib/gcc/nios2-elf/4.1.2/../../../../nios2-elf/lib/mno-hw-mul/libc.a(lib_a-s_isinfd.o)
                              /tools/altera/12.0/nios2eds/bin/gnu/H-i686-pc-linux-gnu/bin/../lib/gcc/nios2-elf/4.1.2/../../../../nios2-elf/lib/mno-hw-mul/libc.a(lib_a-vfprintf.o) (__isinfd)
/tools/altera/12.0/nios2eds/bin/gnu/H-i686-pc-linux-gnu/bin/../lib/gcc/nios2-elf/4.1.2/../../../../nios2-elf/lib/mno-hw-mul/libc.a(lib_a-s_isnand.o)
                              /tools/altera/12.0/nios2eds/bin/gnu/H-i686-pc-linux-gnu/bin/../lib/gcc/nios2-elf/4.1.2/../../../../nios2-elf/lib/mno-hw-mul/libc.a(lib_a-vfprintf.o) (__isnand)
/tools/altera/12.0/nios2eds/bin/gnu/H-i686-pc-linux-gnu/bin/../lib/gcc/nios2-elf/4.1.2/../../../../nios2-elf/lib/mno-hw-mul/libc.a(lib_a-sbrkr.o)
                              /tools/altera/12.0/nios2eds/bin/gnu/H-i686-pc-linux-gnu/bin/../lib/gcc/nios2-elf/4.1.2/../../../../nios2-elf/lib/mno-hw-mul/libc.a(lib_a-freer.o) (_sbrk_r)
/tools/altera/12.0/nios2eds/bin/gnu/H-i686-pc-linux-gnu/bin/../lib/gcc/nios2-elf/4.1.2/../../../../nios2-elf/lib/mno-hw-mul/libc.a(lib_a-stdio.o)
                              /tools/altera/12.0/nios2eds/bin/gnu/H-i686-pc-linux-gnu/bin/../lib/gcc/nios2-elf/4.1.2/../../../../nios2-elf/lib/mno-hw-mul/libc.a(lib_a-findfp.o) (__sclose)
/tools/altera/12.0/nios2eds/bin/gnu/H-i686-pc-linux-gnu/bin/../lib/gcc/nios2-elf/4.1.2/../../../../nios2-elf/lib/mno-hw-mul/libc.a(lib_a-strcmp.o)
                              /tools/altera/12.0/nios2eds/bin/gnu/H-i686-pc-linux-gnu/bin/../lib/gcc/nios2-elf/4.1.2/../../../../nios2-elf/lib/mno-hw-mul/libc.a(lib_a-locale.o) (strcmp)
/tools/altera/12.0/nios2eds/bin/gnu/H-i686-pc-linux-gnu/bin/../lib/gcc/nios2-elf/4.1.2/../../../../nios2-elf/lib/mno-hw-mul/libc.a(lib_a-wbuf.o)
                              /tools/altera/12.0/nios2eds/bin/gnu/H-i686-pc-linux-gnu/bin/../lib/gcc/nios2-elf/4.1.2/../../../../nios2-elf/lib/mno-hw-mul/libc.a(lib_a-putc.o) (__swbuf_r)
/tools/altera/12.0/nios2eds/bin/gnu/H-i686-pc-linux-gnu/bin/../lib/gcc/nios2-elf/4.1.2/../../../../nios2-elf/lib/mno-hw-mul/libc.a(lib_a-writer.o)
                              /tools/altera/12.0/nios2eds/bin/gnu/H-i686-pc-linux-gnu/bin/../lib/gcc/nios2-elf/4.1.2/../../../../nios2-elf/lib/mno-hw-mul/libc.a(lib_a-stdio.o) (_write_r)
/tools/altera/12.0/nios2eds/bin/gnu/H-i686-pc-linux-gnu/bin/../lib/gcc/nios2-elf/4.1.2/../../../../nios2-elf/lib/mno-hw-mul/libc.a(lib_a-callocr.o)
                              /tools/altera/12.0/nios2eds/bin/gnu/H-i686-pc-linux-gnu/bin/../lib/gcc/nios2-elf/4.1.2/../../../../nios2-elf/lib/mno-hw-mul/libc.a(lib_a-mprec.o) (_calloc_r)
/tools/altera/12.0/nios2eds/bin/gnu/H-i686-pc-linux-gnu/bin/../lib/gcc/nios2-elf/4.1.2/../../../../nios2-elf/lib/mno-hw-mul/libc.a(lib_a-closer.o)
                              /tools/altera/12.0/nios2eds/bin/gnu/H-i686-pc-linux-gnu/bin/../lib/gcc/nios2-elf/4.1.2/../../../../nios2-elf/lib/mno-hw-mul/libc.a(lib_a-stdio.o) (_close_r)
/tools/altera/12.0/nios2eds/bin/gnu/H-i686-pc-linux-gnu/bin/../lib/gcc/nios2-elf/4.1.2/../../../../nios2-elf/lib/mno-hw-mul/libc.a(lib_a-fclose.o)
                              /tools/altera/12.0/nios2eds/bin/gnu/H-i686-pc-linux-gnu/bin/../lib/gcc/nios2-elf/4.1.2/../../../../nios2-elf/lib/mno-hw-mul/libc.a(lib_a-findfp.o) (fclose)
/tools/altera/12.0/nios2eds/bin/gnu/H-i686-pc-linux-gnu/bin/../lib/gcc/nios2-elf/4.1.2/../../../../nios2-elf/lib/mno-hw-mul/libc.a(lib_a-fstatr.o)
                              /tools/altera/12.0/nios2eds/bin/gnu/H-i686-pc-linux-gnu/bin/../lib/gcc/nios2-elf/4.1.2/../../../../nios2-elf/lib/mno-hw-mul/libc.a(lib_a-makebuf.o) (_fstat_r)
/tools/altera/12.0/nios2eds/bin/gnu/H-i686-pc-linux-gnu/bin/../lib/gcc/nios2-elf/4.1.2/../../../../nios2-elf/lib/mno-hw-mul/libc.a(lib_a-int_errno.o)
                              /tools/altera/12.0/nios2eds/bin/gnu/H-i686-pc-linux-gnu/bin/../lib/gcc/nios2-elf/4.1.2/../../../../nios2-elf/lib/mno-hw-mul/libc.a(lib_a-sbrkr.o) (errno)
/tools/altera/12.0/nios2eds/bin/gnu/H-i686-pc-linux-gnu/bin/../lib/gcc/nios2-elf/4.1.2/../../../../nios2-elf/lib/mno-hw-mul/libc.a(lib_a-isattyr.o)
                              /tools/altera/12.0/nios2eds/bin/gnu/H-i686-pc-linux-gnu/bin/../lib/gcc/nios2-elf/4.1.2/../../../../nios2-elf/lib/mno-hw-mul/libc.a(lib_a-makebuf.o) (_isatty_r)
/tools/altera/12.0/nios2eds/bin/gnu/H-i686-pc-linux-gnu/bin/../lib/gcc/nios2-elf/4.1.2/../../../../nios2-elf/lib/mno-hw-mul/libc.a(lib_a-lseekr.o)
                              /tools/altera/12.0/nios2eds/bin/gnu/H-i686-pc-linux-gnu/bin/../lib/gcc/nios2-elf/4.1.2/../../../../nios2-elf/lib/mno-hw-mul/libc.a(lib_a-stdio.o) (_lseek_r)
/tools/altera/12.0/nios2eds/bin/gnu/H-i686-pc-linux-gnu/bin/../lib/gcc/nios2-elf/4.1.2/../../../../nios2-elf/lib/mno-hw-mul/libc.a(lib_a-readr.o)
                              /tools/altera/12.0/nios2eds/bin/gnu/H-i686-pc-linux-gnu/bin/../lib/gcc/nios2-elf/4.1.2/../../../../nios2-elf/lib/mno-hw-mul/libc.a(lib_a-stdio.o) (_read_r)
/tools/altera/12.0/nios2eds/bin/gnu/H-i686-pc-linux-gnu/bin/../lib/gcc/nios2-elf/4.1.2/mno-hw-mul/libgcc.a(_muldi3.o)
                              /tools/altera/12.0/nios2eds/bin/gnu/H-i686-pc-linux-gnu/bin/../lib/gcc/nios2-elf/4.1.2/../../../../nios2-elf/lib/mno-hw-mul/libc.a(lib_a-rand.o) (__muldi3)
/tools/altera/12.0/nios2eds/bin/gnu/H-i686-pc-linux-gnu/bin/../lib/gcc/nios2-elf/4.1.2/mno-hw-mul/libgcc.a(_udivdi3.o)
                              /tools/altera/12.0/nios2eds/bin/gnu/H-i686-pc-linux-gnu/bin/../lib/gcc/nios2-elf/4.1.2/../../../../nios2-elf/lib/mno-hw-mul/libc.a(lib_a-vfprintf.o) (__udivdi3)
/tools/altera/12.0/nios2eds/bin/gnu/H-i686-pc-linux-gnu/bin/../lib/gcc/nios2-elf/4.1.2/mno-hw-mul/libgcc.a(_umoddi3.o)
                              /tools/altera/12.0/nios2eds/bin/gnu/H-i686-pc-linux-gnu/bin/../lib/gcc/nios2-elf/4.1.2/../../../../nios2-elf/lib/mno-hw-mul/libc.a(lib_a-vfprintf.o) (__umoddi3)
/tools/altera/12.0/nios2eds/bin/gnu/H-i686-pc-linux-gnu/bin/../lib/gcc/nios2-elf/4.1.2/mno-hw-mul/libgcc.a(_addsub_df.o)
                              /tools/altera/12.0/nios2eds/bin/gnu/H-i686-pc-linux-gnu/bin/../lib/gcc/nios2-elf/4.1.2/../../../../nios2-elf/lib/mno-hw-mul/libc.a(lib_a-dtoa.o) (__subdf3)
/tools/altera/12.0/nios2eds/bin/gnu/H-i686-pc-linux-gnu/bin/../lib/gcc/nios2-elf/4.1.2/mno-hw-mul/libgcc.a(_mul_df.o)
                              /tools/altera/12.0/nios2eds/bin/gnu/H-i686-pc-linux-gnu/bin/../lib/gcc/nios2-elf/4.1.2/../../../../nios2-elf/lib/mno-hw-mul/libc.a(lib_a-dtoa.o) (__muldf3)
/tools/altera/12.0/nios2eds/bin/gnu/H-i686-pc-linux-gnu/bin/../lib/gcc/nios2-elf/4.1.2/mno-hw-mul/libgcc.a(_div_df.o)
                              /tools/altera/12.0/nios2eds/bin/gnu/H-i686-pc-linux-gnu/bin/../lib/gcc/nios2-elf/4.1.2/../../../../nios2-elf/lib/mno-hw-mul/libc.a(lib_a-dtoa.o) (__divdf3)
/tools/altera/12.0/nios2eds/bin/gnu/H-i686-pc-linux-gnu/bin/../lib/gcc/nios2-elf/4.1.2/mno-hw-mul/libgcc.a(_eq_df.o)
                              /tools/altera/12.0/nios2eds/bin/gnu/H-i686-pc-linux-gnu/bin/../lib/gcc/nios2-elf/4.1.2/../../../../nios2-elf/lib/mno-hw-mul/libc.a(lib_a-vfprintf.o) (__eqdf2)
/tools/altera/12.0/nios2eds/bin/gnu/H-i686-pc-linux-gnu/bin/../lib/gcc/nios2-elf/4.1.2/mno-hw-mul/libgcc.a(_ne_df.o)
                              /tools/altera/12.0/nios2eds/bin/gnu/H-i686-pc-linux-gnu/bin/../lib/gcc/nios2-elf/4.1.2/../../../../nios2-elf/lib/mno-hw-mul/libc.a(lib_a-vfprintf.o) (__nedf2)
/tools/altera/12.0/nios2eds/bin/gnu/H-i686-pc-linux-gnu/bin/../lib/gcc/nios2-elf/4.1.2/mno-hw-mul/libgcc.a(_gt_df.o)
                              /tools/altera/12.0/nios2eds/bin/gnu/H-i686-pc-linux-gnu/bin/../lib/gcc/nios2-elf/4.1.2/../../../../nios2-elf/lib/mno-hw-mul/libc.a(lib_a-dtoa.o) (__gtdf2)
/tools/altera/12.0/nios2eds/bin/gnu/H-i686-pc-linux-gnu/bin/../lib/gcc/nios2-elf/4.1.2/mno-hw-mul/libgcc.a(_ge_df.o)
                              /tools/altera/12.0/nios2eds/bin/gnu/H-i686-pc-linux-gnu/bin/../lib/gcc/nios2-elf/4.1.2/../../../../nios2-elf/lib/mno-hw-mul/libc.a(lib_a-dtoa.o) (__gedf2)
/tools/altera/12.0/nios2eds/bin/gnu/H-i686-pc-linux-gnu/bin/../lib/gcc/nios2-elf/4.1.2/mno-hw-mul/libgcc.a(_lt_df.o)
                              /tools/altera/12.0/nios2eds/bin/gnu/H-i686-pc-linux-gnu/bin/../lib/gcc/nios2-elf/4.1.2/../../../../nios2-elf/lib/mno-hw-mul/libc.a(lib_a-vfprintf.o) (__ltdf2)
/tools/altera/12.0/nios2eds/bin/gnu/H-i686-pc-linux-gnu/bin/../lib/gcc/nios2-elf/4.1.2/mno-hw-mul/libgcc.a(_si_to_df.o)
                              /tools/altera/12.0/nios2eds/bin/gnu/H-i686-pc-linux-gnu/bin/../lib/gcc/nios2-elf/4.1.2/../../../../nios2-elf/lib/mno-hw-mul/libc.a(lib_a-dtoa.o) (__floatsidf)
/tools/altera/12.0/nios2eds/bin/gnu/H-i686-pc-linux-gnu/bin/../lib/gcc/nios2-elf/4.1.2/mno-hw-mul/libgcc.a(_df_to_si.o)
                              /tools/altera/12.0/nios2eds/bin/gnu/H-i686-pc-linux-gnu/bin/../lib/gcc/nios2-elf/4.1.2/../../../../nios2-elf/lib/mno-hw-mul/libc.a(lib_a-dtoa.o) (__fixdfsi)
/tools/altera/12.0/nios2eds/bin/gnu/H-i686-pc-linux-gnu/bin/../lib/gcc/nios2-elf/4.1.2/mno-hw-mul/libgcc.a(_thenan_df.o)
                              /tools/altera/12.0/nios2eds/bin/gnu/H-i686-pc-linux-gnu/bin/../lib/gcc/nios2-elf/4.1.2/mno-hw-mul/libgcc.a(_addsub_df.o) (__thenan_df)
/tools/altera/12.0/nios2eds/bin/gnu/H-i686-pc-linux-gnu/bin/../lib/gcc/nios2-elf/4.1.2/mno-hw-mul/libgcc.a(_usi_to_df.o)
                              /tools/altera/12.0/nios2eds/bin/gnu/H-i686-pc-linux-gnu/bin/../lib/gcc/nios2-elf/4.1.2/../../../../nios2-elf/lib/mno-hw-mul/libc.a(lib_a-dtoa.o) (__floatunsidf)
/tools/altera/12.0/nios2eds/bin/gnu/H-i686-pc-linux-gnu/bin/../lib/gcc/nios2-elf/4.1.2/mno-hw-mul/libgcc.a(_clz.o)
                              /tools/altera/12.0/nios2eds/bin/gnu/H-i686-pc-linux-gnu/bin/../lib/gcc/nios2-elf/4.1.2/mno-hw-mul/libgcc.a(_udivdi3.o) (__clz_tab)
/tools/altera/12.0/nios2eds/bin/gnu/H-i686-pc-linux-gnu/bin/../lib/gcc/nios2-elf/4.1.2/mno-hw-mul/libgcc.a(_clzsi2.o)
                              /tools/altera/12.0/nios2eds/bin/gnu/H-i686-pc-linux-gnu/bin/../lib/gcc/nios2-elf/4.1.2/mno-hw-mul/libgcc.a(_si_to_df.o) (__clzsi2)
/tools/altera/12.0/nios2eds/bin/gnu/H-i686-pc-linux-gnu/bin/../lib/gcc/nios2-elf/4.1.2/mno-hw-mul/libgcc.a(_pack_df.o)
                              /tools/altera/12.0/nios2eds/bin/gnu/H-i686-pc-linux-gnu/bin/../lib/gcc/nios2-elf/4.1.2/mno-hw-mul/libgcc.a(_addsub_df.o) (__pack_d)
/tools/altera/12.0/nios2eds/bin/gnu/H-i686-pc-linux-gnu/bin/../lib/gcc/nios2-elf/4.1.2/mno-hw-mul/libgcc.a(_unpack_df.o)
                              /tools/altera/12.0/nios2eds/bin/gnu/H-i686-pc-linux-gnu/bin/../lib/gcc/nios2-elf/4.1.2/mno-hw-mul/libgcc.a(_addsub_df.o) (__unpack_d)
/tools/altera/12.0/nios2eds/bin/gnu/H-i686-pc-linux-gnu/bin/../lib/gcc/nios2-elf/4.1.2/mno-hw-mul/libgcc.a(_fpcmp_parts_df.o)
                              /tools/altera/12.0/nios2eds/bin/gnu/H-i686-pc-linux-gnu/bin/../lib/gcc/nios2-elf/4.1.2/mno-hw-mul/libgcc.a(_eq_df.o) (__fpcmp_parts_d)
../experiment1_bsp//libucosii_bsp.a(alt_close.o)
                              /tools/altera/12.0/nios2eds/bin/gnu/H-i686-pc-linux-gnu/bin/../lib/gcc/nios2-elf/4.1.2/../../../../nios2-elf/lib/mno-hw-mul/libc.a(lib_a-closer.o) (close)
../experiment1_bsp//libucosii_bsp.a(alt_dev.o)
                              ../experiment1_bsp//libucosii_bsp.a(alt_close.o) (alt_fd_list)
../experiment1_bsp//libucosii_bsp.a(alt_errno.o)
                              ../experiment1_bsp//libucosii_bsp.a(alt_close.o) (alt_errno)
../experiment1_bsp//libucosii_bsp.a(alt_fstat.o)
                              /tools/altera/12.0/nios2eds/bin/gnu/H-i686-pc-linux-gnu/bin/../lib/gcc/nios2-elf/4.1.2/../../../../nios2-elf/lib/mno-hw-mul/libc.a(lib_a-fstatr.o) (fstat)
../experiment1_bsp//libucosii_bsp.a(alt_irq_register.o)
                              obj/default/PB_button.o (alt_irq_register)
../experiment1_bsp//libucosii_bsp.a(alt_irq_vars.o)
                              ../experiment1_bsp//libucosii_bsp.a(alt_irq_register.o) (alt_irq_active)
../experiment1_bsp//libucosii_bsp.a(alt_isatty.o)
                              /tools/altera/12.0/nios2eds/bin/gnu/H-i686-pc-linux-gnu/bin/../lib/gcc/nios2-elf/4.1.2/../../../../nios2-elf/lib/mno-hw-mul/libc.a(lib_a-isattyr.o) (isatty)
../experiment1_bsp//libucosii_bsp.a(alt_load.o)
                              ../experiment1_bsp//obj/HAL/src/crt0.o (alt_load)
../experiment1_bsp//libucosii_bsp.a(alt_lseek.o)
                              /tools/altera/12.0/nios2eds/bin/gnu/H-i686-pc-linux-gnu/bin/../lib/gcc/nios2-elf/4.1.2/../../../../nios2-elf/lib/mno-hw-mul/libc.a(lib_a-lseekr.o) (lseek)
../experiment1_bsp//libucosii_bsp.a(alt_main.o)
                              ../experiment1_bsp//obj/HAL/src/crt0.o (alt_main)
../experiment1_bsp//libucosii_bsp.a(alt_read.o)
                              /tools/altera/12.0/nios2eds/bin/gnu/H-i686-pc-linux-gnu/bin/../lib/gcc/nios2-elf/4.1.2/../../../../nios2-elf/lib/mno-hw-mul/libc.a(lib_a-readr.o) (read)
../experiment1_bsp//libucosii_bsp.a(alt_release_fd.o)
                              ../experiment1_bsp//libucosii_bsp.a(alt_close.o) (alt_release_fd)
../experiment1_bsp//libucosii_bsp.a(alt_sbrk.o)
                              /tools/altera/12.0/nios2eds/bin/gnu/H-i686-pc-linux-gnu/bin/../lib/gcc/nios2-elf/4.1.2/../../../../nios2-elf/lib/mno-hw-mul/libc.a(lib_a-sbrkr.o) (sbrk)
../experiment1_bsp//libucosii_bsp.a(alt_write.o)
                              /tools/altera/12.0/nios2eds/bin/gnu/H-i686-pc-linux-gnu/bin/../lib/gcc/nios2-elf/4.1.2/../../../../nios2-elf/lib/mno-hw-mul/libc.a(lib_a-writer.o) (write)
../experiment1_bsp//libucosii_bsp.a(alt_env_lock.o)
                              ../experiment1_bsp//libucosii_bsp.a(alt_main.o) (alt_envsem)
../experiment1_bsp//libucosii_bsp.a(alt_malloc_lock.o)
                              /tools/altera/12.0/nios2eds/bin/gnu/H-i686-pc-linux-gnu/bin/../lib/gcc/nios2-elf/4.1.2/../../../../nios2-elf/lib/mno-hw-mul/libc.a(lib_a-freer.o) (__malloc_lock)
../experiment1_bsp//libucosii_bsp.a(os_core.o)
                              obj/default/experiment1.o (OSInit)
../experiment1_bsp//libucosii_bsp.a(os_dbg.o)
                              ../experiment1_bsp//libucosii_bsp.a(os_core.o) (OSDebugInit)
../experiment1_bsp//libucosii_bsp.a(os_flag.o)
                              ../experiment1_bsp//libucosii_bsp.a(os_core.o) (OS_FlagInit)
../experiment1_bsp//libucosii_bsp.a(os_mbox.o)
                              obj/default/experiment1.o (OSMboxCreate)
../experiment1_bsp//libucosii_bsp.a(os_mem.o)
                              obj/default/experiment1.o (OSMemCreate)
../experiment1_bsp//libucosii_bsp.a(os_q.o)
                              ../experiment1_bsp//libucosii_bsp.a(os_core.o) (OS_QInit)
../experiment1_bsp//libucosii_bsp.a(os_sem.o)
                              obj/default/experiment1.o (OSSemCreate)
../experiment1_bsp//libucosii_bsp.a(os_task.o)
                              obj/default/experiment1.o (OSTaskCreateExt)
../experiment1_bsp//libucosii_bsp.a(os_time.o)
                              ../experiment1_bsp//libucosii_bsp.a(os_core.o) (OSTimeDly)
../experiment1_bsp//libucosii_bsp.a(alt_sys_init.o)
                              ../experiment1_bsp//libucosii_bsp.a(alt_main.o) (alt_irq_init)
../experiment1_bsp//libucosii_bsp.a(altera_avalon_jtag_uart_fd.o)
                              ../experiment1_bsp//libucosii_bsp.a(alt_sys_init.o) (altera_avalon_jtag_uart_read_fd)
../experiment1_bsp//libucosii_bsp.a(altera_avalon_jtag_uart_init.o)
                              ../experiment1_bsp//libucosii_bsp.a(alt_sys_init.o) (altera_avalon_jtag_uart_init)
../experiment1_bsp//libucosii_bsp.a(altera_avalon_jtag_uart_ioctl.o)
                              ../experiment1_bsp//libucosii_bsp.a(altera_avalon_jtag_uart_fd.o) (altera_avalon_jtag_uart_ioctl)
../experiment1_bsp//libucosii_bsp.a(altera_avalon_jtag_uart_read.o)
                              ../experiment1_bsp//libucosii_bsp.a(altera_avalon_jtag_uart_fd.o) (altera_avalon_jtag_uart_read)
../experiment1_bsp//libucosii_bsp.a(altera_avalon_jtag_uart_write.o)
                              ../experiment1_bsp//libucosii_bsp.a(altera_avalon_jtag_uart_fd.o) (altera_avalon_jtag_uart_write)
../experiment1_bsp//libucosii_bsp.a(altera_avalon_performance_counter.o)
                              obj/default/tasks.o (perf_get_section_time)
../experiment1_bsp//libucosii_bsp.a(altera_avalon_timer_sc.o)
                              ../experiment1_bsp//libucosii_bsp.a(alt_sys_init.o) (alt_avalon_timer_sc_init)
../experiment1_bsp//libucosii_bsp.a(altera_up_avalon_character_lcd.o)
                              obj/default/experiment1.o (alt_up_character_lcd_init)
../experiment1_bsp//libucosii_bsp.a(alt_alarm_start.o)
                              ../experiment1_bsp//libucosii_bsp.a(altera_avalon_jtag_uart_init.o) (alt_alarm_start)
../experiment1_bsp//libucosii_bsp.a(alt_dcache_flush_all.o)
                              ../experiment1_bsp//libucosii_bsp.a(alt_load.o) (alt_dcache_flush_all)
../experiment1_bsp//libucosii_bsp.a(alt_dev_llist_insert.o)
                              ../experiment1_bsp//libucosii_bsp.a(alt_sys_init.o) (alt_dev_llist_insert)
../experiment1_bsp//libucosii_bsp.a(alt_do_ctors.o)
                              ../experiment1_bsp//libucosii_bsp.a(alt_main.o) (_do_ctors)
../experiment1_bsp//libucosii_bsp.a(alt_do_dtors.o)
                              ../experiment1_bsp//libucosii_bsp.a(alt_main.o) (_do_dtors)
../experiment1_bsp//libucosii_bsp.a(alt_find_dev.o)
                              ../experiment1_bsp//libucosii_bsp.a(altera_up_avalon_character_lcd.o) (alt_find_dev)
../experiment1_bsp//libucosii_bsp.a(alt_icache_flush_all.o)
                              ../experiment1_bsp//libucosii_bsp.a(alt_load.o) (alt_icache_flush_all)
../experiment1_bsp//libucosii_bsp.a(alt_iic.o)
                              ../experiment1_bsp//libucosii_bsp.a(altera_avalon_jtag_uart_init.o) (alt_ic_isr_register)
../experiment1_bsp//libucosii_bsp.a(alt_iic_isr_register.o)
                              ../experiment1_bsp//libucosii_bsp.a(alt_iic.o) (alt_iic_isr_register)
../experiment1_bsp//libucosii_bsp.a(alt_io_redirect.o)
                              ../experiment1_bsp//libucosii_bsp.a(alt_main.o) (alt_io_redirect)
../experiment1_bsp//libucosii_bsp.a(alt_irq_entry.o)
                              ../experiment1_bsp//libucosii_bsp.a(alt_irq_register.o) (alt_irq_entry)
../experiment1_bsp//libucosii_bsp.a(alt_irq_handler.o)
                              ../experiment1_bsp//libucosii_bsp.a(alt_irq_register.o) (alt_irq_handler)
../experiment1_bsp//libucosii_bsp.a(alt_open.o)
                              ../experiment1_bsp//libucosii_bsp.a(alt_io_redirect.o) (open)
../experiment1_bsp//libucosii_bsp.a(alt_tick.o)
                              ../experiment1_bsp//libucosii_bsp.a(altera_avalon_jtag_uart_init.o) (_alt_tick_rate)
../experiment1_bsp//libucosii_bsp.a(altera_nios2_qsys_irq.o)
                              ../experiment1_bsp//libucosii_bsp.a(alt_sys_init.o) (altera_nios2_qsys_irq_init)
../experiment1_bsp//libucosii_bsp.a(os_cpu_a.o)
                              ../experiment1_bsp//libucosii_bsp.a(os_core.o) (OSIntCtxSw)
../experiment1_bsp//libucosii_bsp.a(os_cpu_c.o)
                              ../experiment1_bsp//libucosii_bsp.a(os_task.o) (OSTaskStkInit)
../experiment1_bsp//libucosii_bsp.a(alt_exception_entry.o)
                              ../experiment1_bsp//libucosii_bsp.a(alt_irq_entry.o) (alt_exception)
../experiment1_bsp//libucosii_bsp.a(alt_find_file.o)
                              ../experiment1_bsp//libucosii_bsp.a(alt_open.o) (alt_find_file)
../experiment1_bsp//libucosii_bsp.a(alt_get_fd.o)
                              ../experiment1_bsp//libucosii_bsp.a(alt_open.o) (alt_get_fd)
/tools/altera/12.0/nios2eds/bin/gnu/H-i686-pc-linux-gnu/bin/../lib/gcc/nios2-elf/4.1.2/../../../../nios2-elf/lib/mno-hw-mul/libc.a(lib_a-atexit.o)
                              ../experiment1_bsp//libucosii_bsp.a(alt_main.o) (atexit)
/tools/altera/12.0/nios2eds/bin/gnu/H-i686-pc-linux-gnu/bin/../lib/gcc/nios2-elf/4.1.2/../../../../nios2-elf/lib/mno-hw-mul/libc.a(lib_a-exit.o)
                              ../experiment1_bsp//libucosii_bsp.a(alt_main.o) (exit)
/tools/altera/12.0/nios2eds/bin/gnu/H-i686-pc-linux-gnu/bin/../lib/gcc/nios2-elf/4.1.2/../../../../nios2-elf/lib/mno-hw-mul/libc.a(lib_a-memcmp.o)
                              ../experiment1_bsp//libucosii_bsp.a(alt_find_dev.o) (memcmp)
/tools/altera/12.0/nios2eds/bin/gnu/H-i686-pc-linux-gnu/bin/../lib/gcc/nios2-elf/4.1.2/../../../../nios2-elf/lib/mno-hw-mul/libc.a(lib_a-__atexit.o)
                              /tools/altera/12.0/nios2eds/bin/gnu/H-i686-pc-linux-gnu/bin/../lib/gcc/nios2-elf/4.1.2/../../../../nios2-elf/lib/mno-hw-mul/libc.a(lib_a-atexit.o) (__register_exitproc)
/tools/altera/12.0/nios2eds/bin/gnu/H-i686-pc-linux-gnu/bin/../lib/gcc/nios2-elf/4.1.2/../../../../nios2-elf/lib/mno-hw-mul/libc.a(lib_a-__call_atexit.o)
                              /tools/altera/12.0/nios2eds/bin/gnu/H-i686-pc-linux-gnu/bin/../lib/gcc/nios2-elf/4.1.2/../../../../nios2-elf/lib/mno-hw-mul/libc.a(lib_a-exit.o) (__call_exitprocs)
../experiment1_bsp//libucosii_bsp.a(alt_exit.o)
                              /tools/altera/12.0/nios2eds/bin/gnu/H-i686-pc-linux-gnu/bin/../lib/gcc/nios2-elf/4.1.2/../../../../nios2-elf/lib/mno-hw-mul/libc.a(lib_a-exit.o) (_exit)

Allocating common symbols
Common symbol       size              file

MemoryPartition     0x4               obj/default/tasks.o
alt_irq             0x100             ../experiment1_bsp//libucosii_bsp.a(alt_irq_handler.o)
MboxMultFin         0x10              obj/default/tasks.o
OSLockNesting       0x1               ../experiment1_bsp//libucosii_bsp.a(os_core.o)
OSRunning           0x1               ../experiment1_bsp//libucosii_bsp.a(os_core.o)
OSIdleCtr           0x4               ../experiment1_bsp//libucosii_bsp.a(os_core.o)
gen_array_tcb       0xd8              obj/default/tasks.o
OSPrioHighRdy       0x1               ../experiment1_bsp//libucosii_bsp.a(os_core.o)
errno               0x4               /tools/altera/12.0/nios2eds/bin/gnu/H-i686-pc-linux-gnu/bin/../lib/gcc/nios2-elf/4.1.2/../../../../nios2-elf/lib/mno-hw-mul/libc.a(lib_a-int_errno.o)
gen_array_stk       0x4000            obj/default/tasks.o
alt_heapsem         0x4               ../experiment1_bsp//libucosii_bsp.a(alt_malloc_lock.o)
OSFlagTbl           0x370             ../experiment1_bsp//libucosii_bsp.a(os_core.o)
OSPrioCur           0x1               ../experiment1_bsp//libucosii_bsp.a(os_core.o)
MboxGenArrayStart   0x8               obj/default/tasks.o
OSTCBList           0x4               ../experiment1_bsp//libucosii_bsp.a(os_core.o)
alt_fd_list_lock    0x4               ../experiment1_bsp//libucosii_bsp.a(alt_dev.o)
OSMemTbl            0xc30             ../experiment1_bsp//libucosii_bsp.a(os_core.o)
OSTickStepState     0x1               ../experiment1_bsp//libucosii_bsp.a(os_core.o)
OSTaskStatStk       0x800             ../experiment1_bsp//libucosii_bsp.a(os_core.o)
cal_mul_tcb         0x1b0             obj/default/tasks.o
OSCtxSwCtr          0x4               ../experiment1_bsp//libucosii_bsp.a(os_core.o)
data_array          0x2000            obj/default/experiment1.o
PBSemaphore         0x10              obj/default/tasks.o
OSIdleCtrMax        0x4               ../experiment1_bsp//libucosii_bsp.a(os_core.o)
merge_tcb           0x6c              obj/default/tasks.o
OSTCBFreeList       0x4               ../experiment1_bsp//libucosii_bsp.a(os_core.o)
OSCPUUsage          0x1               ../experiment1_bsp//libucosii_bsp.a(os_core.o)
MboxMultMerge       0x4               obj/default/tasks.o
OSTaskCtr           0x1               ../experiment1_bsp//libucosii_bsp.a(os_core.o)
OSMemFreeList       0x4               ../experiment1_bsp//libucosii_bsp.a(os_core.o)
OSQTbl              0x1e0             ../experiment1_bsp//libucosii_bsp.a(os_core.o)
OSTCBHighRdy        0x4               ../experiment1_bsp//libucosii_bsp.a(os_core.o)
OSQFreeList         0x4               ../experiment1_bsp//libucosii_bsp.a(os_core.o)
OSRdyGrp            0x1               ../experiment1_bsp//libucosii_bsp.a(os_core.o)
MboxMultBegin0      0x10              obj/default/tasks.o
cal_mul_stk         0x8000            obj/default/tasks.o
data_array_distinct
                    0x1000            obj/default/experiment1.o
_atexit0            0x190             /tools/altera/12.0/nios2eds/bin/gnu/H-i686-pc-linux-gnu/bin/../lib/gcc/nios2-elf/4.1.2/../../../../nios2-elf/lib/mno-hw-mul/libc.a(lib_a-atexit.o)
MemoryPartitionDistinct
                    0x4               obj/default/tasks.o
OSRdyTbl            0x3               ../experiment1_bsp//libucosii_bsp.a(os_core.o)
merge_stk           0x2000            obj/default/tasks.o
mul_stk             0x2000            obj/default/tasks.o
OSEventFreeList     0x4               ../experiment1_bsp//libucosii_bsp.a(os_core.o)
OSIntNesting        0x1               ../experiment1_bsp//libucosii_bsp.a(os_core.o)
OSTCBCur            0x4               ../experiment1_bsp//libucosii_bsp.a(os_core.o)
mul_tcb             0x6c              obj/default/tasks.o
OSTime              0x4               ../experiment1_bsp//libucosii_bsp.a(os_core.o)
initialize_task_stk
                    0x2000            obj/default/tasks.o
OSTaskIdleStk       0x800             ../experiment1_bsp//libucosii_bsp.a(os_core.o)
OSEventTbl          0xb40             ../experiment1_bsp//libucosii_bsp.a(os_core.o)
OSTCBTbl            0x510             ../experiment1_bsp//libucosii_bsp.a(os_core.o)
OSFlagFreeList      0x4               ../experiment1_bsp//libucosii_bsp.a(os_core.o)
OSStatRdy           0x1               ../experiment1_bsp//libucosii_bsp.a(os_core.o)
OSTCBPrioTbl        0x54              ../experiment1_bsp//libucosii_bsp.a(os_core.o)
task_launcher_stk   0x2000            obj/default/tasks.o
alt_envsem          0x4               ../experiment1_bsp//libucosii_bsp.a(alt_env_lock.o)
OSIdleCtrRun        0x4               ../experiment1_bsp//libucosii_bsp.a(os_core.o)
MboxMultBegin1      0x10              obj/default/tasks.o

Memory Configuration

Name             Origin             Length             Attributes
reset            0x00080000         0x00000020
sram_0           0x00080020         0x0007ffe0
*default*        0x00000000         0xffffffff

Linker script and memory map

LOAD ../experiment1_bsp//obj/HAL/src/crt0.o
LOAD obj/default/PB_button.o
LOAD obj/default/alt_ucosii_simple_error_check.o
LOAD obj/default/experiment1.o
LOAD obj/default/tasks.o
LOAD /tools/altera/12.0/nios2eds/bin/gnu/H-i686-pc-linux-gnu/bin/../lib/gcc/nios2-elf/4.1.2/../../../../nios2-elf/lib/mno-hw-mul/libstdc++.a
LOAD /tools/altera/12.0/nios2eds/bin/gnu/H-i686-pc-linux-gnu/bin/../lib/gcc/nios2-elf/4.1.2/../../../../nios2-elf/lib/mno-hw-mul/libm.a
LOAD /tools/altera/12.0/nios2eds/bin/gnu/H-i686-pc-linux-gnu/bin/../lib/gcc/nios2-elf/4.1.2/mno-hw-mul/libgcc.a
START GROUP
LOAD /tools/altera/12.0/nios2eds/bin/gnu/H-i686-pc-linux-gnu/bin/../lib/gcc/nios2-elf/4.1.2/../../../../nios2-elf/lib/mno-hw-mul/libc.a
LOAD /tools/altera/12.0/nios2eds/bin/gnu/H-i686-pc-linux-gnu/bin/../lib/gcc/nios2-elf/4.1.2/mno-hw-mul/libgcc.a
LOAD ../experiment1_bsp//libucosii_bsp.a
END GROUP
LOAD /tools/altera/12.0/nios2eds/bin/gnu/H-i686-pc-linux-gnu/bin/../lib/gcc/nios2-elf/4.1.2/mno-hw-mul/libgcc.a
                0x00080000                __alt_mem_sram_0 = 0x80000

.entry          0x00080000       0x20
 *(.entry)
 .entry         0x00080000       0x20 ../experiment1_bsp//obj/HAL/src/crt0.o
                0x00080000                __reset

.exceptions     0x00080020      0x19c
                0x00080020                PROVIDE (__ram_exceptions_start, ABSOLUTE (.))
                0x00080020                . = ALIGN (0x20)
 *(.irq)
 *(.exceptions.entry.label)
 .exceptions.entry.label
                0x00080020        0x0 ../experiment1_bsp//libucosii_bsp.a(alt_irq_entry.o)
                0x00080020                alt_irq_entry
 .exceptions.entry.label
                0x00080020        0x0 ../experiment1_bsp//libucosii_bsp.a(alt_exception_entry.o)
                0x00080020                alt_exception
 *(.exceptions.entry.user)
 *(.exceptions.entry)
 .exceptions.entry
                0x00080020       0x54 ../experiment1_bsp//libucosii_bsp.a(alt_exception_entry.o)
 *(.exceptions.irqtest.user)
 *(.exceptions.irqtest)
 .exceptions.irqtest
                0x00080074       0x10 ../experiment1_bsp//libucosii_bsp.a(alt_irq_entry.o)
 *(.exceptions.irqhandler.user)
 *(.exceptions.irqhandler)
 .exceptions.irqhandler
                0x00080084        0x4 ../experiment1_bsp//libucosii_bsp.a(alt_irq_entry.o)
 *(.exceptions.irqreturn.user)
 *(.exceptions.irqreturn)
 .exceptions.irqreturn
                0x00080088        0x4 ../experiment1_bsp//libucosii_bsp.a(alt_irq_entry.o)
 *(.exceptions.notirq.label)
 .exceptions.notirq.label
                0x0008008c        0x0 ../experiment1_bsp//libucosii_bsp.a(alt_irq_entry.o)
 *(.exceptions.notirq.user)
 *(.exceptions.notirq)
 .exceptions.notirq
                0x0008008c        0x8 ../experiment1_bsp//libucosii_bsp.a(alt_exception_entry.o)
 *(.exceptions.soft.user)
 *(.exceptions.soft)
 *(.exceptions.unknown.user)
 *(.exceptions.unknown)
 .exceptions.unknown
                0x00080094        0x4 ../experiment1_bsp//libucosii_bsp.a(alt_exception_entry.o)
 *(.exceptions.exit.label)
 .exceptions.exit.label
                0x00080098        0x0 ../experiment1_bsp//libucosii_bsp.a(alt_irq_entry.o)
 .exceptions.exit.label
                0x00080098        0x0 ../experiment1_bsp//libucosii_bsp.a(alt_exception_entry.o)
 *(.exceptions.exit.user)
 *(.exceptions.exit)
 .exceptions.exit
                0x00080098       0x54 ../experiment1_bsp//libucosii_bsp.a(alt_exception_entry.o)
 *(.exceptions)
 .exceptions    0x000800ec       0xd0 ../experiment1_bsp//libucosii_bsp.a(alt_irq_handler.o)
                0x000800ec                alt_irq_handler
                0x000801bc                PROVIDE (__ram_exceptions_end, ABSOLUTE (.))
                0x00080020                PROVIDE (__flash_exceptions_start, LOADADDR (.exceptions))

.text           0x000801bc    0x19190
                0x000801bc                PROVIDE (stext, ABSOLUTE (.))
 *(.interp)
 *(.hash)
 *(.dynsym)
 *(.dynstr)
 *(.gnu.version)
 *(.gnu.version_d)
 *(.gnu.version_r)
 *(.rel.init)
 *(.rela.init)
 *(.rel.text .rel.text.* .rel.gnu.linkonce.t.*)
 *(.rela.text .rela.text.* .rela.gnu.linkonce.t.*)
 *(.rel.fini)
 *(.rela.fini)
 *(.rel.rodata .rel.rodata.* .rel.gnu.linkonce.r.*)
 *(.rela.rodata .rela.rodata.* .rela.gnu.linkonce.r.*)
 *(.rel.data .rel.data.* .rel.gnu.linkonce.d.*)
 *(.rela.data .rela.data.* .rela.gnu.linkonce.d.*)
 *(.rel.tdata .rel.tdata.* .rel.gnu.linkonce.td.*)
 *(.rela.tdata .rela.tdata.* .rela.gnu.linkonce.td.*)
 *(.rel.tbss .rel.tbss.* .rel.gnu.linkonce.tb.*)
 *(.rela.tbss .rela.tbss.* .rela.gnu.linkonce.tb.*)
 *(.rel.ctors)
 *(.rela.ctors)
 *(.rel.dtors)
 *(.rela.dtors)
 *(.rel.got)
 *(.rela.got)
 *(.rel.sdata .rel.sdata.* .rel.gnu.linkonce.s.*)
 *(.rela.sdata .rela.sdata.* .rela.gnu.linkonce.s.*)
 *(.rel.sbss .rel.sbss.* .rel.gnu.linkonce.sb.*)
 *(.rela.sbss .rela.sbss.* .rela.gnu.linkonce.sb.*)
 *(.rel.sdata2 .rel.sdata2.* .rel.gnu.linkonce.s2.*)
 *(.rela.sdata2 .rela.sdata2.* .rela.gnu.linkonce.s2.*)
 *(.rel.sbss2 .rel.sbss2.* .rel.gnu.linkonce.sb2.*)
 *(.rela.sbss2 .rela.sbss2.* .rela.gnu.linkonce.sb2.*)
 *(.rel.bss .rel.bss.* .rel.gnu.linkonce.b.*)
 *(.rela.bss .rela.bss.* .rela.gnu.linkonce.b.*)
 *(.rel.plt)
 *(.rela.plt)
 *(.rel.dyn)
 *(.init)
 *(.plt)
 *(.text .stub .text.* .gnu.linkonce.t.*)
 .text          0x000801bc       0x3c ../experiment1_bsp//obj/HAL/src/crt0.o
                0x000801bc                _start
 .text          0x000801f8      0x238 obj/default/PB_button.o
                0x000801f8                KEY0_Pressed
                0x0008023c                KEY1_Pressed
                0x00080280                KEY2_Pressed
                0x000802c4                KEY3_Pressed
                0x00080308                handle_button_interrupts
                0x000803dc                init_button_irq
 .text          0x00080430      0x528 obj/default/alt_ucosii_simple_error_check.o
                0x00080430                alt_ucosii_check_return_code
                0x00080474                alt_ucosii_simple_error_handler
 .text          0x00080958      0x41c obj/default/experiment1.o
                0x00080958                initialize_task
                0x00080994                main
                0x00080af8                init_OS_data_structs
                0x00080cf0                init_create_tasks
 .text          0x00080d74     0x1890 obj/default/tasks.o
                0x00080d74                multiply
                0x00081064                gen_array_0
                0x00081290                gen_array_1
                0x000814cc                top_left_mult
                0x00081748                top_right_mult
                0x000819c8                bottom_left_mult
                0x00081c48                bottom_right_mult
                0x00081ecc                merge
                0x0008229c                task_launcher
 .text          0x00082604      0x14c /tools/altera/12.0/nios2eds/bin/gnu/H-i686-pc-linux-gnu/bin/../lib/gcc/nios2-elf/4.1.2/mno-hw-mul/libgcc.a(lib2-divmod.o)
                0x00082680                __divsi3
                0x000826e0                __modsi3
                0x00082740                __udivsi3
                0x00082748                __umodsi3
 .text          0x00082750       0x38 /tools/altera/12.0/nios2eds/bin/gnu/H-i686-pc-linux-gnu/bin/../lib/gcc/nios2-elf/4.1.2/mno-hw-mul/libgcc.a(lib2-mul.o)
                0x00082750                __mulsi3
 .text          0x00082788       0x60 /tools/altera/12.0/nios2eds/bin/gnu/H-i686-pc-linux-gnu/bin/../lib/gcc/nios2-elf/4.1.2/../../../../nios2-elf/lib/mno-hw-mul/libc.a(lib_a-fprintf.o)
                0x00082788                fprintf
                0x000827b4                _fprintf_r
 .text          0x000827e8       0xec /tools/altera/12.0/nios2eds/bin/gnu/H-i686-pc-linux-gnu/bin/../lib/gcc/nios2-elf/4.1.2/../../../../nios2-elf/lib/mno-hw-mul/libc.a(lib_a-fwrite.o)
                0x000827e8                _fwrite_r
                0x00082894                fwrite
 .text          0x000828d4        0x0 /tools/altera/12.0/nios2eds/bin/gnu/H-i686-pc-linux-gnu/bin/../lib/gcc/nios2-elf/4.1.2/../../../../nios2-elf/lib/mno-hw-mul/libc.a(lib_a-impure.o)
 .text          0x000828d4       0x78 /tools/altera/12.0/nios2eds/bin/gnu/H-i686-pc-linux-gnu/bin/../lib/gcc/nios2-elf/4.1.2/../../../../nios2-elf/lib/mno-hw-mul/libc.a(lib_a-printf.o)
                0x000828d4                printf
                0x00082918                _printf_r
 .text          0x0008294c       0x24 /tools/altera/12.0/nios2eds/bin/gnu/H-i686-pc-linux-gnu/bin/../lib/gcc/nios2-elf/4.1.2/../../../../nios2-elf/lib/mno-hw-mul/libc.a(lib_a-putchar.o)
                0x0008294c                putchar
                0x00082968                _putchar_r
 .text          0x00082970       0xb4 /tools/altera/12.0/nios2eds/bin/gnu/H-i686-pc-linux-gnu/bin/../lib/gcc/nios2-elf/4.1.2/../../../../nios2-elf/lib/mno-hw-mul/libc.a(lib_a-puts.o)
                0x00082970                _puts_r
                0x00082a10                puts
 .text          0x00082a24       0x94 /tools/altera/12.0/nios2eds/bin/gnu/H-i686-pc-linux-gnu/bin/../lib/gcc/nios2-elf/4.1.2/../../../../nios2-elf/lib/mno-hw-mul/libc.a(lib_a-rand.o)
                0x00082a24                srand
                0x00082a40                rand
 .text          0x00082ab8       0x74 /tools/altera/12.0/nios2eds/bin/gnu/H-i686-pc-linux-gnu/bin/../lib/gcc/nios2-elf/4.1.2/../../../../nios2-elf/lib/mno-hw-mul/libc.a(lib_a-strlen.o)
                0x00082ab8                strlen
 .text          0x00082b2c     0x1f40 /tools/altera/12.0/nios2eds/bin/gnu/H-i686-pc-linux-gnu/bin/../lib/gcc/nios2-elf/4.1.2/../../../../nios2-elf/lib/mno-hw-mul/libc.a(lib_a-vfprintf.o)
                0x00082b84                ___vfprintf_internal_r
                0x00084a48                __vfprintf_internal
 .text          0x00084a6c      0x13c /tools/altera/12.0/nios2eds/bin/gnu/H-i686-pc-linux-gnu/bin/../lib/gcc/nios2-elf/4.1.2/../../../../nios2-elf/lib/mno-hw-mul/libc.a(lib_a-wsetup.o)
                0x00084a6c                __swsetup_r
 .text          0x00084ba8     0x17f8 /tools/altera/12.0/nios2eds/bin/gnu/H-i686-pc-linux-gnu/bin/../lib/gcc/nios2-elf/4.1.2/../../../../nios2-elf/lib/mno-hw-mul/libc.a(lib_a-dtoa.o)
                0x00084dec                _dtoa_r
 .text          0x000863a0      0x230 /tools/altera/12.0/nios2eds/bin/gnu/H-i686-pc-linux-gnu/bin/../lib/gcc/nios2-elf/4.1.2/../../../../nios2-elf/lib/mno-hw-mul/libc.a(lib_a-fflush.o)
                0x000863a0                _fflush_r
                0x0008659c                fflush
 .text          0x000865d0      0x2f4 /tools/altera/12.0/nios2eds/bin/gnu/H-i686-pc-linux-gnu/bin/../lib/gcc/nios2-elf/4.1.2/../../../../nios2-elf/lib/mno-hw-mul/libc.a(lib_a-findfp.o)
                0x00086628                __sfp_lock_acquire
                0x0008662c                __sfp_lock_release
                0x00086630                __sinit_lock_acquire
                0x00086634                __sinit_lock_release
                0x00086638                __sinit
                0x000866ec                __fp_unlock_all
                0x00086704                __fp_lock_all
                0x0008671c                _cleanup_r
                0x00086728                _cleanup
                0x00086738                __sfmoreglue
                0x000867d4                __sfp
 .text          0x000868c4      0x440 /tools/altera/12.0/nios2eds/bin/gnu/H-i686-pc-linux-gnu/bin/../lib/gcc/nios2-elf/4.1.2/../../../../nios2-elf/lib/mno-hw-mul/libc.a(lib_a-freer.o)
                0x000868c4                _malloc_trim_r
                0x000869f0                _free_r
 .text          0x00086d04      0x49c /tools/altera/12.0/nios2eds/bin/gnu/H-i686-pc-linux-gnu/bin/../lib/gcc/nios2-elf/4.1.2/../../../../nios2-elf/lib/mno-hw-mul/libc.a(lib_a-fvwrite.o)
                0x00086d04                __sfvwrite_r
 .text          0x000871a0      0x180 /tools/altera/12.0/nios2eds/bin/gnu/H-i686-pc-linux-gnu/bin/../lib/gcc/nios2-elf/4.1.2/../../../../nios2-elf/lib/mno-hw-mul/libc.a(lib_a-fwalk.o)
                0x000871a0                _fwalk_reent
                0x00087268                _fwalk
 .text          0x00087320       0xc4 /tools/altera/12.0/nios2eds/bin/gnu/H-i686-pc-linux-gnu/bin/../lib/gcc/nios2-elf/4.1.2/../../../../nios2-elf/lib/mno-hw-mul/libc.a(lib_a-locale.o)
                0x00087320                __locale_charset
                0x00087328                _localeconv_r
                0x00087334                localeconv
                0x00087344                _setlocale_r
                0x000873c8                setlocale
 .text          0x000873e4      0x194 /tools/altera/12.0/nios2eds/bin/gnu/H-i686-pc-linux-gnu/bin/../lib/gcc/nios2-elf/4.1.2/../../../../nios2-elf/lib/mno-hw-mul/libc.a(lib_a-makebuf.o)
                0x000873e4                __smakebuf_r
 .text          0x00087578      0x740 /tools/altera/12.0/nios2eds/bin/gnu/H-i686-pc-linux-gnu/bin/../lib/gcc/nios2-elf/4.1.2/../../../../nios2-elf/lib/mno-hw-mul/libc.a(lib_a-mallocr.o)
                0x00087578                _malloc_r
 .text          0x00087cb8       0xe4 /tools/altera/12.0/nios2eds/bin/gnu/H-i686-pc-linux-gnu/bin/../lib/gcc/nios2-elf/4.1.2/../../../../nios2-elf/lib/mno-hw-mul/libc.a(lib_a-memchr.o)
                0x00087cb8                memchr
 .text          0x00087d9c       0xa0 /tools/altera/12.0/nios2eds/bin/gnu/H-i686-pc-linux-gnu/bin/../lib/gcc/nios2-elf/4.1.2/../../../../nios2-elf/lib/mno-hw-mul/libc.a(lib_a-memcpy.o)
                0x00087d9c                memcpy
 .text          0x00087e3c       0xe0 /tools/altera/12.0/nios2eds/bin/gnu/H-i686-pc-linux-gnu/bin/../lib/gcc/nios2-elf/4.1.2/../../../../nios2-elf/lib/mno-hw-mul/libc.a(lib_a-memmove.o)
                0x00087e3c                memmove
 .text          0x00087f1c       0x98 /tools/altera/12.0/nios2eds/bin/gnu/H-i686-pc-linux-gnu/bin/../lib/gcc/nios2-elf/4.1.2/../../../../nios2-elf/lib/mno-hw-mul/libc.a(lib_a-memset.o)
                0x00087f1c                memset
 .text          0x00087fb4     0x108c /tools/altera/12.0/nios2eds/bin/gnu/H-i686-pc-linux-gnu/bin/../lib/gcc/nios2-elf/4.1.2/../../../../nios2-elf/lib/mno-hw-mul/libc.a(lib_a-mprec.o)
                0x00087fb4                _Bfree
                0x00087fdc                __hi0bits
                0x0008804c                __lo0bits
                0x00088110                __mcmp
                0x00088170                __ulp
                0x000881f0                __b2d
                0x00088310                __ratio
                0x000883c0                _mprec_log10
                0x00088454                __copybits
                0x000884ac                __any_on
                0x00088534                _Balloc
                0x000885f0                __d2b
                0x0008876c                __mdiff
                0x000888f8                __lshift
                0x00088a44                __multiply
                0x00088c98                __i2b
                0x00088cd4                __multadd
                0x00088e00                __pow5mult
                0x00088f20                __s2b
 .text          0x00089040      0x1ec /tools/altera/12.0/nios2eds/bin/gnu/H-i686-pc-linux-gnu/bin/../lib/gcc/nios2-elf/4.1.2/../../../../nios2-elf/lib/mno-hw-mul/libc.a(lib_a-putc.o)
                0x00089040                putc
                0x00089144                _putc_r
 .text          0x0008922c      0x5f4 /tools/altera/12.0/nios2eds/bin/gnu/H-i686-pc-linux-gnu/bin/../lib/gcc/nios2-elf/4.1.2/../../../../nios2-elf/lib/mno-hw-mul/libc.a(lib_a-reallocr.o)
                0x0008922c                _realloc_r
 .text          0x00089820       0x40 /tools/altera/12.0/nios2eds/bin/gnu/H-i686-pc-linux-gnu/bin/../lib/gcc/nios2-elf/4.1.2/../../../../nios2-elf/lib/mno-hw-mul/libc.a(lib_a-s_isinfd.o)
                0x00089820                __isinfd
 .text          0x00089860       0x30 /tools/altera/12.0/nios2eds/bin/gnu/H-i686-pc-linux-gnu/bin/../lib/gcc/nios2-elf/4.1.2/../../../../nios2-elf/lib/mno-hw-mul/libc.a(lib_a-s_isnand.o)
                0x00089860                __isnand
 .text          0x00089890       0x70 /tools/altera/12.0/nios2eds/bin/gnu/H-i686-pc-linux-gnu/bin/../lib/gcc/nios2-elf/4.1.2/../../../../nios2-elf/lib/mno-hw-mul/libc.a(lib_a-sbrkr.o)
                0x00089890                _sbrk_r
 .text          0x00089900      0x14c /tools/altera/12.0/nios2eds/bin/gnu/H-i686-pc-linux-gnu/bin/../lib/gcc/nios2-elf/4.1.2/../../../../nios2-elf/lib/mno-hw-mul/libc.a(lib_a-stdio.o)
                0x00089900                __sclose
                0x00089908                __sseek
                0x00089970                __swrite
                0x000899ec                __sread
 .text          0x00089a4c       0xbc /tools/altera/12.0/nios2eds/bin/gnu/H-i686-pc-linux-gnu/bin/../lib/gcc/nios2-elf/4.1.2/../../../../nios2-elf/lib/mno-hw-mul/libc.a(lib_a-strcmp.o)
                0x00089a4c                strcmp
 .text          0x00089b08      0x14c /tools/altera/12.0/nios2eds/bin/gnu/H-i686-pc-linux-gnu/bin/../lib/gcc/nios2-elf/4.1.2/../../../../nios2-elf/lib/mno-hw-mul/libc.a(lib_a-wbuf.o)
                0x00089b08                __swbuf_r
                0x00089c38                __swbuf
 .text          0x00089c54       0x78 /tools/altera/12.0/nios2eds/bin/gnu/H-i686-pc-linux-gnu/bin/../lib/gcc/nios2-elf/4.1.2/../../../../nios2-elf/lib/mno-hw-mul/libc.a(lib_a-writer.o)
                0x00089c54                _write_r
 .text          0x00089ccc       0xc8 /tools/altera/12.0/nios2eds/bin/gnu/H-i686-pc-linux-gnu/bin/../lib/gcc/nios2-elf/4.1.2/../../../../nios2-elf/lib/mno-hw-mul/libc.a(lib_a-callocr.o)
                0x00089ccc                _calloc_r
 .text          0x00089d94       0x70 /tools/altera/12.0/nios2eds/bin/gnu/H-i686-pc-linux-gnu/bin/../lib/gcc/nios2-elf/4.1.2/../../../../nios2-elf/lib/mno-hw-mul/libc.a(lib_a-closer.o)
                0x00089d94                _close_r
 .text          0x00089e04      0x124 /tools/altera/12.0/nios2eds/bin/gnu/H-i686-pc-linux-gnu/bin/../lib/gcc/nios2-elf/4.1.2/../../../../nios2-elf/lib/mno-hw-mul/libc.a(lib_a-fclose.o)
                0x00089e04                _fclose_r
                0x00089f14                fclose
 .text          0x00089f28       0x74 /tools/altera/12.0/nios2eds/bin/gnu/H-i686-pc-linux-gnu/bin/../lib/gcc/nios2-elf/4.1.2/../../../../nios2-elf/lib/mno-hw-mul/libc.a(lib_a-fstatr.o)
                0x00089f28                _fstat_r
 .text          0x00089f9c        0x0 /tools/altera/12.0/nios2eds/bin/gnu/H-i686-pc-linux-gnu/bin/../lib/gcc/nios2-elf/4.1.2/../../../../nios2-elf/lib/mno-hw-mul/libc.a(lib_a-int_errno.o)
 .text          0x00089f9c       0x70 /tools/altera/12.0/nios2eds/bin/gnu/H-i686-pc-linux-gnu/bin/../lib/gcc/nios2-elf/4.1.2/../../../../nios2-elf/lib/mno-hw-mul/libc.a(lib_a-isattyr.o)
                0x00089f9c                _isatty_r
 .text          0x0008a00c       0x78 /tools/altera/12.0/nios2eds/bin/gnu/H-i686-pc-linux-gnu/bin/../lib/gcc/nios2-elf/4.1.2/../../../../nios2-elf/lib/mno-hw-mul/libc.a(lib_a-lseekr.o)
                0x0008a00c                _lseek_r
 .text          0x0008a084       0x78 /tools/altera/12.0/nios2eds/bin/gnu/H-i686-pc-linux-gnu/bin/../lib/gcc/nios2-elf/4.1.2/../../../../nios2-elf/lib/mno-hw-mul/libc.a(lib_a-readr.o)
                0x0008a084                _read_r
 .text          0x0008a0fc      0x124 /tools/altera/12.0/nios2eds/bin/gnu/H-i686-pc-linux-gnu/bin/../lib/gcc/nios2-elf/4.1.2/mno-hw-mul/libgcc.a(_muldi3.o)
                0x0008a0fc                __muldi3
 .text          0x0008a220      0x66c /tools/altera/12.0/nios2eds/bin/gnu/H-i686-pc-linux-gnu/bin/../lib/gcc/nios2-elf/4.1.2/mno-hw-mul/libgcc.a(_udivdi3.o)
                0x0008a220                __udivdi3
 .text          0x0008a88c      0x660 /tools/altera/12.0/nios2eds/bin/gnu/H-i686-pc-linux-gnu/bin/../lib/gcc/nios2-elf/4.1.2/mno-hw-mul/libgcc.a(_umoddi3.o)
                0x0008a88c                __umoddi3
 .text          0x0008aeec      0x504 /tools/altera/12.0/nios2eds/bin/gnu/H-i686-pc-linux-gnu/bin/../lib/gcc/nios2-elf/4.1.2/mno-hw-mul/libgcc.a(_addsub_df.o)
                0x0008b2fc                __subdf3
                0x0008b37c                __adddf3
 .text          0x0008b3f0      0x3c4 /tools/altera/12.0/nios2eds/bin/gnu/H-i686-pc-linux-gnu/bin/../lib/gcc/nios2-elf/4.1.2/mno-hw-mul/libgcc.a(_mul_df.o)
                0x0008b3f0                __muldf3
 .text          0x0008b7b4      0x258 /tools/altera/12.0/nios2eds/bin/gnu/H-i686-pc-linux-gnu/bin/../lib/gcc/nios2-elf/4.1.2/mno-hw-mul/libgcc.a(_div_df.o)
                0x0008b7b4                __divdf3
 .text          0x0008ba0c       0x88 /tools/altera/12.0/nios2eds/bin/gnu/H-i686-pc-linux-gnu/bin/../lib/gcc/nios2-elf/4.1.2/mno-hw-mul/libgcc.a(_eq_df.o)
                0x0008ba0c                __eqdf2
 .text          0x0008ba94       0x88 /tools/altera/12.0/nios2eds/bin/gnu/H-i686-pc-linux-gnu/bin/../lib/gcc/nios2-elf/4.1.2/mno-hw-mul/libgcc.a(_ne_df.o)
                0x0008ba94                __nedf2
 .text          0x0008bb1c       0x88 /tools/altera/12.0/nios2eds/bin/gnu/H-i686-pc-linux-gnu/bin/../lib/gcc/nios2-elf/4.1.2/mno-hw-mul/libgcc.a(_gt_df.o)
                0x0008bb1c                __gtdf2
 .text          0x0008bba4       0x88 /tools/altera/12.0/nios2eds/bin/gnu/H-i686-pc-linux-gnu/bin/../lib/gcc/nios2-elf/4.1.2/mno-hw-mul/libgcc.a(_ge_df.o)
                0x0008bba4                __gedf2
 .text          0x0008bc2c       0x88 /tools/altera/12.0/nios2eds/bin/gnu/H-i686-pc-linux-gnu/bin/../lib/gcc/nios2-elf/4.1.2/mno-hw-mul/libgcc.a(_lt_df.o)
                0x0008bc2c                __ltdf2
 .text          0x0008bcb4       0xf8 /tools/altera/12.0/nios2eds/bin/gnu/H-i686-pc-linux-gnu/bin/../lib/gcc/nios2-elf/4.1.2/mno-hw-mul/libgcc.a(_si_to_df.o)
                0x0008bcb4                __floatsidf
 .text          0x0008bdac       0xd8 /tools/altera/12.0/nios2eds/bin/gnu/H-i686-pc-linux-gnu/bin/../lib/gcc/nios2-elf/4.1.2/mno-hw-mul/libgcc.a(_df_to_si.o)
                0x0008bdac                __fixdfsi
 .text          0x0008be84        0x0 /tools/altera/12.0/nios2eds/bin/gnu/H-i686-pc-linux-gnu/bin/../lib/gcc/nios2-elf/4.1.2/mno-hw-mul/libgcc.a(_thenan_df.o)
 .text          0x0008be84      0x194 /tools/altera/12.0/nios2eds/bin/gnu/H-i686-pc-linux-gnu/bin/../lib/gcc/nios2-elf/4.1.2/mno-hw-mul/libgcc.a(_usi_to_df.o)
                0x0008be84                __floatunsidf
 .text          0x0008c018        0x0 /tools/altera/12.0/nios2eds/bin/gnu/H-i686-pc-linux-gnu/bin/../lib/gcc/nios2-elf/4.1.2/mno-hw-mul/libgcc.a(_clz.o)
 .text          0x0008c018       0x80 /tools/altera/12.0/nios2eds/bin/gnu/H-i686-pc-linux-gnu/bin/../lib/gcc/nios2-elf/4.1.2/mno-hw-mul/libgcc.a(_clzsi2.o)
                0x0008c018                __clzsi2
 .text          0x0008c098      0x314 /tools/altera/12.0/nios2eds/bin/gnu/H-i686-pc-linux-gnu/bin/../lib/gcc/nios2-elf/4.1.2/mno-hw-mul/libgcc.a(_pack_df.o)
                0x0008c098                __pack_d
 .text          0x0008c3ac      0x138 /tools/altera/12.0/nios2eds/bin/gnu/H-i686-pc-linux-gnu/bin/../lib/gcc/nios2-elf/4.1.2/mno-hw-mul/libgcc.a(_unpack_df.o)
                0x0008c3ac                __unpack_d
 .text          0x0008c4e4       0xc8 /tools/altera/12.0/nios2eds/bin/gnu/H-i686-pc-linux-gnu/bin/../lib/gcc/nios2-elf/4.1.2/mno-hw-mul/libgcc.a(_fpcmp_parts_df.o)
                0x0008c4e4                __fpcmp_parts_d
 .text          0x0008c5ac      0x160 ../experiment1_bsp//libucosii_bsp.a(alt_close.o)
                0x0008c5ac                close
 .text          0x0008c70c       0x2c ../experiment1_bsp//libucosii_bsp.a(alt_dev.o)
 .text          0x0008c738        0x0 ../experiment1_bsp//libucosii_bsp.a(alt_errno.o)
 .text          0x0008c738      0x138 ../experiment1_bsp//libucosii_bsp.a(alt_fstat.o)
                0x0008c738                fstat
 .text          0x0008c870      0x1c0 ../experiment1_bsp//libucosii_bsp.a(alt_irq_register.o)
                0x0008c870                alt_irq_register
 .text          0x0008ca30        0x0 ../experiment1_bsp//libucosii_bsp.a(alt_irq_vars.o)
 .text          0x0008ca30      0x124 ../experiment1_bsp//libucosii_bsp.a(alt_isatty.o)
                0x0008ca30                isatty
 .text          0x0008cb54       0xec ../experiment1_bsp//libucosii_bsp.a(alt_load.o)
                0x0008cb54                alt_load
 .text          0x0008cc40      0x154 ../experiment1_bsp//libucosii_bsp.a(alt_lseek.o)
                0x0008cc40                lseek
 .text          0x0008cd94       0xc8 ../experiment1_bsp//libucosii_bsp.a(alt_main.o)
                0x0008cd94                alt_main
 .text          0x0008ce5c      0x184 ../experiment1_bsp//libucosii_bsp.a(alt_read.o)
                0x0008ce5c                read
 .text          0x0008cfe0       0x78 ../experiment1_bsp//libucosii_bsp.a(alt_release_fd.o)
                0x0008cfe0                alt_release_fd
 .text          0x0008d058       0xbc ../experiment1_bsp//libucosii_bsp.a(alt_sbrk.o)
                0x0008d058                sbrk
 .text          0x0008d114      0x184 ../experiment1_bsp//libucosii_bsp.a(alt_write.o)
                0x0008d114                write
 .text          0x0008d298      0x108 ../experiment1_bsp//libucosii_bsp.a(alt_env_lock.o)
                0x0008d298                __env_lock
                0x0008d344                __env_unlock
 .text          0x0008d3a0      0x1d8 ../experiment1_bsp//libucosii_bsp.a(alt_malloc_lock.o)
                0x0008d3a0                __malloc_lock
                0x0008d4a8                __malloc_unlock
 .text          0x0008d578     0x2128 ../experiment1_bsp//libucosii_bsp.a(os_core.o)
                0x0008d578                OSEventNameGet
                0x0008d6a8                OSEventNameSet
                0x0008d7ec                OSEventPendMulti
                0x0008dea0                OSInit
                0x0008def4                OSIntEnter
                0x0008df70                OSIntExit
                0x0008e070                OSSchedLock
                0x0008e0fc                OSSchedUnlock
                0x0008e1e0                OSStart
                0x0008e250                OSStatInit
                0x0008e2fc                OSTimeTick
                0x0008e53c                OSVersion
                0x0008e55c                OS_Dummy
                0x0008e578                OS_EventTaskRdy
                0x0008e70c                OS_EventTaskWait
                0x0008e81c                OS_EventTaskWaitMulti
                0x0008e970                OS_EventTaskRemove
                0x0008ea28                OS_EventTaskRemoveMulti
                0x0008eb2c                OS_EventWaitListInit
                0x0008eef8                OS_MemClr
                0x0008ef4c                OS_MemCopy
                0x0008efb8                OS_Sched
                0x0008f0fc                OS_StrCopy
                0x0008f17c                OS_StrLen
                0x0008f1d4                OS_TaskIdle
                0x0008f230                OS_TaskStat
                0x0008f2f8                OS_TaskStatStkChk
                0x0008f3c0                OS_TCBInit
 .text          0x0008f6a0      0x18c ../experiment1_bsp//libucosii_bsp.a(os_dbg.o)
                0x0008f6a0                OSDebugInit
 .text          0x0008f82c     0x193c ../experiment1_bsp//libucosii_bsp.a(os_flag.o)
                0x0008f82c                OSFlagAccept
                0x0008fb60                OSFlagCreate
                0x0008fc9c                OSFlagDel
                0x0008ff44                OSFlagNameGet
                0x00090088                OSFlagNameSet
                0x000901dc                OSFlagPend
                0x00090820                OSFlagPendGetFlagsRdy
                0x00090888                OSFlagPost
                0x00090c30                OSFlagQuery
                0x00090ec8                OS_FlagInit
                0x000910bc                OS_FlagUnlink
 .text          0x00091168      0xc8c ../experiment1_bsp//libucosii_bsp.a(os_mbox.o)
                0x00091168                OSMboxAccept
                0x0009120c                OSMboxCreate
                0x00091320                OSMboxDel
                0x000915c0                OSMboxPend
                0x00091888                OSMboxPendAbort
                0x00091a04                OSMboxPost
                0x00091b38                OSMboxPostOpt
                0x00091cc4                OSMboxQuery
 .text          0x00091df4      0x80c ../experiment1_bsp//libucosii_bsp.a(os_mem.o)
                0x00091df4                OSMemCreate
                0x00092010                OSMemGet
                0x00092114                OSMemNameGet
                0x00092220                OSMemNameSet
                0x00092340                OSMemPut
                0x00092430                OSMemQuery
                0x0009252c                OS_MemInit
 .text          0x00092600     0x1334 ../experiment1_bsp//libucosii_bsp.a(os_q.o)
                0x00092600                OSQAccept
                0x00092754                OSQCreate
                0x00092968                OSQDel
                0x00092c68                OSQFlush
                0x00092d30                OSQPend
                0x00093050                OSQPendAbort
                0x000931cc                OSQPost
                0x0009334c                OSQPostFront
                0x000934d4                OSQPostOpt
                0x00093708                OSQQuery
                0x00093888                OS_QInit
 .text          0x00093934      0xbc8 ../experiment1_bsp//libucosii_bsp.a(os_sem.o)
                0x00093934                OSSemAccept
                0x000939f4                OSSemCreate
                0x00093b08                OSSemDel
                0x00093da8                OSSemPend
                0x00094024                OSSemPendAbort
                0x000941a0                OSSemPost
                0x000942c8                OSSemQuery
                0x000943f8                OSSemSet
 .text          0x000944fc     0x1a40 ../experiment1_bsp//libucosii_bsp.a(os_task.o)
                0x000944fc                OSTaskChangePrio
                0x00094a70                OSTaskCreate
                0x00094c44                OSTaskCreateExt
                0x00094e44                OSTaskDel
                0x00095250                OSTaskDelReq
                0x000953c0                OSTaskNameGet
                0x00095578                OSTaskNameSet
                0x0009573c                OSTaskResume
                0x00095954                OSTaskStkChk
                0x00095b50                OSTaskSuspend
                0x00095d7c                OSTaskQuery
                0x00095ec0                OS_TaskStkClr
 .text          0x00095f3c      0x5b4 ../experiment1_bsp//libucosii_bsp.a(os_time.o)
                0x00095f3c                OSTimeDly
                0x00096088                OSTimeDlyHMSM
                0x00096218                OSTimeDlyResume
                0x00096428                OSTimeGet
                0x0009648c                OSTimeSet
 .text          0x000964f0       0xf0 ../experiment1_bsp//libucosii_bsp.a(alt_sys_init.o)
                0x000964f0                alt_irq_init
                0x00096524                alt_sys_init
 .text          0x000965e0      0x148 ../experiment1_bsp//libucosii_bsp.a(altera_avalon_jtag_uart_fd.o)
                0x000965e0                altera_avalon_jtag_uart_read_fd
                0x00096638                altera_avalon_jtag_uart_write_fd
                0x00096690                altera_avalon_jtag_uart_close_fd
                0x000966d8                altera_avalon_jtag_uart_ioctl_fd
 .text          0x00096728      0x584 ../experiment1_bsp//libucosii_bsp.a(altera_avalon_jtag_uart_init.o)
                0x00096728                altera_avalon_jtag_uart_init
                0x00096c38                altera_avalon_jtag_uart_close
 .text          0x00096cac       0xf4 ../experiment1_bsp//libucosii_bsp.a(altera_avalon_jtag_uart_ioctl.o)
                0x00096cac                altera_avalon_jtag_uart_ioctl
 .text          0x00096da0      0x2c0 ../experiment1_bsp//libucosii_bsp.a(altera_avalon_jtag_uart_read.o)
                0x00096da0                altera_avalon_jtag_uart_read
 .text          0x00097060      0x2dc ../experiment1_bsp//libucosii_bsp.a(altera_avalon_jtag_uart_write.o)
                0x00097060                altera_avalon_jtag_uart_write
 .text          0x0009733c      0x18c ../experiment1_bsp//libucosii_bsp.a(altera_avalon_performance_counter.o)
                0x0009733c                perf_get_section_time
                0x000973ec                perf_get_total_time
                0x00097440                perf_get_num_starts
                0x00097480                alt_get_performance_counter_base
                0x000974a4                alt_get_cpu_freq
 .text          0x000974c8      0x100 ../experiment1_bsp//libucosii_bsp.a(altera_avalon_timer_sc.o)
                0x00097538                alt_avalon_timer_sc_init
 .text          0x000975c8      0x530 ../experiment1_bsp//libucosii_bsp.a(altera_up_avalon_character_lcd.o)
                0x000975c8                get_DDRAM_addr
                0x00097644                alt_up_character_lcd_send_cmd
                0x00097678                alt_up_character_lcd_init
                0x000976ac                alt_up_character_lcd_open_dev
                0x000976ec                alt_up_character_lcd_write
                0x00097764                alt_up_character_lcd_string
                0x000977dc                alt_up_character_lcd_write_fd
                0x00097828                alt_up_character_lcd_set_cursor_pos
                0x000978a0                alt_up_character_lcd_shift_cursor
                0x00097950                alt_up_character_lcd_shift_display
                0x00097a00                alt_up_character_lcd_erase_pos
                0x00097a90                alt_up_character_lcd_cursor_off
                0x00097ac4                alt_up_character_lcd_cursor_blink_on
 .text          0x00097af8      0x154 ../experiment1_bsp//libucosii_bsp.a(alt_alarm_start.o)
                0x00097af8                alt_alarm_start
 .text          0x00097c4c       0x1c ../experiment1_bsp//libucosii_bsp.a(alt_dcache_flush_all.o)
                0x00097c4c                alt_dcache_flush_all
 .text          0x00097c68      0x114 ../experiment1_bsp//libucosii_bsp.a(alt_dev_llist_insert.o)
                0x00097c68                alt_dev_llist_insert
 .text          0x00097d7c       0x64 ../experiment1_bsp//libucosii_bsp.a(alt_do_ctors.o)
                0x00097d7c                _do_ctors
 .text          0x00097de0       0x64 ../experiment1_bsp//libucosii_bsp.a(alt_do_dtors.o)
                0x00097de0                _do_dtors
 .text          0x00097e44       0x94 ../experiment1_bsp//libucosii_bsp.a(alt_find_dev.o)
                0x00097e44                alt_find_dev
 .text          0x00097ed8       0x1c ../experiment1_bsp//libucosii_bsp.a(alt_icache_flush_all.o)
                0x00097ed8                alt_icache_flush_all
 .text          0x00097ef4      0x1d4 ../experiment1_bsp//libucosii_bsp.a(alt_iic.o)
                0x00097ef4                alt_ic_isr_register
                0x00097f44                alt_ic_irq_enable
                0x00097fe0                alt_ic_irq_disable
                0x00098080                alt_ic_irq_enabled
 .text          0x000980c8       0xf8 ../experiment1_bsp//libucosii_bsp.a(alt_iic_isr_register.o)
                0x000980c8                alt_iic_isr_register
 .text          0x000981c0      0x150 ../experiment1_bsp//libucosii_bsp.a(alt_io_redirect.o)
                0x00098298                alt_io_redirect
 .text          0x00098310        0x0 ../experiment1_bsp//libucosii_bsp.a(alt_irq_entry.o)
 .text          0x00098310        0x0 ../experiment1_bsp//libucosii_bsp.a(alt_irq_handler.o)
 .text          0x00098310      0x2e4 ../experiment1_bsp//libucosii_bsp.a(alt_open.o)
                0x00098408                open
 .text          0x000985f4      0x1a8 ../experiment1_bsp//libucosii_bsp.a(alt_tick.o)
                0x000985f4                alt_alarm_stop
                0x0009868c                alt_tick
 .text          0x0009879c       0x20 ../experiment1_bsp//libucosii_bsp.a(altera_nios2_qsys_irq.o)
                0x0009879c                altera_nios2_qsys_irq_init
 .text          0x000987bc       0xd0 ../experiment1_bsp//libucosii_bsp.a(os_cpu_a.o)
                0x000987bc                OSCtxSw
                0x000987bc                OSIntCtxSw
                0x00098848                OSStartHighRdy
                0x00098868                OSStartTsk
 .text          0x0009888c      0x418 ../experiment1_bsp//libucosii_bsp.a(os_cpu_c.o)
                0x0009888c                OSTaskStkInit
                0x00098b9c                OSTaskCreateHook
                0x00098bbc                OSTaskDelHook
                0x00098bdc                OSTaskSwHook
                0x00098bf8                OSTaskStatHook
                0x00098c14                OSTimeTickHook
                0x00098c30                OSInitHookBegin
                0x00098c4c                OSInitHookEnd
                0x00098c68                OSTaskIdleHook
                0x00098c84                OSTCBInitHook
 .text          0x00098ca4        0x0 ../experiment1_bsp//libucosii_bsp.a(alt_exception_entry.o)
 .text          0x00098ca4      0x120 ../experiment1_bsp//libucosii_bsp.a(alt_find_file.o)
                0x00098ca4                alt_find_file
 .text          0x00098dc4      0x104 ../experiment1_bsp//libucosii_bsp.a(alt_get_fd.o)
                0x00098dc4                alt_get_fd
 .text          0x00098ec8       0x14 /tools/altera/12.0/nios2eds/bin/gnu/H-i686-pc-linux-gnu/bin/../lib/gcc/nios2-elf/4.1.2/../../../../nios2-elf/lib/mno-hw-mul/libc.a(lib_a-atexit.o)
                0x00098ec8                atexit
 .text          0x00098edc       0x38 /tools/altera/12.0/nios2eds/bin/gnu/H-i686-pc-linux-gnu/bin/../lib/gcc/nios2-elf/4.1.2/../../../../nios2-elf/lib/mno-hw-mul/libc.a(lib_a-exit.o)
                0x00098edc                exit
 .text          0x00098f14       0x74 /tools/altera/12.0/nios2eds/bin/gnu/H-i686-pc-linux-gnu/bin/../lib/gcc/nios2-elf/4.1.2/../../../../nios2-elf/lib/mno-hw-mul/libc.a(lib_a-memcmp.o)
                0x00098f14                memcmp
 .text          0x00098f88      0x134 /tools/altera/12.0/nios2eds/bin/gnu/H-i686-pc-linux-gnu/bin/../lib/gcc/nios2-elf/4.1.2/../../../../nios2-elf/lib/mno-hw-mul/libc.a(lib_a-__atexit.o)
                0x00098f88                __register_exitproc
 .text          0x000990bc      0x1b4 /tools/altera/12.0/nios2eds/bin/gnu/H-i686-pc-linux-gnu/bin/../lib/gcc/nios2-elf/4.1.2/../../../../nios2-elf/lib/mno-hw-mul/libc.a(lib_a-__call_atexit.o)
                0x000990c0                __call_exitprocs
 .text          0x00099270       0x6c ../experiment1_bsp//libucosii_bsp.a(alt_exit.o)
                0x000992b0                _exit
 *(.gnu.warning.*)
 *(.fini)
                0x000992dc                PROVIDE (__etext, ABSOLUTE (.))
                0x000992dc                PROVIDE (_etext, ABSOLUTE (.))
                0x000992dc                PROVIDE (etext, ABSOLUTE (.))
 *(.eh_frame_hdr)
                0x000992dc                . = ALIGN (0x4)
                0x000992dc                PROVIDE (__preinit_array_start, ABSOLUTE (.))
 *(.preinit_array)
                0x000992dc                PROVIDE (__preinit_array_end, ABSOLUTE (.))
                0x000992dc                PROVIDE (__init_array_start, ABSOLUTE (.))
 *(.init_array)
                0x000992dc                PROVIDE (__init_array_end, ABSOLUTE (.))
                0x000992dc                PROVIDE (__fini_array_start, ABSOLUTE (.))
 *(.fini_array)
                0x000992dc                PROVIDE (__fini_array_end, ABSOLUTE (.))
 *(.eh_frame)
 .eh_frame      0x000992dc       0x40 /tools/altera/12.0/nios2eds/bin/gnu/H-i686-pc-linux-gnu/bin/../lib/gcc/nios2-elf/4.1.2/mno-hw-mul/libgcc.a(_udivdi3.o)
 .eh_frame      0x0009931c       0x2c /tools/altera/12.0/nios2eds/bin/gnu/H-i686-pc-linux-gnu/bin/../lib/gcc/nios2-elf/4.1.2/mno-hw-mul/libgcc.a(_umoddi3.o)
                                 0x40 (size before relaxing)
 *(.gcc_except_table)
 *(.dynamic)
                0x00099348                PROVIDE (__CTOR_LIST__, ABSOLUTE (.))
 *(.ctors)
 *(SORT(.ctors.*))
 .ctors.65535   0x00099348        0x4 /tools/altera/12.0/nios2eds/bin/gnu/H-i686-pc-linux-gnu/bin/../lib/gcc/nios2-elf/4.1.2/../../../../nios2-elf/lib/mno-hw-mul/libc.a(lib_a-__call_atexit.o)
                0x0009934c                PROVIDE (__CTOR_END__, ABSOLUTE (.))
                0x0009934c                PROVIDE (__DTOR_LIST__, ABSOLUTE (.))
 *(.dtors)
 *(SORT(.dtors.*))
                0x0009934c                PROVIDE (__DTOR_END__, ABSOLUTE (.))
 *(.jcr)
                0x0009934c                . = ALIGN (0x4)

.rodata         0x0009934c      0xcc4
                0x0009934c                PROVIDE (__ram_rodata_start, ABSOLUTE (.))
                0x0009934c                . = ALIGN (0x4)
 *(.rodata .rodata.* .gnu.linkonce.r.*)
 .rodata        0x0009934c      0x3bc obj/default/alt_ucosii_simple_error_check.o
 .rodata        0x00099708      0x130 obj/default/experiment1.o
 .rodata        0x00099838      0x358 obj/default/tasks.o
 .rodata.str1.4
                0x00099b90        0x2 /tools/altera/12.0/nios2eds/bin/gnu/H-i686-pc-linux-gnu/bin/../lib/gcc/nios2-elf/4.1.2/../../../../nios2-elf/lib/mno-hw-mul/libc.a(lib_a-impure.o)
                                  0x4 (size before relaxing)
 *fill*         0x00099b92        0x2 00
 .rodata.str1.4
                0x00099b94        0x2 /tools/altera/12.0/nios2eds/bin/gnu/H-i686-pc-linux-gnu/bin/../lib/gcc/nios2-elf/4.1.2/../../../../nios2-elf/lib/mno-hw-mul/libc.a(lib_a-puts.o)
                                  0x4 (size before relaxing)
 *fill*         0x00099b96        0x2 00
 .rodata.str1.4
                0x00099b98       0x5e /tools/altera/12.0/nios2eds/bin/gnu/H-i686-pc-linux-gnu/bin/../lib/gcc/nios2-elf/4.1.2/../../../../nios2-elf/lib/mno-hw-mul/libc.a(lib_a-vfprintf.o)
                                 0x60 (size before relaxing)
 .rodata        0x00099bf6       0x20 /tools/altera/12.0/nios2eds/bin/gnu/H-i686-pc-linux-gnu/bin/../lib/gcc/nios2-elf/4.1.2/../../../../nios2-elf/lib/mno-hw-mul/libc.a(lib_a-vfprintf.o)
 *fill*         0x00099c16        0x2 00
 .rodata.str1.4
                0x00099c18       0x10 /tools/altera/12.0/nios2eds/bin/gnu/H-i686-pc-linux-gnu/bin/../lib/gcc/nios2-elf/4.1.2/../../../../nios2-elf/lib/mno-hw-mul/libc.a(lib_a-dtoa.o)
                                 0x14 (size before relaxing)
 .rodata.str1.4
                0x00099c28       0x10 /tools/altera/12.0/nios2eds/bin/gnu/H-i686-pc-linux-gnu/bin/../lib/gcc/nios2-elf/4.1.2/../../../../nios2-elf/lib/mno-hw-mul/libc.a(lib_a-locale.o)
                                 0x18 (size before relaxing)
 .rodata        0x00099c38       0x30 /tools/altera/12.0/nios2eds/bin/gnu/H-i686-pc-linux-gnu/bin/../lib/gcc/nios2-elf/4.1.2/../../../../nios2-elf/lib/mno-hw-mul/libc.a(lib_a-locale.o)
 .rodata        0x00099c68      0x124 /tools/altera/12.0/nios2eds/bin/gnu/H-i686-pc-linux-gnu/bin/../lib/gcc/nios2-elf/4.1.2/../../../../nios2-elf/lib/mno-hw-mul/libc.a(lib_a-mprec.o)
                0x00099c68                __mprec_tens
                0x00099d30                __mprec_bigtens
                0x00099d58                __mprec_tinytens
 .rodata        0x00099d8c       0x14 /tools/altera/12.0/nios2eds/bin/gnu/H-i686-pc-linux-gnu/bin/../lib/gcc/nios2-elf/4.1.2/mno-hw-mul/libgcc.a(_thenan_df.o)
                0x00099d8c                __thenan_df
 .rodata        0x00099da0      0x100 /tools/altera/12.0/nios2eds/bin/gnu/H-i686-pc-linux-gnu/bin/../lib/gcc/nios2-elf/4.1.2/mno-hw-mul/libgcc.a(_clz.o)
                0x00099da0                __clz_tab
 .rodata        0x00099ea0        0xc ../experiment1_bsp//libucosii_bsp.a(alt_dev.o)
 .rodata        0x00099eac       0x14 ../experiment1_bsp//libucosii_bsp.a(alt_main.o)
 .rodata        0x00099ec0      0x120 ../experiment1_bsp//libucosii_bsp.a(os_core.o)
                0x00099ec0                OSUnMapTbl
 .rodata        0x00099fe0       0x2c ../experiment1_bsp//libucosii_bsp.a(alt_sys_init.o)
 .rodata        0x0009a00c        0x4 ../experiment1_bsp//libucosii_bsp.a(os_cpu_c.o)
 *(.rodata1)
                0x0009a010                . = ALIGN (0x4)
                0x0009a010                PROVIDE (__ram_rodata_end, ABSOLUTE (.))
                0x0009934c                PROVIDE (__flash_rodata_start, LOADADDR (.rodata))

.rwdata         0x0009a010     0x1b14 load address 0x0009bb24
                0x0009a010                PROVIDE (__ram_rwdata_start, ABSOLUTE (.))
                0x0009a010                . = ALIGN (0x4)
 *(.got.plt)
 *(.got)
 *(.data1)
 *(.data .data.* .gnu.linkonce.d.*)
 .data          0x0009a010        0x0 ../experiment1_bsp//obj/HAL/src/crt0.o
 .data          0x0009a010        0x0 obj/default/PB_button.o
 .data          0x0009a010        0x0 obj/default/alt_ucosii_simple_error_check.o
 .data          0x0009a010        0x0 obj/default/experiment1.o
 .data          0x0009a010        0x0 obj/default/tasks.o
 .data          0x0009a010        0x0 /tools/altera/12.0/nios2eds/bin/gnu/H-i686-pc-linux-gnu/bin/../lib/gcc/nios2-elf/4.1.2/mno-hw-mul/libgcc.a(lib2-divmod.o)
 .data          0x0009a010        0x0 /tools/altera/12.0/nios2eds/bin/gnu/H-i686-pc-linux-gnu/bin/../lib/gcc/nios2-elf/4.1.2/mno-hw-mul/libgcc.a(lib2-mul.o)
 .data          0x0009a010        0x0 /tools/altera/12.0/nios2eds/bin/gnu/H-i686-pc-linux-gnu/bin/../lib/gcc/nios2-elf/4.1.2/../../../../nios2-elf/lib/mno-hw-mul/libc.a(lib_a-fprintf.o)
 .data          0x0009a010        0x0 /tools/altera/12.0/nios2eds/bin/gnu/H-i686-pc-linux-gnu/bin/../lib/gcc/nios2-elf/4.1.2/../../../../nios2-elf/lib/mno-hw-mul/libc.a(lib_a-fwrite.o)
 .data          0x0009a010      0x400 /tools/altera/12.0/nios2eds/bin/gnu/H-i686-pc-linux-gnu/bin/../lib/gcc/nios2-elf/4.1.2/../../../../nios2-elf/lib/mno-hw-mul/libc.a(lib_a-impure.o)
 .data          0x0009a410        0x0 /tools/altera/12.0/nios2eds/bin/gnu/H-i686-pc-linux-gnu/bin/../lib/gcc/nios2-elf/4.1.2/../../../../nios2-elf/lib/mno-hw-mul/libc.a(lib_a-printf.o)
 .data          0x0009a410        0x0 /tools/altera/12.0/nios2eds/bin/gnu/H-i686-pc-linux-gnu/bin/../lib/gcc/nios2-elf/4.1.2/../../../../nios2-elf/lib/mno-hw-mul/libc.a(lib_a-putchar.o)
 .data          0x0009a410        0x0 /tools/altera/12.0/nios2eds/bin/gnu/H-i686-pc-linux-gnu/bin/../lib/gcc/nios2-elf/4.1.2/../../../../nios2-elf/lib/mno-hw-mul/libc.a(lib_a-puts.o)
 .data          0x0009a410        0x0 /tools/altera/12.0/nios2eds/bin/gnu/H-i686-pc-linux-gnu/bin/../lib/gcc/nios2-elf/4.1.2/../../../../nios2-elf/lib/mno-hw-mul/libc.a(lib_a-rand.o)
 .data          0x0009a410        0x0 /tools/altera/12.0/nios2eds/bin/gnu/H-i686-pc-linux-gnu/bin/../lib/gcc/nios2-elf/4.1.2/../../../../nios2-elf/lib/mno-hw-mul/libc.a(lib_a-strlen.o)
 .data          0x0009a410        0x0 /tools/altera/12.0/nios2eds/bin/gnu/H-i686-pc-linux-gnu/bin/../lib/gcc/nios2-elf/4.1.2/../../../../nios2-elf/lib/mno-hw-mul/libc.a(lib_a-vfprintf.o)
 .data          0x0009a410        0x0 /tools/altera/12.0/nios2eds/bin/gnu/H-i686-pc-linux-gnu/bin/../lib/gcc/nios2-elf/4.1.2/../../../../nios2-elf/lib/mno-hw-mul/libc.a(lib_a-wsetup.o)
 .data          0x0009a410        0x0 /tools/altera/12.0/nios2eds/bin/gnu/H-i686-pc-linux-gnu/bin/../lib/gcc/nios2-elf/4.1.2/../../../../nios2-elf/lib/mno-hw-mul/libc.a(lib_a-dtoa.o)
 .data          0x0009a410        0x0 /tools/altera/12.0/nios2eds/bin/gnu/H-i686-pc-linux-gnu/bin/../lib/gcc/nios2-elf/4.1.2/../../../../nios2-elf/lib/mno-hw-mul/libc.a(lib_a-fflush.o)
 .data          0x0009a410        0x0 /tools/altera/12.0/nios2eds/bin/gnu/H-i686-pc-linux-gnu/bin/../lib/gcc/nios2-elf/4.1.2/../../../../nios2-elf/lib/mno-hw-mul/libc.a(lib_a-findfp.o)
 .data          0x0009a410        0x0 /tools/altera/12.0/nios2eds/bin/gnu/H-i686-pc-linux-gnu/bin/../lib/gcc/nios2-elf/4.1.2/../../../../nios2-elf/lib/mno-hw-mul/libc.a(lib_a-freer.o)
 .data          0x0009a410        0x0 /tools/altera/12.0/nios2eds/bin/gnu/H-i686-pc-linux-gnu/bin/../lib/gcc/nios2-elf/4.1.2/../../../../nios2-elf/lib/mno-hw-mul/libc.a(lib_a-fvwrite.o)
 .data          0x0009a410        0x0 /tools/altera/12.0/nios2eds/bin/gnu/H-i686-pc-linux-gnu/bin/../lib/gcc/nios2-elf/4.1.2/../../../../nios2-elf/lib/mno-hw-mul/libc.a(lib_a-fwalk.o)
 .data          0x0009a410        0xc /tools/altera/12.0/nios2eds/bin/gnu/H-i686-pc-linux-gnu/bin/../lib/gcc/nios2-elf/4.1.2/../../../../nios2-elf/lib/mno-hw-mul/libc.a(lib_a-locale.o)
                0x0009a410                __lc_ctype
 .data          0x0009a41c        0x0 /tools/altera/12.0/nios2eds/bin/gnu/H-i686-pc-linux-gnu/bin/../lib/gcc/nios2-elf/4.1.2/../../../../nios2-elf/lib/mno-hw-mul/libc.a(lib_a-makebuf.o)
 .data          0x0009a41c      0x408 /tools/altera/12.0/nios2eds/bin/gnu/H-i686-pc-linux-gnu/bin/../lib/gcc/nios2-elf/4.1.2/../../../../nios2-elf/lib/mno-hw-mul/libc.a(lib_a-mallocr.o)
                0x0009a41c                __malloc_av_
 .data          0x0009a824        0x0 /tools/altera/12.0/nios2eds/bin/gnu/H-i686-pc-linux-gnu/bin/../lib/gcc/nios2-elf/4.1.2/../../../../nios2-elf/lib/mno-hw-mul/libc.a(lib_a-memchr.o)
 .data          0x0009a824        0x0 /tools/altera/12.0/nios2eds/bin/gnu/H-i686-pc-linux-gnu/bin/../lib/gcc/nios2-elf/4.1.2/../../../../nios2-elf/lib/mno-hw-mul/libc.a(lib_a-memcpy.o)
 .data          0x0009a824        0x0 /tools/altera/12.0/nios2eds/bin/gnu/H-i686-pc-linux-gnu/bin/../lib/gcc/nios2-elf/4.1.2/../../../../nios2-elf/lib/mno-hw-mul/libc.a(lib_a-memmove.o)
 .data          0x0009a824        0x0 /tools/altera/12.0/nios2eds/bin/gnu/H-i686-pc-linux-gnu/bin/../lib/gcc/nios2-elf/4.1.2/../../../../nios2-elf/lib/mno-hw-mul/libc.a(lib_a-memset.o)
 .data          0x0009a824        0x0 /tools/altera/12.0/nios2eds/bin/gnu/H-i686-pc-linux-gnu/bin/../lib/gcc/nios2-elf/4.1.2/../../../../nios2-elf/lib/mno-hw-mul/libc.a(lib_a-mprec.o)
 .data          0x0009a824        0x0 /tools/altera/12.0/nios2eds/bin/gnu/H-i686-pc-linux-gnu/bin/../lib/gcc/nios2-elf/4.1.2/../../../../nios2-elf/lib/mno-hw-mul/libc.a(lib_a-putc.o)
 .data          0x0009a824        0x0 /tools/altera/12.0/nios2eds/bin/gnu/H-i686-pc-linux-gnu/bin/../lib/gcc/nios2-elf/4.1.2/../../../../nios2-elf/lib/mno-hw-mul/libc.a(lib_a-reallocr.o)
 .data          0x0009a824        0x0 /tools/altera/12.0/nios2eds/bin/gnu/H-i686-pc-linux-gnu/bin/../lib/gcc/nios2-elf/4.1.2/../../../../nios2-elf/lib/mno-hw-mul/libc.a(lib_a-s_isinfd.o)
 .data          0x0009a824        0x0 /tools/altera/12.0/nios2eds/bin/gnu/H-i686-pc-linux-gnu/bin/../lib/gcc/nios2-elf/4.1.2/../../../../nios2-elf/lib/mno-hw-mul/libc.a(lib_a-s_isnand.o)
 .data          0x0009a824        0x0 /tools/altera/12.0/nios2eds/bin/gnu/H-i686-pc-linux-gnu/bin/../lib/gcc/nios2-elf/4.1.2/../../../../nios2-elf/lib/mno-hw-mul/libc.a(lib_a-sbrkr.o)
 .data          0x0009a824        0x0 /tools/altera/12.0/nios2eds/bin/gnu/H-i686-pc-linux-gnu/bin/../lib/gcc/nios2-elf/4.1.2/../../../../nios2-elf/lib/mno-hw-mul/libc.a(lib_a-stdio.o)
 .data          0x0009a824        0x0 /tools/altera/12.0/nios2eds/bin/gnu/H-i686-pc-linux-gnu/bin/../lib/gcc/nios2-elf/4.1.2/../../../../nios2-elf/lib/mno-hw-mul/libc.a(lib_a-strcmp.o)
 .data          0x0009a824        0x0 /tools/altera/12.0/nios2eds/bin/gnu/H-i686-pc-linux-gnu/bin/../lib/gcc/nios2-elf/4.1.2/../../../../nios2-elf/lib/mno-hw-mul/libc.a(lib_a-wbuf.o)
 .data          0x0009a824        0x0 /tools/altera/12.0/nios2eds/bin/gnu/H-i686-pc-linux-gnu/bin/../lib/gcc/nios2-elf/4.1.2/../../../../nios2-elf/lib/mno-hw-mul/libc.a(lib_a-writer.o)
 .data          0x0009a824        0x0 /tools/altera/12.0/nios2eds/bin/gnu/H-i686-pc-linux-gnu/bin/../lib/gcc/nios2-elf/4.1.2/../../../../nios2-elf/lib/mno-hw-mul/libc.a(lib_a-callocr.o)
 .data          0x0009a824        0x0 /tools/altera/12.0/nios2eds/bin/gnu/H-i686-pc-linux-gnu/bin/../lib/gcc/nios2-elf/4.1.2/../../../../nios2-elf/lib/mno-hw-mul/libc.a(lib_a-closer.o)
 .data          0x0009a824        0x0 /tools/altera/12.0/nios2eds/bin/gnu/H-i686-pc-linux-gnu/bin/../lib/gcc/nios2-elf/4.1.2/../../../../nios2-elf/lib/mno-hw-mul/libc.a(lib_a-fclose.o)
 .data          0x0009a824        0x0 /tools/altera/12.0/nios2eds/bin/gnu/H-i686-pc-linux-gnu/bin/../lib/gcc/nios2-elf/4.1.2/../../../../nios2-elf/lib/mno-hw-mul/libc.a(lib_a-fstatr.o)
 .data          0x0009a824        0x0 /tools/altera/12.0/nios2eds/bin/gnu/H-i686-pc-linux-gnu/bin/../lib/gcc/nios2-elf/4.1.2/../../../../nios2-elf/lib/mno-hw-mul/libc.a(lib_a-int_errno.o)
 .data          0x0009a824        0x0 /tools/altera/12.0/nios2eds/bin/gnu/H-i686-pc-linux-gnu/bin/../lib/gcc/nios2-elf/4.1.2/../../../../nios2-elf/lib/mno-hw-mul/libc.a(lib_a-isattyr.o)
 .data          0x0009a824        0x0 /tools/altera/12.0/nios2eds/bin/gnu/H-i686-pc-linux-gnu/bin/../lib/gcc/nios2-elf/4.1.2/../../../../nios2-elf/lib/mno-hw-mul/libc.a(lib_a-lseekr.o)
 .data          0x0009a824        0x0 /tools/altera/12.0/nios2eds/bin/gnu/H-i686-pc-linux-gnu/bin/../lib/gcc/nios2-elf/4.1.2/../../../../nios2-elf/lib/mno-hw-mul/libc.a(lib_a-readr.o)
 .data          0x0009a824        0x0 /tools/altera/12.0/nios2eds/bin/gnu/H-i686-pc-linux-gnu/bin/../lib/gcc/nios2-elf/4.1.2/mno-hw-mul/libgcc.a(_muldi3.o)
 .data          0x0009a824        0x0 /tools/altera/12.0/nios2eds/bin/gnu/H-i686-pc-linux-gnu/bin/../lib/gcc/nios2-elf/4.1.2/mno-hw-mul/libgcc.a(_udivdi3.o)
 .data          0x0009a824        0x0 /tools/altera/12.0/nios2eds/bin/gnu/H-i686-pc-linux-gnu/bin/../lib/gcc/nios2-elf/4.1.2/mno-hw-mul/libgcc.a(_umoddi3.o)
 .data          0x0009a824        0x0 /tools/altera/12.0/nios2eds/bin/gnu/H-i686-pc-linux-gnu/bin/../lib/gcc/nios2-elf/4.1.2/mno-hw-mul/libgcc.a(_addsub_df.o)
 .data          0x0009a824        0x0 /tools/altera/12.0/nios2eds/bin/gnu/H-i686-pc-linux-gnu/bin/../lib/gcc/nios2-elf/4.1.2/mno-hw-mul/libgcc.a(_mul_df.o)
 .data          0x0009a824        0x0 /tools/altera/12.0/nios2eds/bin/gnu/H-i686-pc-linux-gnu/bin/../lib/gcc/nios2-elf/4.1.2/mno-hw-mul/libgcc.a(_div_df.o)
 .data          0x0009a824        0x0 /tools/altera/12.0/nios2eds/bin/gnu/H-i686-pc-linux-gnu/bin/../lib/gcc/nios2-elf/4.1.2/mno-hw-mul/libgcc.a(_eq_df.o)
 .data          0x0009a824        0x0 /tools/altera/12.0/nios2eds/bin/gnu/H-i686-pc-linux-gnu/bin/../lib/gcc/nios2-elf/4.1.2/mno-hw-mul/libgcc.a(_ne_df.o)
 .data          0x0009a824        0x0 /tools/altera/12.0/nios2eds/bin/gnu/H-i686-pc-linux-gnu/bin/../lib/gcc/nios2-elf/4.1.2/mno-hw-mul/libgcc.a(_gt_df.o)
 .data          0x0009a824        0x0 /tools/altera/12.0/nios2eds/bin/gnu/H-i686-pc-linux-gnu/bin/../lib/gcc/nios2-elf/4.1.2/mno-hw-mul/libgcc.a(_ge_df.o)
 .data          0x0009a824        0x0 /tools/altera/12.0/nios2eds/bin/gnu/H-i686-pc-linux-gnu/bin/../lib/gcc/nios2-elf/4.1.2/mno-hw-mul/libgcc.a(_lt_df.o)
 .data          0x0009a824        0x0 /tools/altera/12.0/nios2eds/bin/gnu/H-i686-pc-linux-gnu/bin/../lib/gcc/nios2-elf/4.1.2/mno-hw-mul/libgcc.a(_si_to_df.o)
 .data          0x0009a824        0x0 /tools/altera/12.0/nios2eds/bin/gnu/H-i686-pc-linux-gnu/bin/../lib/gcc/nios2-elf/4.1.2/mno-hw-mul/libgcc.a(_df_to_si.o)
 .data          0x0009a824        0x0 /tools/altera/12.0/nios2eds/bin/gnu/H-i686-pc-linux-gnu/bin/../lib/gcc/nios2-elf/4.1.2/mno-hw-mul/libgcc.a(_thenan_df.o)
 .data          0x0009a824        0x0 /tools/altera/12.0/nios2eds/bin/gnu/H-i686-pc-linux-gnu/bin/../lib/gcc/nios2-elf/4.1.2/mno-hw-mul/libgcc.a(_usi_to_df.o)
 .data          0x0009a824        0x0 /tools/altera/12.0/nios2eds/bin/gnu/H-i686-pc-linux-gnu/bin/../lib/gcc/nios2-elf/4.1.2/mno-hw-mul/libgcc.a(_clz.o)
 .data          0x0009a824        0x0 /tools/altera/12.0/nios2eds/bin/gnu/H-i686-pc-linux-gnu/bin/../lib/gcc/nios2-elf/4.1.2/mno-hw-mul/libgcc.a(_clzsi2.o)
 .data          0x0009a824        0x0 /tools/altera/12.0/nios2eds/bin/gnu/H-i686-pc-linux-gnu/bin/../lib/gcc/nios2-elf/4.1.2/mno-hw-mul/libgcc.a(_pack_df.o)
 .data          0x0009a824        0x0 /tools/altera/12.0/nios2eds/bin/gnu/H-i686-pc-linux-gnu/bin/../lib/gcc/nios2-elf/4.1.2/mno-hw-mul/libgcc.a(_unpack_df.o)
 .data          0x0009a824        0x0 /tools/altera/12.0/nios2eds/bin/gnu/H-i686-pc-linux-gnu/bin/../lib/gcc/nios2-elf/4.1.2/mno-hw-mul/libgcc.a(_fpcmp_parts_df.o)
 .data          0x0009a824        0x0 ../experiment1_bsp//libucosii_bsp.a(alt_close.o)
 .data          0x0009a824      0x1a8 ../experiment1_bsp//libucosii_bsp.a(alt_dev.o)
                0x0009a824                alt_dev_null
                0x0009a84c                alt_fd_list
 .data          0x0009a9cc        0x0 ../experiment1_bsp//libucosii_bsp.a(alt_errno.o)
 .data          0x0009a9cc        0x0 ../experiment1_bsp//libucosii_bsp.a(alt_fstat.o)
 .data          0x0009a9cc        0x0 ../experiment1_bsp//libucosii_bsp.a(alt_irq_register.o)
 .data          0x0009a9cc        0x0 ../experiment1_bsp//libucosii_bsp.a(alt_irq_vars.o)
 .data          0x0009a9cc        0x0 ../experiment1_bsp//libucosii_bsp.a(alt_isatty.o)
 .data          0x0009a9cc        0x0 ../experiment1_bsp//libucosii_bsp.a(alt_load.o)
 .data          0x0009a9cc        0x0 ../experiment1_bsp//libucosii_bsp.a(alt_lseek.o)
 .data          0x0009a9cc        0x0 ../experiment1_bsp//libucosii_bsp.a(alt_main.o)
 .data          0x0009a9cc        0x0 ../experiment1_bsp//libucosii_bsp.a(alt_read.o)
 .data          0x0009a9cc        0x0 ../experiment1_bsp//libucosii_bsp.a(alt_release_fd.o)
 .data          0x0009a9cc        0x0 ../experiment1_bsp//libucosii_bsp.a(alt_sbrk.o)
 .data          0x0009a9cc        0x0 ../experiment1_bsp//libucosii_bsp.a(alt_write.o)
 .data          0x0009a9cc        0x0 ../experiment1_bsp//libucosii_bsp.a(alt_env_lock.o)
 .data          0x0009a9cc        0x0 ../experiment1_bsp//libucosii_bsp.a(alt_malloc_lock.o)
 .data          0x0009a9cc        0x0 ../experiment1_bsp//libucosii_bsp.a(os_core.o)
 .data          0x0009a9cc        0x0 ../experiment1_bsp//libucosii_bsp.a(os_dbg.o)
 .data          0x0009a9cc        0x0 ../experiment1_bsp//libucosii_bsp.a(os_flag.o)
 .data          0x0009a9cc        0x0 ../experiment1_bsp//libucosii_bsp.a(os_mbox.o)
 .data          0x0009a9cc        0x0 ../experiment1_bsp//libucosii_bsp.a(os_mem.o)
 .data          0x0009a9cc        0x0 ../experiment1_bsp//libucosii_bsp.a(os_q.o)
 .data          0x0009a9cc        0x0 ../experiment1_bsp//libucosii_bsp.a(os_sem.o)
 .data          0x0009a9cc        0x0 ../experiment1_bsp//libucosii_bsp.a(os_task.o)
 .data          0x0009a9cc        0x0 ../experiment1_bsp//libucosii_bsp.a(os_time.o)
 .data          0x0009a9cc     0x1098 ../experiment1_bsp//libucosii_bsp.a(alt_sys_init.o)
 .data          0x0009ba64        0x0 ../experiment1_bsp//libucosii_bsp.a(altera_avalon_jtag_uart_fd.o)
 .data          0x0009ba64        0x0 ../experiment1_bsp//libucosii_bsp.a(altera_avalon_jtag_uart_init.o)
 .data          0x0009ba64        0x0 ../experiment1_bsp//libucosii_bsp.a(altera_avalon_jtag_uart_ioctl.o)
 .data          0x0009ba64        0x0 ../experiment1_bsp//libucosii_bsp.a(altera_avalon_jtag_uart_read.o)
 .data          0x0009ba64        0x0 ../experiment1_bsp//libucosii_bsp.a(altera_avalon_jtag_uart_write.o)
 .data          0x0009ba64        0x0 ../experiment1_bsp//libucosii_bsp.a(altera_avalon_performance_counter.o)
 .data          0x0009ba64        0x0 ../experiment1_bsp//libucosii_bsp.a(altera_avalon_timer_sc.o)
 .data          0x0009ba64        0x0 ../experiment1_bsp//libucosii_bsp.a(altera_up_avalon_character_lcd.o)
 .data          0x0009ba64        0x0 ../experiment1_bsp//libucosii_bsp.a(alt_alarm_start.o)
 .data          0x0009ba64        0x0 ../experiment1_bsp//libucosii_bsp.a(alt_dcache_flush_all.o)
 .data          0x0009ba64        0x0 ../experiment1_bsp//libucosii_bsp.a(alt_dev_llist_insert.o)
 .data          0x0009ba64        0x0 ../experiment1_bsp//libucosii_bsp.a(alt_do_ctors.o)
 .data          0x0009ba64        0x0 ../experiment1_bsp//libucosii_bsp.a(alt_do_dtors.o)
 .data          0x0009ba64        0x0 ../experiment1_bsp//libucosii_bsp.a(alt_find_dev.o)
 .data          0x0009ba64        0x0 ../experiment1_bsp//libucosii_bsp.a(alt_icache_flush_all.o)
 .data          0x0009ba64        0x0 ../experiment1_bsp//libucosii_bsp.a(alt_iic.o)
 .data          0x0009ba64        0x0 ../experiment1_bsp//libucosii_bsp.a(alt_iic_isr_register.o)
 .data          0x0009ba64        0x0 ../experiment1_bsp//libucosii_bsp.a(alt_io_redirect.o)
 .data          0x0009ba64        0x0 ../experiment1_bsp//libucosii_bsp.a(alt_irq_entry.o)
 .data          0x0009ba64        0x0 ../experiment1_bsp//libucosii_bsp.a(alt_irq_handler.o)
 .data          0x0009ba64        0x0 ../experiment1_bsp//libucosii_bsp.a(alt_open.o)
 .data          0x0009ba64        0x0 ../experiment1_bsp//libucosii_bsp.a(alt_tick.o)
 .data          0x0009ba64        0x0 ../experiment1_bsp//libucosii_bsp.a(altera_nios2_qsys_irq.o)
 .data          0x0009ba64        0x0 ../experiment1_bsp//libucosii_bsp.a(os_cpu_a.o)
 .data          0x0009ba64        0x0 ../experiment1_bsp//libucosii_bsp.a(os_cpu_c.o)
 .data          0x0009ba64        0x0 ../experiment1_bsp//libucosii_bsp.a(alt_exception_entry.o)
 .data          0x0009ba64        0x0 ../experiment1_bsp//libucosii_bsp.a(alt_find_file.o)
 .data          0x0009ba64        0x0 ../experiment1_bsp//libucosii_bsp.a(alt_get_fd.o)
 .data          0x0009ba64        0x0 /tools/altera/12.0/nios2eds/bin/gnu/H-i686-pc-linux-gnu/bin/../lib/gcc/nios2-elf/4.1.2/../../../../nios2-elf/lib/mno-hw-mul/libc.a(lib_a-atexit.o)
 .data          0x0009ba64        0x0 /tools/altera/12.0/nios2eds/bin/gnu/H-i686-pc-linux-gnu/bin/../lib/gcc/nios2-elf/4.1.2/../../../../nios2-elf/lib/mno-hw-mul/libc.a(lib_a-exit.o)
 .data          0x0009ba64        0x0 /tools/altera/12.0/nios2eds/bin/gnu/H-i686-pc-linux-gnu/bin/../lib/gcc/nios2-elf/4.1.2/../../../../nios2-elf/lib/mno-hw-mul/libc.a(lib_a-memcmp.o)
 .data          0x0009ba64        0x0 /tools/altera/12.0/nios2eds/bin/gnu/H-i686-pc-linux-gnu/bin/../lib/gcc/nios2-elf/4.1.2/../../../../nios2-elf/lib/mno-hw-mul/libc.a(lib_a-__atexit.o)
 .data          0x0009ba64        0x0 /tools/altera/12.0/nios2eds/bin/gnu/H-i686-pc-linux-gnu/bin/../lib/gcc/nios2-elf/4.1.2/../../../../nios2-elf/lib/mno-hw-mul/libc.a(lib_a-__call_atexit.o)
 .data          0x0009ba64        0x0 ../experiment1_bsp//libucosii_bsp.a(alt_exit.o)
                0x000a3a64                _gp = ABSOLUTE ((. + 0x8000))
                0x000a3a64                PROVIDE (gp, _gp)
 *(.rwdata .rwdata.*)
 *(.sdata .sdata.* .gnu.linkonce.s.*)
 .sdata         0x0009ba64        0x4 obj/default/tasks.o
                0x0009ba64                performance_name
 .sdata         0x0009ba68        0x8 /tools/altera/12.0/nios2eds/bin/gnu/H-i686-pc-linux-gnu/bin/../lib/gcc/nios2-elf/4.1.2/../../../../nios2-elf/lib/mno-hw-mul/libc.a(lib_a-impure.o)
                0x0009ba68                _impure_ptr
                0x0009ba6c                _global_impure_ptr
 .sdata         0x0009ba70        0x8 /tools/altera/12.0/nios2eds/bin/gnu/H-i686-pc-linux-gnu/bin/../lib/gcc/nios2-elf/4.1.2/../../../../nios2-elf/lib/mno-hw-mul/libc.a(lib_a-locale.o)
                0x0009ba70                __mb_cur_max
 .sdata         0x0009ba78        0x8 /tools/altera/12.0/nios2eds/bin/gnu/H-i686-pc-linux-gnu/bin/../lib/gcc/nios2-elf/4.1.2/../../../../nios2-elf/lib/mno-hw-mul/libc.a(lib_a-mallocr.o)
                0x0009ba78                __malloc_trim_threshold
                0x0009ba7c                __malloc_sbrk_base
 .sdata         0x0009ba80       0x14 ../experiment1_bsp//libucosii_bsp.a(alt_dev.o)
                0x0009ba80                alt_fs_list
                0x0009ba88                alt_dev_list
                0x0009ba90                alt_max_fd
 .sdata         0x0009ba94        0x4 ../experiment1_bsp//libucosii_bsp.a(alt_errno.o)
                0x0009ba94                alt_errno
 .sdata         0x0009ba98        0x4 ../experiment1_bsp//libucosii_bsp.a(alt_irq_vars.o)
                0x0009ba98                alt_priority_mask
 .sdata         0x0009ba9c        0x4 ../experiment1_bsp//libucosii_bsp.a(alt_sbrk.o)
 .sdata         0x0009baa0        0x4 ../experiment1_bsp//libucosii_bsp.a(alt_env_lock.o)
 .sdata         0x0009baa4        0x4 ../experiment1_bsp//libucosii_bsp.a(alt_malloc_lock.o)
 .sdata         0x0009baa8       0x74 ../experiment1_bsp//libucosii_bsp.a(os_dbg.o)
                0x0009baa8                OSDebugEn
                0x0009baac                OSEndiannessTest
                0x0009bab0                OSEventEn
                0x0009bab2                OSEventMax
                0x0009bab4                OSEventNameSize
                0x0009bab6                OSEventSize
                0x0009bab8                OSEventTblSize
                0x0009baba                OSEventMultiEn
                0x0009babc                OSFlagEn
                0x0009babe                OSFlagGrpSize
                0x0009bac0                OSFlagNodeSize
                0x0009bac2                OSFlagWidth
                0x0009bac4                OSFlagMax
                0x0009bac6                OSFlagNameSize
                0x0009bac8                OSLowestPrio
                0x0009baca                OSMboxEn
                0x0009bacc                OSMemEn
                0x0009bace                OSMemMax
                0x0009bad0                OSMemNameSize
                0x0009bad2                OSMemSize
                0x0009bad4                OSMemTblSize
                0x0009bad6                OSMutexEn
                0x0009bad8                OSPtrSize
                0x0009bada                OSQEn
                0x0009badc                OSQMax
                0x0009bade                OSQSize
                0x0009bae0                OSRdyTblSize
                0x0009bae2                OSSemEn
                0x0009bae4                OSStkWidth
                0x0009bae6                OSTaskCreateEn
                0x0009bae8                OSTaskCreateExtEn
                0x0009baea                OSTaskDelEn
                0x0009baec                OSTaskIdleStkSize
                0x0009baee                OSTaskProfileEn
                0x0009baf0                OSTaskMax
                0x0009baf2                OSTaskNameSize
                0x0009baf4                OSTaskStatEn
                0x0009baf6                OSTaskStatStkSize
                0x0009baf8                OSTaskStatStkChkEn
                0x0009bafa                OSTaskSwHookEn
                0x0009bafc                OSTCBPrioTblMax
                0x0009bafe                OSTCBSize
                0x0009bb00                OSTicksPerSec
                0x0009bb02                OSTimeTickHookEn
                0x0009bb04                OSVersionNbr
                0x0009bb06                OSTmrEn
                0x0009bb08                OSTmrCfgMax
                0x0009bb0a                OSTmrCfgNameSize
                0x0009bb0c                OSTmrCfgWheelSize
                0x0009bb0e                OSTmrCfgTicksPerSec
                0x0009bb10                OSTmrSize
                0x0009bb12                OSTmrTblSize
                0x0009bb14                OSTmrWheelSize
                0x0009bb16                OSTmrWheelTblSize
                0x0009bb18                OSDataSize
 .sdata         0x0009bb1c        0x8 ../experiment1_bsp//libucosii_bsp.a(alt_tick.o)
                0x0009bb1c                alt_alarm_list
 *(.sdata2 .sdata2.* .gnu.linkonce.s2.*)
                0x0009bb24                . = ALIGN (0x4)
                0x0009bb24                _edata = ABSOLUTE (.)
                0x0009bb24                PROVIDE (edata, ABSOLUTE (.))
                0x0009bb24                PROVIDE (__ram_rwdata_end, ABSOLUTE (.))
                0x0009bb24                PROVIDE (__flash_rwdata_start, LOADADDR (.rwdata))

.bss            0x0009d638    0x1a928
                0x0009d638                __bss_start = ABSOLUTE (.)
                0x0009d638                PROVIDE (__sbss_start, ABSOLUTE (.))
                0x0009d638                PROVIDE (___sbss_start, ABSOLUTE (.))
 *(.dynsbss)
 *(.sbss .sbss.* .gnu.linkonce.sb.*)
 .sbss          0x0009d638       0x14 obj/default/tasks.o
                0x0009d638                MemoryPartition
                0x0009d63c                MboxGenArrayStart
                0x0009d644                MboxMultMerge
                0x0009d648                MemoryPartitionDistinct
 .sbss          0x0009d64c        0xc /tools/altera/12.0/nios2eds/bin/gnu/H-i686-pc-linux-gnu/bin/../lib/gcc/nios2-elf/4.1.2/../../../../nios2-elf/lib/mno-hw-mul/libc.a(lib_a-locale.o)
                0x0009d64c                __nlocale_changed
                0x0009d650                __mlocale_changed
                0x0009d654                _PathLocale
 .sbss          0x0009d658        0xc /tools/altera/12.0/nios2eds/bin/gnu/H-i686-pc-linux-gnu/bin/../lib/gcc/nios2-elf/4.1.2/../../../../nios2-elf/lib/mno-hw-mul/libc.a(lib_a-mallocr.o)
                0x0009d658                __malloc_top_pad
                0x0009d65c                __malloc_max_sbrked_mem
                0x0009d660                __malloc_max_total_mem
 .sbss          0x0009d664        0x4 /tools/altera/12.0/nios2eds/bin/gnu/H-i686-pc-linux-gnu/bin/../lib/gcc/nios2-elf/4.1.2/../../../../nios2-elf/lib/mno-hw-mul/libc.a(lib_a-int_errno.o)
                0x0009d664                errno
 .sbss          0x0009d668        0x4 ../experiment1_bsp//libucosii_bsp.a(alt_dev.o)
                0x0009d668                alt_fd_list_lock
 .sbss          0x0009d66c        0x4 ../experiment1_bsp//libucosii_bsp.a(alt_irq_vars.o)
                0x0009d66c                alt_irq_active
 .sbss          0x0009d670        0xc ../experiment1_bsp//libucosii_bsp.a(alt_main.o)
                0x0009d670                alt_argc
                0x0009d674                alt_argv
                0x0009d678                alt_envp
 .sbss          0x0009d67c        0x8 ../experiment1_bsp//libucosii_bsp.a(alt_env_lock.o)
                0x0009d680                alt_envsem
 .sbss          0x0009d684        0x8 ../experiment1_bsp//libucosii_bsp.a(alt_malloc_lock.o)
                0x0009d688                alt_heapsem
 .sbss          0x0009d68c       0x50 ../experiment1_bsp//libucosii_bsp.a(os_core.o)
                0x0009d68c                OSLockNesting
                0x0009d68d                OSRunning
                0x0009d690                OSIdleCtr
                0x0009d694                OSPrioHighRdy
                0x0009d695                OSPrioCur
                0x0009d698                OSTCBList
                0x0009d69c                OSTickStepState
                0x0009d6a0                OSCtxSwCtr
                0x0009d6a4                OSIdleCtrMax
                0x0009d6a8                OSTCBFreeList
                0x0009d6ac                OSCPUUsage
                0x0009d6ad                OSTaskCtr
                0x0009d6b0                OSMemFreeList
                0x0009d6b4                OSTCBHighRdy
                0x0009d6b8                OSQFreeList
                0x0009d6bc                OSRdyGrp
                0x0009d6bd                OSRdyTbl
                0x0009d6c0                OSEventFreeList
                0x0009d6c4                OSIntNesting
                0x0009d6c8                OSTCBCur
                0x0009d6cc                OSTime
                0x0009d6d0                OSFlagFreeList
                0x0009d6d4                OSStatRdy
                0x0009d6d8                OSIdleCtrRun
 .sbss          0x0009d6dc        0x8 ../experiment1_bsp//libucosii_bsp.a(alt_tick.o)
                0x0009d6dc                _alt_tick_rate
                0x0009d6e0                _alt_nticks
 *(.sbss2 .sbss2.* .gnu.linkonce.sb2.*)
 *(.scommon)
                0x0009d6e4                PROVIDE (__sbss_end, ABSOLUTE (.))
                0x0009d6e4                PROVIDE (___sbss_end, ABSOLUTE (.))
 *(.dynbss)
 *(.bss .bss.* .gnu.linkonce.b.*)
 .bss           0x0009d6e4        0x0 ../experiment1_bsp//obj/HAL/src/crt0.o
 .bss           0x0009d6e4        0x0 obj/default/PB_button.o
 .bss           0x0009d6e4        0x0 obj/default/alt_ucosii_simple_error_check.o
 .bss           0x0009d6e4        0x0 obj/default/experiment1.o
 .bss           0x0009d6e4        0x0 obj/default/tasks.o
 .bss           0x0009d6e4        0x0 /tools/altera/12.0/nios2eds/bin/gnu/H-i686-pc-linux-gnu/bin/../lib/gcc/nios2-elf/4.1.2/mno-hw-mul/libgcc.a(lib2-divmod.o)
 .bss           0x0009d6e4        0x0 /tools/altera/12.0/nios2eds/bin/gnu/H-i686-pc-linux-gnu/bin/../lib/gcc/nios2-elf/4.1.2/mno-hw-mul/libgcc.a(lib2-mul.o)
 .bss           0x0009d6e4        0x0 /tools/altera/12.0/nios2eds/bin/gnu/H-i686-pc-linux-gnu/bin/../lib/gcc/nios2-elf/4.1.2/../../../../nios2-elf/lib/mno-hw-mul/libc.a(lib_a-fprintf.o)
 .bss           0x0009d6e4        0x0 /tools/altera/12.0/nios2eds/bin/gnu/H-i686-pc-linux-gnu/bin/../lib/gcc/nios2-elf/4.1.2/../../../../nios2-elf/lib/mno-hw-mul/libc.a(lib_a-fwrite.o)
 .bss           0x0009d6e4        0x0 /tools/altera/12.0/nios2eds/bin/gnu/H-i686-pc-linux-gnu/bin/../lib/gcc/nios2-elf/4.1.2/../../../../nios2-elf/lib/mno-hw-mul/libc.a(lib_a-impure.o)
 .bss           0x0009d6e4        0x0 /tools/altera/12.0/nios2eds/bin/gnu/H-i686-pc-linux-gnu/bin/../lib/gcc/nios2-elf/4.1.2/../../../../nios2-elf/lib/mno-hw-mul/libc.a(lib_a-printf.o)
 .bss           0x0009d6e4        0x0 /tools/altera/12.0/nios2eds/bin/gnu/H-i686-pc-linux-gnu/bin/../lib/gcc/nios2-elf/4.1.2/../../../../nios2-elf/lib/mno-hw-mul/libc.a(lib_a-putchar.o)
 .bss           0x0009d6e4        0x0 /tools/altera/12.0/nios2eds/bin/gnu/H-i686-pc-linux-gnu/bin/../lib/gcc/nios2-elf/4.1.2/../../../../nios2-elf/lib/mno-hw-mul/libc.a(lib_a-puts.o)
 .bss           0x0009d6e4        0x0 /tools/altera/12.0/nios2eds/bin/gnu/H-i686-pc-linux-gnu/bin/../lib/gcc/nios2-elf/4.1.2/../../../../nios2-elf/lib/mno-hw-mul/libc.a(lib_a-rand.o)
 .bss           0x0009d6e4        0x0 /tools/altera/12.0/nios2eds/bin/gnu/H-i686-pc-linux-gnu/bin/../lib/gcc/nios2-elf/4.1.2/../../../../nios2-elf/lib/mno-hw-mul/libc.a(lib_a-strlen.o)
 .bss           0x0009d6e4        0x0 /tools/altera/12.0/nios2eds/bin/gnu/H-i686-pc-linux-gnu/bin/../lib/gcc/nios2-elf/4.1.2/../../../../nios2-elf/lib/mno-hw-mul/libc.a(lib_a-vfprintf.o)
 .bss           0x0009d6e4        0x0 /tools/altera/12.0/nios2eds/bin/gnu/H-i686-pc-linux-gnu/bin/../lib/gcc/nios2-elf/4.1.2/../../../../nios2-elf/lib/mno-hw-mul/libc.a(lib_a-wsetup.o)
 .bss           0x0009d6e4        0x0 /tools/altera/12.0/nios2eds/bin/gnu/H-i686-pc-linux-gnu/bin/../lib/gcc/nios2-elf/4.1.2/../../../../nios2-elf/lib/mno-hw-mul/libc.a(lib_a-dtoa.o)
 .bss           0x0009d6e4        0x0 /tools/altera/12.0/nios2eds/bin/gnu/H-i686-pc-linux-gnu/bin/../lib/gcc/nios2-elf/4.1.2/../../../../nios2-elf/lib/mno-hw-mul/libc.a(lib_a-fflush.o)
 .bss           0x0009d6e4        0x0 /tools/altera/12.0/nios2eds/bin/gnu/H-i686-pc-linux-gnu/bin/../lib/gcc/nios2-elf/4.1.2/../../../../nios2-elf/lib/mno-hw-mul/libc.a(lib_a-findfp.o)
 .bss           0x0009d6e4        0x0 /tools/altera/12.0/nios2eds/bin/gnu/H-i686-pc-linux-gnu/bin/../lib/gcc/nios2-elf/4.1.2/../../../../nios2-elf/lib/mno-hw-mul/libc.a(lib_a-freer.o)
 .bss           0x0009d6e4        0x0 /tools/altera/12.0/nios2eds/bin/gnu/H-i686-pc-linux-gnu/bin/../lib/gcc/nios2-elf/4.1.2/../../../../nios2-elf/lib/mno-hw-mul/libc.a(lib_a-fvwrite.o)
 .bss           0x0009d6e4        0x0 /tools/altera/12.0/nios2eds/bin/gnu/H-i686-pc-linux-gnu/bin/../lib/gcc/nios2-elf/4.1.2/../../../../nios2-elf/lib/mno-hw-mul/libc.a(lib_a-fwalk.o)
 .bss           0x0009d6e4        0x0 /tools/altera/12.0/nios2eds/bin/gnu/H-i686-pc-linux-gnu/bin/../lib/gcc/nios2-elf/4.1.2/../../../../nios2-elf/lib/mno-hw-mul/libc.a(lib_a-locale.o)
 .bss           0x0009d6e4        0x0 /tools/altera/12.0/nios2eds/bin/gnu/H-i686-pc-linux-gnu/bin/../lib/gcc/nios2-elf/4.1.2/../../../../nios2-elf/lib/mno-hw-mul/libc.a(lib_a-makebuf.o)
 .bss           0x0009d6e4       0x28 /tools/altera/12.0/nios2eds/bin/gnu/H-i686-pc-linux-gnu/bin/../lib/gcc/nios2-elf/4.1.2/../../../../nios2-elf/lib/mno-hw-mul/libc.a(lib_a-mallocr.o)
                0x0009d6e4                __malloc_current_mallinfo
 .bss           0x0009d70c        0x0 /tools/altera/12.0/nios2eds/bin/gnu/H-i686-pc-linux-gnu/bin/../lib/gcc/nios2-elf/4.1.2/../../../../nios2-elf/lib/mno-hw-mul/libc.a(lib_a-memchr.o)
 .bss           0x0009d70c        0x0 /tools/altera/12.0/nios2eds/bin/gnu/H-i686-pc-linux-gnu/bin/../lib/gcc/nios2-elf/4.1.2/../../../../nios2-elf/lib/mno-hw-mul/libc.a(lib_a-memcpy.o)
 .bss           0x0009d70c        0x0 /tools/altera/12.0/nios2eds/bin/gnu/H-i686-pc-linux-gnu/bin/../lib/gcc/nios2-elf/4.1.2/../../../../nios2-elf/lib/mno-hw-mul/libc.a(lib_a-memmove.o)
 .bss           0x0009d70c        0x0 /tools/altera/12.0/nios2eds/bin/gnu/H-i686-pc-linux-gnu/bin/../lib/gcc/nios2-elf/4.1.2/../../../../nios2-elf/lib/mno-hw-mul/libc.a(lib_a-memset.o)
 .bss           0x0009d70c        0x0 /tools/altera/12.0/nios2eds/bin/gnu/H-i686-pc-linux-gnu/bin/../lib/gcc/nios2-elf/4.1.2/../../../../nios2-elf/lib/mno-hw-mul/libc.a(lib_a-mprec.o)
 .bss           0x0009d70c        0x0 /tools/altera/12.0/nios2eds/bin/gnu/H-i686-pc-linux-gnu/bin/../lib/gcc/nios2-elf/4.1.2/../../../../nios2-elf/lib/mno-hw-mul/libc.a(lib_a-putc.o)
 .bss           0x0009d70c        0x0 /tools/altera/12.0/nios2eds/bin/gnu/H-i686-pc-linux-gnu/bin/../lib/gcc/nios2-elf/4.1.2/../../../../nios2-elf/lib/mno-hw-mul/libc.a(lib_a-reallocr.o)
 .bss           0x0009d70c        0x0 /tools/altera/12.0/nios2eds/bin/gnu/H-i686-pc-linux-gnu/bin/../lib/gcc/nios2-elf/4.1.2/../../../../nios2-elf/lib/mno-hw-mul/libc.a(lib_a-s_isinfd.o)
 .bss           0x0009d70c        0x0 /tools/altera/12.0/nios2eds/bin/gnu/H-i686-pc-linux-gnu/bin/../lib/gcc/nios2-elf/4.1.2/../../../../nios2-elf/lib/mno-hw-mul/libc.a(lib_a-s_isnand.o)
 .bss           0x0009d70c        0x0 /tools/altera/12.0/nios2eds/bin/gnu/H-i686-pc-linux-gnu/bin/../lib/gcc/nios2-elf/4.1.2/../../../../nios2-elf/lib/mno-hw-mul/libc.a(lib_a-sbrkr.o)
 .bss           0x0009d70c        0x0 /tools/altera/12.0/nios2eds/bin/gnu/H-i686-pc-linux-gnu/bin/../lib/gcc/nios2-elf/4.1.2/../../../../nios2-elf/lib/mno-hw-mul/libc.a(lib_a-stdio.o)
 .bss           0x0009d70c        0x0 /tools/altera/12.0/nios2eds/bin/gnu/H-i686-pc-linux-gnu/bin/../lib/gcc/nios2-elf/4.1.2/../../../../nios2-elf/lib/mno-hw-mul/libc.a(lib_a-strcmp.o)
 .bss           0x0009d70c        0x0 /tools/altera/12.0/nios2eds/bin/gnu/H-i686-pc-linux-gnu/bin/../lib/gcc/nios2-elf/4.1.2/../../../../nios2-elf/lib/mno-hw-mul/libc.a(lib_a-wbuf.o)
 .bss           0x0009d70c        0x0 /tools/altera/12.0/nios2eds/bin/gnu/H-i686-pc-linux-gnu/bin/../lib/gcc/nios2-elf/4.1.2/../../../../nios2-elf/lib/mno-hw-mul/libc.a(lib_a-writer.o)
 .bss           0x0009d70c        0x0 /tools/altera/12.0/nios2eds/bin/gnu/H-i686-pc-linux-gnu/bin/../lib/gcc/nios2-elf/4.1.2/../../../../nios2-elf/lib/mno-hw-mul/libc.a(lib_a-callocr.o)
 .bss           0x0009d70c        0x0 /tools/altera/12.0/nios2eds/bin/gnu/H-i686-pc-linux-gnu/bin/../lib/gcc/nios2-elf/4.1.2/../../../../nios2-elf/lib/mno-hw-mul/libc.a(lib_a-closer.o)
 .bss           0x0009d70c        0x0 /tools/altera/12.0/nios2eds/bin/gnu/H-i686-pc-linux-gnu/bin/../lib/gcc/nios2-elf/4.1.2/../../../../nios2-elf/lib/mno-hw-mul/libc.a(lib_a-fclose.o)
 .bss           0x0009d70c        0x0 /tools/altera/12.0/nios2eds/bin/gnu/H-i686-pc-linux-gnu/bin/../lib/gcc/nios2-elf/4.1.2/../../../../nios2-elf/lib/mno-hw-mul/libc.a(lib_a-fstatr.o)
 .bss           0x0009d70c        0x0 /tools/altera/12.0/nios2eds/bin/gnu/H-i686-pc-linux-gnu/bin/../lib/gcc/nios2-elf/4.1.2/../../../../nios2-elf/lib/mno-hw-mul/libc.a(lib_a-int_errno.o)
 .bss           0x0009d70c        0x0 /tools/altera/12.0/nios2eds/bin/gnu/H-i686-pc-linux-gnu/bin/../lib/gcc/nios2-elf/4.1.2/../../../../nios2-elf/lib/mno-hw-mul/libc.a(lib_a-isattyr.o)
 .bss           0x0009d70c        0x0 /tools/altera/12.0/nios2eds/bin/gnu/H-i686-pc-linux-gnu/bin/../lib/gcc/nios2-elf/4.1.2/../../../../nios2-elf/lib/mno-hw-mul/libc.a(lib_a-lseekr.o)
 .bss           0x0009d70c        0x0 /tools/altera/12.0/nios2eds/bin/gnu/H-i686-pc-linux-gnu/bin/../lib/gcc/nios2-elf/4.1.2/../../../../nios2-elf/lib/mno-hw-mul/libc.a(lib_a-readr.o)
 .bss           0x0009d70c        0x0 /tools/altera/12.0/nios2eds/bin/gnu/H-i686-pc-linux-gnu/bin/../lib/gcc/nios2-elf/4.1.2/mno-hw-mul/libgcc.a(_muldi3.o)
 .bss           0x0009d70c        0x0 /tools/altera/12.0/nios2eds/bin/gnu/H-i686-pc-linux-gnu/bin/../lib/gcc/nios2-elf/4.1.2/mno-hw-mul/libgcc.a(_udivdi3.o)
 .bss           0x0009d70c        0x0 /tools/altera/12.0/nios2eds/bin/gnu/H-i686-pc-linux-gnu/bin/../lib/gcc/nios2-elf/4.1.2/mno-hw-mul/libgcc.a(_umoddi3.o)
 .bss           0x0009d70c        0x0 /tools/altera/12.0/nios2eds/bin/gnu/H-i686-pc-linux-gnu/bin/../lib/gcc/nios2-elf/4.1.2/mno-hw-mul/libgcc.a(_addsub_df.o)
 .bss           0x0009d70c        0x0 /tools/altera/12.0/nios2eds/bin/gnu/H-i686-pc-linux-gnu/bin/../lib/gcc/nios2-elf/4.1.2/mno-hw-mul/libgcc.a(_mul_df.o)
 .bss           0x0009d70c        0x0 /tools/altera/12.0/nios2eds/bin/gnu/H-i686-pc-linux-gnu/bin/../lib/gcc/nios2-elf/4.1.2/mno-hw-mul/libgcc.a(_div_df.o)
 .bss           0x0009d70c        0x0 /tools/altera/12.0/nios2eds/bin/gnu/H-i686-pc-linux-gnu/bin/../lib/gcc/nios2-elf/4.1.2/mno-hw-mul/libgcc.a(_eq_df.o)
 .bss           0x0009d70c        0x0 /tools/altera/12.0/nios2eds/bin/gnu/H-i686-pc-linux-gnu/bin/../lib/gcc/nios2-elf/4.1.2/mno-hw-mul/libgcc.a(_ne_df.o)
 .bss           0x0009d70c        0x0 /tools/altera/12.0/nios2eds/bin/gnu/H-i686-pc-linux-gnu/bin/../lib/gcc/nios2-elf/4.1.2/mno-hw-mul/libgcc.a(_gt_df.o)
 .bss           0x0009d70c        0x0 /tools/altera/12.0/nios2eds/bin/gnu/H-i686-pc-linux-gnu/bin/../lib/gcc/nios2-elf/4.1.2/mno-hw-mul/libgcc.a(_ge_df.o)
 .bss           0x0009d70c        0x0 /tools/altera/12.0/nios2eds/bin/gnu/H-i686-pc-linux-gnu/bin/../lib/gcc/nios2-elf/4.1.2/mno-hw-mul/libgcc.a(_lt_df.o)
 .bss           0x0009d70c        0x0 /tools/altera/12.0/nios2eds/bin/gnu/H-i686-pc-linux-gnu/bin/../lib/gcc/nios2-elf/4.1.2/mno-hw-mul/libgcc.a(_si_to_df.o)
 .bss           0x0009d70c        0x0 /tools/altera/12.0/nios2eds/bin/gnu/H-i686-pc-linux-gnu/bin/../lib/gcc/nios2-elf/4.1.2/mno-hw-mul/libgcc.a(_df_to_si.o)
 .bss           0x0009d70c        0x0 /tools/altera/12.0/nios2eds/bin/gnu/H-i686-pc-linux-gnu/bin/../lib/gcc/nios2-elf/4.1.2/mno-hw-mul/libgcc.a(_thenan_df.o)
 .bss           0x0009d70c        0x0 /tools/altera/12.0/nios2eds/bin/gnu/H-i686-pc-linux-gnu/bin/../lib/gcc/nios2-elf/4.1.2/mno-hw-mul/libgcc.a(_usi_to_df.o)
 .bss           0x0009d70c        0x0 /tools/altera/12.0/nios2eds/bin/gnu/H-i686-pc-linux-gnu/bin/../lib/gcc/nios2-elf/4.1.2/mno-hw-mul/libgcc.a(_clz.o)
 .bss           0x0009d70c        0x0 /tools/altera/12.0/nios2eds/bin/gnu/H-i686-pc-linux-gnu/bin/../lib/gcc/nios2-elf/4.1.2/mno-hw-mul/libgcc.a(_clzsi2.o)
 .bss           0x0009d70c        0x0 /tools/altera/12.0/nios2eds/bin/gnu/H-i686-pc-linux-gnu/bin/../lib/gcc/nios2-elf/4.1.2/mno-hw-mul/libgcc.a(_pack_df.o)
 .bss           0x0009d70c        0x0 /tools/altera/12.0/nios2eds/bin/gnu/H-i686-pc-linux-gnu/bin/../lib/gcc/nios2-elf/4.1.2/mno-hw-mul/libgcc.a(_unpack_df.o)
 .bss           0x0009d70c        0x0 /tools/altera/12.0/nios2eds/bin/gnu/H-i686-pc-linux-gnu/bin/../lib/gcc/nios2-elf/4.1.2/mno-hw-mul/libgcc.a(_fpcmp_parts_df.o)
 .bss           0x0009d70c        0x0 ../experiment1_bsp//libucosii_bsp.a(alt_close.o)
 .bss           0x0009d70c        0x0 ../experiment1_bsp//libucosii_bsp.a(alt_dev.o)
 .bss           0x0009d70c        0x0 ../experiment1_bsp//libucosii_bsp.a(alt_errno.o)
 .bss           0x0009d70c        0x0 ../experiment1_bsp//libucosii_bsp.a(alt_fstat.o)
 .bss           0x0009d70c        0x0 ../experiment1_bsp//libucosii_bsp.a(alt_irq_register.o)
 .bss           0x0009d70c        0x0 ../experiment1_bsp//libucosii_bsp.a(alt_irq_vars.o)
 .bss           0x0009d70c        0x0 ../experiment1_bsp//libucosii_bsp.a(alt_isatty.o)
 .bss           0x0009d70c        0x0 ../experiment1_bsp//libucosii_bsp.a(alt_load.o)
 .bss           0x0009d70c        0x0 ../experiment1_bsp//libucosii_bsp.a(alt_lseek.o)
 .bss           0x0009d70c        0x0 ../experiment1_bsp//libucosii_bsp.a(alt_main.o)
 .bss           0x0009d70c        0x0 ../experiment1_bsp//libucosii_bsp.a(alt_read.o)
 .bss           0x0009d70c        0x0 ../experiment1_bsp//libucosii_bsp.a(alt_release_fd.o)
 .bss           0x0009d70c        0x0 ../experiment1_bsp//libucosii_bsp.a(alt_sbrk.o)
 .bss           0x0009d70c        0x0 ../experiment1_bsp//libucosii_bsp.a(alt_write.o)
 .bss           0x0009d70c        0x0 ../experiment1_bsp//libucosii_bsp.a(alt_env_lock.o)
 .bss           0x0009d70c        0x0 ../experiment1_bsp//libucosii_bsp.a(alt_malloc_lock.o)
 .bss           0x0009d70c        0x0 ../experiment1_bsp//libucosii_bsp.a(os_core.o)
 .bss           0x0009d70c        0x0 ../experiment1_bsp//libucosii_bsp.a(os_dbg.o)
 .bss           0x0009d70c        0x0 ../experiment1_bsp//libucosii_bsp.a(os_flag.o)
 .bss           0x0009d70c        0x0 ../experiment1_bsp//libucosii_bsp.a(os_mbox.o)
 .bss           0x0009d70c        0x0 ../experiment1_bsp//libucosii_bsp.a(os_mem.o)
 .bss           0x0009d70c        0x0 ../experiment1_bsp//libucosii_bsp.a(os_q.o)
 .bss           0x0009d70c        0x0 ../experiment1_bsp//libucosii_bsp.a(os_sem.o)
 .bss           0x0009d70c        0x0 ../experiment1_bsp//libucosii_bsp.a(os_task.o)
 .bss           0x0009d70c        0x0 ../experiment1_bsp//libucosii_bsp.a(os_time.o)
 .bss           0x0009d70c        0x0 ../experiment1_bsp//libucosii_bsp.a(alt_sys_init.o)
 .bss           0x0009d70c        0x0 ../experiment1_bsp//libucosii_bsp.a(altera_avalon_jtag_uart_fd.o)
 .bss           0x0009d70c        0x0 ../experiment1_bsp//libucosii_bsp.a(altera_avalon_jtag_uart_init.o)
 .bss           0x0009d70c        0x0 ../experiment1_bsp//libucosii_bsp.a(altera_avalon_jtag_uart_ioctl.o)
 .bss           0x0009d70c        0x0 ../experiment1_bsp//libucosii_bsp.a(altera_avalon_jtag_uart_read.o)
 .bss           0x0009d70c        0x0 ../experiment1_bsp//libucosii_bsp.a(altera_avalon_jtag_uart_write.o)
 .bss           0x0009d70c        0x0 ../experiment1_bsp//libucosii_bsp.a(altera_avalon_performance_counter.o)
 .bss           0x0009d70c        0x0 ../experiment1_bsp//libucosii_bsp.a(altera_avalon_timer_sc.o)
 .bss           0x0009d70c        0x0 ../experiment1_bsp//libucosii_bsp.a(altera_up_avalon_character_lcd.o)
 .bss           0x0009d70c        0x0 ../experiment1_bsp//libucosii_bsp.a(alt_alarm_start.o)
 .bss           0x0009d70c        0x0 ../experiment1_bsp//libucosii_bsp.a(alt_dcache_flush_all.o)
 .bss           0x0009d70c        0x0 ../experiment1_bsp//libucosii_bsp.a(alt_dev_llist_insert.o)
 .bss           0x0009d70c        0x0 ../experiment1_bsp//libucosii_bsp.a(alt_do_ctors.o)
 .bss           0x0009d70c        0x0 ../experiment1_bsp//libucosii_bsp.a(alt_do_dtors.o)
 .bss           0x0009d70c        0x0 ../experiment1_bsp//libucosii_bsp.a(alt_find_dev.o)
 .bss           0x0009d70c        0x0 ../experiment1_bsp//libucosii_bsp.a(alt_icache_flush_all.o)
 .bss           0x0009d70c        0x0 ../experiment1_bsp//libucosii_bsp.a(alt_iic.o)
 .bss           0x0009d70c        0x0 ../experiment1_bsp//libucosii_bsp.a(alt_iic_isr_register.o)
 .bss           0x0009d70c        0x0 ../experiment1_bsp//libucosii_bsp.a(alt_io_redirect.o)
 .bss           0x0009d70c        0x0 ../experiment1_bsp//libucosii_bsp.a(alt_irq_entry.o)
 .bss           0x0009d70c        0x0 ../experiment1_bsp//libucosii_bsp.a(alt_irq_handler.o)
 .bss           0x0009d70c        0x0 ../experiment1_bsp//libucosii_bsp.a(alt_open.o)
 .bss           0x0009d70c        0x0 ../experiment1_bsp//libucosii_bsp.a(alt_tick.o)
 .bss           0x0009d70c        0x0 ../experiment1_bsp//libucosii_bsp.a(altera_nios2_qsys_irq.o)
 .bss           0x0009d70c        0x0 ../experiment1_bsp//libucosii_bsp.a(os_cpu_a.o)
 .bss           0x0009d70c        0x0 ../experiment1_bsp//libucosii_bsp.a(os_cpu_c.o)
 .bss           0x0009d70c        0x0 ../experiment1_bsp//libucosii_bsp.a(alt_exception_entry.o)
 .bss           0x0009d70c        0x0 ../experiment1_bsp//libucosii_bsp.a(alt_find_file.o)
 .bss           0x0009d70c        0x0 ../experiment1_bsp//libucosii_bsp.a(alt_get_fd.o)
 .bss           0x0009d70c        0x0 /tools/altera/12.0/nios2eds/bin/gnu/H-i686-pc-linux-gnu/bin/../lib/gcc/nios2-elf/4.1.2/../../../../nios2-elf/lib/mno-hw-mul/libc.a(lib_a-atexit.o)
 .bss           0x0009d70c        0x0 /tools/altera/12.0/nios2eds/bin/gnu/H-i686-pc-linux-gnu/bin/../lib/gcc/nios2-elf/4.1.2/../../../../nios2-elf/lib/mno-hw-mul/libc.a(lib_a-exit.o)
 .bss           0x0009d70c        0x0 /tools/altera/12.0/nios2eds/bin/gnu/H-i686-pc-linux-gnu/bin/../lib/gcc/nios2-elf/4.1.2/../../../../nios2-elf/lib/mno-hw-mul/libc.a(lib_a-memcmp.o)
 .bss           0x0009d70c        0x0 /tools/altera/12.0/nios2eds/bin/gnu/H-i686-pc-linux-gnu/bin/../lib/gcc/nios2-elf/4.1.2/../../../../nios2-elf/lib/mno-hw-mul/libc.a(lib_a-__atexit.o)
 .bss           0x0009d70c        0x0 /tools/altera/12.0/nios2eds/bin/gnu/H-i686-pc-linux-gnu/bin/../lib/gcc/nios2-elf/4.1.2/../../../../nios2-elf/lib/mno-hw-mul/libc.a(lib_a-__call_atexit.o)
 .bss           0x0009d70c        0x0 ../experiment1_bsp//libucosii_bsp.a(alt_exit.o)
 *(COMMON)
 COMMON         0x0009d70c     0x3000 obj/default/experiment1.o
                0x0009d70c                data_array
                0x0009f70c                data_array_distinct
 COMMON         0x000a070c    0x143a0 obj/default/tasks.o
                0x000a070c                MboxMultFin
                0x000a071c                gen_array_tcb
                0x000a07f4                gen_array_stk
                0x000a47f4                cal_mul_tcb
                0x000a49a4                PBSemaphore
                0x000a49b4                merge_tcb
                0x000a4a20                MboxMultBegin0
                0x000a4a30                cal_mul_stk
                0x000aca30                merge_stk
                0x000aea30                mul_stk
                0x000b0a30                mul_tcb
                0x000b0a9c                initialize_task_stk
                0x000b2a9c                task_launcher_stk
                0x000b4a9c                MboxMultBegin1
 COMMON         0x000b4aac     0x3224 ../experiment1_bsp//libucosii_bsp.a(os_core.o)
                0x000b4aac                OSFlagTbl
                0x000b4e1c                OSMemTbl
                0x000b5a4c                OSTaskStatStk
                0x000b624c                OSQTbl
                0x000b642c                OSTaskIdleStk
                0x000b6c2c                OSEventTbl
                0x000b776c                OSTCBTbl
                0x000b7c7c                OSTCBPrioTbl
 COMMON         0x000b7cd0      0x100 ../experiment1_bsp//libucosii_bsp.a(alt_irq_handler.o)
                0x000b7cd0                alt_irq
 COMMON         0x000b7dd0      0x190 /tools/altera/12.0/nios2eds/bin/gnu/H-i686-pc-linux-gnu/bin/../lib/gcc/nios2-elf/4.1.2/../../../../nios2-elf/lib/mno-hw-mul/libc.a(lib_a-atexit.o)
                0x000b7dd0                _atexit0
                0x000b7f60                . = ALIGN (0x4)
                0x000b7f60                __bss_end = ABSOLUTE (.)

.sram_0         0x000b7f60        0x0
                0x000b7f60                PROVIDE (_alt_partition_sram_0_start, ABSOLUTE (.))
 *(.sram_0. sram_0.*)
                0x000b7f60                . = ALIGN (0x4)
                0x000b7f60                PROVIDE (_alt_partition_sram_0_end, ABSOLUTE (.))
                0x000b7f60                _end = ABSOLUTE (.)
                0x000b7f60                end = ABSOLUTE (.)
                0x000b7f60                __alt_stack_base = ABSOLUTE (.)
                0x000b7f60                PROVIDE (_alt_partition_sram_0_load_addr, LOADADDR (.sram_0))

.stab
 *(.stab)

.stabstr
 *(.stabstr)

.stab.excl
 *(.stab.excl)

.stab.exclstr
 *(.stab.exclstr)

.stab.index
 *(.stab.index)

.stab.indexstr
 *(.stab.indexstr)

.comment        0x00000000       0x23
 *(.comment)
 .comment       0x00000000       0x23 obj/default/PB_button.o
                                 0x24 (size before relaxing)
 .comment       0x00000000       0x24 obj/default/alt_ucosii_simple_error_check.o
 .comment       0x00000000       0x24 obj/default/experiment1.o
 .comment       0x00000000       0x24 obj/default/tasks.o
 .comment       0x00000000       0x24 /tools/altera/12.0/nios2eds/bin/gnu/H-i686-pc-linux-gnu/bin/../lib/gcc/nios2-elf/4.1.2/mno-hw-mul/libgcc.a(lib2-divmod.o)
 .comment       0x00000000       0x24 /tools/altera/12.0/nios2eds/bin/gnu/H-i686-pc-linux-gnu/bin/../lib/gcc/nios2-elf/4.1.2/mno-hw-mul/libgcc.a(lib2-mul.o)
 .comment       0x00000000       0x24 /tools/altera/12.0/nios2eds/bin/gnu/H-i686-pc-linux-gnu/bin/../lib/gcc/nios2-elf/4.1.2/../../../../nios2-elf/lib/mno-hw-mul/libc.a(lib_a-fprintf.o)
 .comment       0x00000000       0x24 /tools/altera/12.0/nios2eds/bin/gnu/H-i686-pc-linux-gnu/bin/../lib/gcc/nios2-elf/4.1.2/../../../../nios2-elf/lib/mno-hw-mul/libc.a(lib_a-fwrite.o)
 .comment       0x00000000       0x24 /tools/altera/12.0/nios2eds/bin/gnu/H-i686-pc-linux-gnu/bin/../lib/gcc/nios2-elf/4.1.2/../../../../nios2-elf/lib/mno-hw-mul/libc.a(lib_a-impure.o)
 .comment       0x00000000       0x24 /tools/altera/12.0/nios2eds/bin/gnu/H-i686-pc-linux-gnu/bin/../lib/gcc/nios2-elf/4.1.2/../../../../nios2-elf/lib/mno-hw-mul/libc.a(lib_a-printf.o)
 .comment       0x00000000       0x24 /tools/altera/12.0/nios2eds/bin/gnu/H-i686-pc-linux-gnu/bin/../lib/gcc/nios2-elf/4.1.2/../../../../nios2-elf/lib/mno-hw-mul/libc.a(lib_a-putchar.o)
 .comment       0x00000000       0x24 /tools/altera/12.0/nios2eds/bin/gnu/H-i686-pc-linux-gnu/bin/../lib/gcc/nios2-elf/4.1.2/../../../../nios2-elf/lib/mno-hw-mul/libc.a(lib_a-puts.o)
 .comment       0x00000000       0x24 /tools/altera/12.0/nios2eds/bin/gnu/H-i686-pc-linux-gnu/bin/../lib/gcc/nios2-elf/4.1.2/../../../../nios2-elf/lib/mno-hw-mul/libc.a(lib_a-rand.o)
 .comment       0x00000000       0x24 /tools/altera/12.0/nios2eds/bin/gnu/H-i686-pc-linux-gnu/bin/../lib/gcc/nios2-elf/4.1.2/../../../../nios2-elf/lib/mno-hw-mul/libc.a(lib_a-strlen.o)
 .comment       0x00000000       0x24 /tools/altera/12.0/nios2eds/bin/gnu/H-i686-pc-linux-gnu/bin/../lib/gcc/nios2-elf/4.1.2/../../../../nios2-elf/lib/mno-hw-mul/libc.a(lib_a-vfprintf.o)
 .comment       0x00000000       0x24 /tools/altera/12.0/nios2eds/bin/gnu/H-i686-pc-linux-gnu/bin/../lib/gcc/nios2-elf/4.1.2/../../../../nios2-elf/lib/mno-hw-mul/libc.a(lib_a-wsetup.o)
 .comment       0x00000000       0x24 /tools/altera/12.0/nios2eds/bin/gnu/H-i686-pc-linux-gnu/bin/../lib/gcc/nios2-elf/4.1.2/../../../../nios2-elf/lib/mno-hw-mul/libc.a(lib_a-dtoa.o)
 .comment       0x00000000       0x24 /tools/altera/12.0/nios2eds/bin/gnu/H-i686-pc-linux-gnu/bin/../lib/gcc/nios2-elf/4.1.2/../../../../nios2-elf/lib/mno-hw-mul/libc.a(lib_a-fflush.o)
 .comment       0x00000000       0x24 /tools/altera/12.0/nios2eds/bin/gnu/H-i686-pc-linux-gnu/bin/../lib/gcc/nios2-elf/4.1.2/../../../../nios2-elf/lib/mno-hw-mul/libc.a(lib_a-findfp.o)
 .comment       0x00000000       0x24 /tools/altera/12.0/nios2eds/bin/gnu/H-i686-pc-linux-gnu/bin/../lib/gcc/nios2-elf/4.1.2/../../../../nios2-elf/lib/mno-hw-mul/libc.a(lib_a-freer.o)
 .comment       0x00000000       0x24 /tools/altera/12.0/nios2eds/bin/gnu/H-i686-pc-linux-gnu/bin/../lib/gcc/nios2-elf/4.1.2/../../../../nios2-elf/lib/mno-hw-mul/libc.a(lib_a-fvwrite.o)
 .comment       0x00000000       0x24 /tools/altera/12.0/nios2eds/bin/gnu/H-i686-pc-linux-gnu/bin/../lib/gcc/nios2-elf/4.1.2/../../../../nios2-elf/lib/mno-hw-mul/libc.a(lib_a-fwalk.o)
 .comment       0x00000000       0x24 /tools/altera/12.0/nios2eds/bin/gnu/H-i686-pc-linux-gnu/bin/../lib/gcc/nios2-elf/4.1.2/../../../../nios2-elf/lib/mno-hw-mul/libc.a(lib_a-locale.o)
 .comment       0x00000000       0x24 /tools/altera/12.0/nios2eds/bin/gnu/H-i686-pc-linux-gnu/bin/../lib/gcc/nios2-elf/4.1.2/../../../../nios2-elf/lib/mno-hw-mul/libc.a(lib_a-makebuf.o)
 .comment       0x00000000       0x24 /tools/altera/12.0/nios2eds/bin/gnu/H-i686-pc-linux-gnu/bin/../lib/gcc/nios2-elf/4.1.2/../../../../nios2-elf/lib/mno-hw-mul/libc.a(lib_a-mallocr.o)
 .comment       0x00000000       0x24 /tools/altera/12.0/nios2eds/bin/gnu/H-i686-pc-linux-gnu/bin/../lib/gcc/nios2-elf/4.1.2/../../../../nios2-elf/lib/mno-hw-mul/libc.a(lib_a-memchr.o)
 .comment       0x00000000       0x24 /tools/altera/12.0/nios2eds/bin/gnu/H-i686-pc-linux-gnu/bin/../lib/gcc/nios2-elf/4.1.2/../../../../nios2-elf/lib/mno-hw-mul/libc.a(lib_a-memcpy.o)
 .comment       0x00000000       0x24 /tools/altera/12.0/nios2eds/bin/gnu/H-i686-pc-linux-gnu/bin/../lib/gcc/nios2-elf/4.1.2/../../../../nios2-elf/lib/mno-hw-mul/libc.a(lib_a-memmove.o)
 .comment       0x00000000       0x24 /tools/altera/12.0/nios2eds/bin/gnu/H-i686-pc-linux-gnu/bin/../lib/gcc/nios2-elf/4.1.2/../../../../nios2-elf/lib/mno-hw-mul/libc.a(lib_a-memset.o)
 .comment       0x00000000       0x24 /tools/altera/12.0/nios2eds/bin/gnu/H-i686-pc-linux-gnu/bin/../lib/gcc/nios2-elf/4.1.2/../../../../nios2-elf/lib/mno-hw-mul/libc.a(lib_a-mprec.o)
 .comment       0x00000000       0x24 /tools/altera/12.0/nios2eds/bin/gnu/H-i686-pc-linux-gnu/bin/../lib/gcc/nios2-elf/4.1.2/../../../../nios2-elf/lib/mno-hw-mul/libc.a(lib_a-putc.o)
 .comment       0x00000000       0x24 /tools/altera/12.0/nios2eds/bin/gnu/H-i686-pc-linux-gnu/bin/../lib/gcc/nios2-elf/4.1.2/../../../../nios2-elf/lib/mno-hw-mul/libc.a(lib_a-reallocr.o)
 .comment       0x00000000       0x24 /tools/altera/12.0/nios2eds/bin/gnu/H-i686-pc-linux-gnu/bin/../lib/gcc/nios2-elf/4.1.2/../../../../nios2-elf/lib/mno-hw-mul/libc.a(lib_a-s_isinfd.o)
 .comment       0x00000000       0x24 /tools/altera/12.0/nios2eds/bin/gnu/H-i686-pc-linux-gnu/bin/../lib/gcc/nios2-elf/4.1.2/../../../../nios2-elf/lib/mno-hw-mul/libc.a(lib_a-s_isnand.o)
 .comment       0x00000000       0x24 /tools/altera/12.0/nios2eds/bin/gnu/H-i686-pc-linux-gnu/bin/../lib/gcc/nios2-elf/4.1.2/../../../../nios2-elf/lib/mno-hw-mul/libc.a(lib_a-sbrkr.o)
 .comment       0x00000000       0x24 /tools/altera/12.0/nios2eds/bin/gnu/H-i686-pc-linux-gnu/bin/../lib/gcc/nios2-elf/4.1.2/../../../../nios2-elf/lib/mno-hw-mul/libc.a(lib_a-stdio.o)
 .comment       0x00000000       0x24 /tools/altera/12.0/nios2eds/bin/gnu/H-i686-pc-linux-gnu/bin/../lib/gcc/nios2-elf/4.1.2/../../../../nios2-elf/lib/mno-hw-mul/libc.a(lib_a-strcmp.o)
 .comment       0x00000000       0x24 /tools/altera/12.0/nios2eds/bin/gnu/H-i686-pc-linux-gnu/bin/../lib/gcc/nios2-elf/4.1.2/../../../../nios2-elf/lib/mno-hw-mul/libc.a(lib_a-wbuf.o)
 .comment       0x00000000       0x24 /tools/altera/12.0/nios2eds/bin/gnu/H-i686-pc-linux-gnu/bin/../lib/gcc/nios2-elf/4.1.2/../../../../nios2-elf/lib/mno-hw-mul/libc.a(lib_a-writer.o)
 .comment       0x00000000       0x24 /tools/altera/12.0/nios2eds/bin/gnu/H-i686-pc-linux-gnu/bin/../lib/gcc/nios2-elf/4.1.2/../../../../nios2-elf/lib/mno-hw-mul/libc.a(lib_a-callocr.o)
 .comment       0x00000000       0x24 /tools/altera/12.0/nios2eds/bin/gnu/H-i686-pc-linux-gnu/bin/../lib/gcc/nios2-elf/4.1.2/../../../../nios2-elf/lib/mno-hw-mul/libc.a(lib_a-closer.o)
 .comment       0x00000000       0x24 /tools/altera/12.0/nios2eds/bin/gnu/H-i686-pc-linux-gnu/bin/../lib/gcc/nios2-elf/4.1.2/../../../../nios2-elf/lib/mno-hw-mul/libc.a(lib_a-fclose.o)
 .comment       0x00000000       0x24 /tools/altera/12.0/nios2eds/bin/gnu/H-i686-pc-linux-gnu/bin/../lib/gcc/nios2-elf/4.1.2/../../../../nios2-elf/lib/mno-hw-mul/libc.a(lib_a-fstatr.o)
 .comment       0x00000000       0x24 /tools/altera/12.0/nios2eds/bin/gnu/H-i686-pc-linux-gnu/bin/../lib/gcc/nios2-elf/4.1.2/../../../../nios2-elf/lib/mno-hw-mul/libc.a(lib_a-int_errno.o)
 .comment       0x00000000       0x24 /tools/altera/12.0/nios2eds/bin/gnu/H-i686-pc-linux-gnu/bin/../lib/gcc/nios2-elf/4.1.2/../../../../nios2-elf/lib/mno-hw-mul/libc.a(lib_a-isattyr.o)
 .comment       0x00000000       0x24 /tools/altera/12.0/nios2eds/bin/gnu/H-i686-pc-linux-gnu/bin/../lib/gcc/nios2-elf/4.1.2/../../../../nios2-elf/lib/mno-hw-mul/libc.a(lib_a-lseekr.o)
 .comment       0x00000000       0x24 /tools/altera/12.0/nios2eds/bin/gnu/H-i686-pc-linux-gnu/bin/../lib/gcc/nios2-elf/4.1.2/../../../../nios2-elf/lib/mno-hw-mul/libc.a(lib_a-readr.o)
 .comment       0x00000000       0x24 /tools/altera/12.0/nios2eds/bin/gnu/H-i686-pc-linux-gnu/bin/../lib/gcc/nios2-elf/4.1.2/mno-hw-mul/libgcc.a(_muldi3.o)
 .comment       0x00000000       0x24 /tools/altera/12.0/nios2eds/bin/gnu/H-i686-pc-linux-gnu/bin/../lib/gcc/nios2-elf/4.1.2/mno-hw-mul/libgcc.a(_udivdi3.o)
 .comment       0x00000000       0x24 /tools/altera/12.0/nios2eds/bin/gnu/H-i686-pc-linux-gnu/bin/../lib/gcc/nios2-elf/4.1.2/mno-hw-mul/libgcc.a(_umoddi3.o)
 .comment       0x00000000       0x24 /tools/altera/12.0/nios2eds/bin/gnu/H-i686-pc-linux-gnu/bin/../lib/gcc/nios2-elf/4.1.2/mno-hw-mul/libgcc.a(_addsub_df.o)
 .comment       0x00000000       0x24 /tools/altera/12.0/nios2eds/bin/gnu/H-i686-pc-linux-gnu/bin/../lib/gcc/nios2-elf/4.1.2/mno-hw-mul/libgcc.a(_mul_df.o)
 .comment       0x00000000       0x24 /tools/altera/12.0/nios2eds/bin/gnu/H-i686-pc-linux-gnu/bin/../lib/gcc/nios2-elf/4.1.2/mno-hw-mul/libgcc.a(_div_df.o)
 .comment       0x00000000       0x24 /tools/altera/12.0/nios2eds/bin/gnu/H-i686-pc-linux-gnu/bin/../lib/gcc/nios2-elf/4.1.2/mno-hw-mul/libgcc.a(_eq_df.o)
 .comment       0x00000000       0x24 /tools/altera/12.0/nios2eds/bin/gnu/H-i686-pc-linux-gnu/bin/../lib/gcc/nios2-elf/4.1.2/mno-hw-mul/libgcc.a(_ne_df.o)
 .comment       0x00000000       0x24 /tools/altera/12.0/nios2eds/bin/gnu/H-i686-pc-linux-gnu/bin/../lib/gcc/nios2-elf/4.1.2/mno-hw-mul/libgcc.a(_gt_df.o)
 .comment       0x00000000       0x24 /tools/altera/12.0/nios2eds/bin/gnu/H-i686-pc-linux-gnu/bin/../lib/gcc/nios2-elf/4.1.2/mno-hw-mul/libgcc.a(_ge_df.o)
 .comment       0x00000000       0x24 /tools/altera/12.0/nios2eds/bin/gnu/H-i686-pc-linux-gnu/bin/../lib/gcc/nios2-elf/4.1.2/mno-hw-mul/libgcc.a(_lt_df.o)
 .comment       0x00000000       0x24 /tools/altera/12.0/nios2eds/bin/gnu/H-i686-pc-linux-gnu/bin/../lib/gcc/nios2-elf/4.1.2/mno-hw-mul/libgcc.a(_si_to_df.o)
 .comment       0x00000000       0x24 /tools/altera/12.0/nios2eds/bin/gnu/H-i686-pc-linux-gnu/bin/../lib/gcc/nios2-elf/4.1.2/mno-hw-mul/libgcc.a(_df_to_si.o)
 .comment       0x00000000       0x24 /tools/altera/12.0/nios2eds/bin/gnu/H-i686-pc-linux-gnu/bin/../lib/gcc/nios2-elf/4.1.2/mno-hw-mul/libgcc.a(_thenan_df.o)
 .comment       0x00000000       0x24 /tools/altera/12.0/nios2eds/bin/gnu/H-i686-pc-linux-gnu/bin/../lib/gcc/nios2-elf/4.1.2/mno-hw-mul/libgcc.a(_usi_to_df.o)
 .comment       0x00000000       0x24 /tools/altera/12.0/nios2eds/bin/gnu/H-i686-pc-linux-gnu/bin/../lib/gcc/nios2-elf/4.1.2/mno-hw-mul/libgcc.a(_clz.o)
 .comment       0x00000000       0x24 /tools/altera/12.0/nios2eds/bin/gnu/H-i686-pc-linux-gnu/bin/../lib/gcc/nios2-elf/4.1.2/mno-hw-mul/libgcc.a(_clzsi2.o)
 .comment       0x00000000       0x24 /tools/altera/12.0/nios2eds/bin/gnu/H-i686-pc-linux-gnu/bin/../lib/gcc/nios2-elf/4.1.2/mno-hw-mul/libgcc.a(_pack_df.o)
 .comment       0x00000000       0x24 /tools/altera/12.0/nios2eds/bin/gnu/H-i686-pc-linux-gnu/bin/../lib/gcc/nios2-elf/4.1.2/mno-hw-mul/libgcc.a(_unpack_df.o)
 .comment       0x00000000       0x24 /tools/altera/12.0/nios2eds/bin/gnu/H-i686-pc-linux-gnu/bin/../lib/gcc/nios2-elf/4.1.2/mno-hw-mul/libgcc.a(_fpcmp_parts_df.o)
 .comment       0x00000000       0x24 ../experiment1_bsp//libucosii_bsp.a(alt_close.o)
 .comment       0x00000000       0x24 ../experiment1_bsp//libucosii_bsp.a(alt_dev.o)
 .comment       0x00000000       0x24 ../experiment1_bsp//libucosii_bsp.a(alt_errno.o)
 .comment       0x00000000       0x24 ../experiment1_bsp//libucosii_bsp.a(alt_fstat.o)
 .comment       0x00000000       0x24 ../experiment1_bsp//libucosii_bsp.a(alt_irq_register.o)
 .comment       0x00000000       0x24 ../experiment1_bsp//libucosii_bsp.a(alt_irq_vars.o)
 .comment       0x00000000       0x24 ../experiment1_bsp//libucosii_bsp.a(alt_isatty.o)
 .comment       0x00000000       0x24 ../experiment1_bsp//libucosii_bsp.a(alt_load.o)
 .comment       0x00000000       0x24 ../experiment1_bsp//libucosii_bsp.a(alt_lseek.o)
 .comment       0x00000000       0x24 ../experiment1_bsp//libucosii_bsp.a(alt_main.o)
 .comment       0x00000000       0x24 ../experiment1_bsp//libucosii_bsp.a(alt_read.o)
 .comment       0x00000000       0x24 ../experiment1_bsp//libucosii_bsp.a(alt_release_fd.o)
 .comment       0x00000000       0x24 ../experiment1_bsp//libucosii_bsp.a(alt_sbrk.o)
 .comment       0x00000000       0x24 ../experiment1_bsp//libucosii_bsp.a(alt_write.o)
 .comment       0x00000000       0x24 ../experiment1_bsp//libucosii_bsp.a(alt_env_lock.o)
 .comment       0x00000000       0x24 ../experiment1_bsp//libucosii_bsp.a(alt_malloc_lock.o)
 .comment       0x00000000       0x24 ../experiment1_bsp//libucosii_bsp.a(os_core.o)
 .comment       0x00000000       0x24 ../experiment1_bsp//libucosii_bsp.a(os_dbg.o)
 .comment       0x00000000       0x24 ../experiment1_bsp//libucosii_bsp.a(os_flag.o)
 .comment       0x00000000       0x24 ../experiment1_bsp//libucosii_bsp.a(os_mbox.o)
 .comment       0x00000000       0x24 ../experiment1_bsp//libucosii_bsp.a(os_mem.o)
 .comment       0x00000000       0x24 ../experiment1_bsp//libucosii_bsp.a(os_q.o)
 .comment       0x00000000       0x24 ../experiment1_bsp//libucosii_bsp.a(os_sem.o)
 .comment       0x00000000       0x24 ../experiment1_bsp//libucosii_bsp.a(os_task.o)
 .comment       0x00000000       0x24 ../experiment1_bsp//libucosii_bsp.a(os_time.o)
 .comment       0x00000000       0x24 ../experiment1_bsp//libucosii_bsp.a(alt_sys_init.o)
 .comment       0x00000000       0x24 ../experiment1_bsp//libucosii_bsp.a(altera_avalon_jtag_uart_fd.o)
 .comment       0x00000000       0x24 ../experiment1_bsp//libucosii_bsp.a(altera_avalon_jtag_uart_init.o)
 .comment       0x00000000       0x24 ../experiment1_bsp//libucosii_bsp.a(altera_avalon_jtag_uart_ioctl.o)
 .comment       0x00000000       0x24 ../experiment1_bsp//libucosii_bsp.a(altera_avalon_jtag_uart_read.o)
 .comment       0x00000000       0x24 ../experiment1_bsp//libucosii_bsp.a(altera_avalon_jtag_uart_write.o)
 .comment       0x00000000       0x24 ../experiment1_bsp//libucosii_bsp.a(altera_avalon_performance_counter.o)
 .comment       0x00000000       0x24 ../experiment1_bsp//libucosii_bsp.a(altera_avalon_timer_sc.o)
 .comment       0x00000000       0x24 ../experiment1_bsp//libucosii_bsp.a(altera_up_avalon_character_lcd.o)
 .comment       0x00000000       0x24 ../experiment1_bsp//libucosii_bsp.a(alt_alarm_start.o)
 .comment       0x00000000       0x24 ../experiment1_bsp//libucosii_bsp.a(alt_dcache_flush_all.o)
 .comment       0x00000000       0x24 ../experiment1_bsp//libucosii_bsp.a(alt_dev_llist_insert.o)
 .comment       0x00000000       0x24 ../experiment1_bsp//libucosii_bsp.a(alt_do_ctors.o)
 .comment       0x00000000       0x24 ../experiment1_bsp//libucosii_bsp.a(alt_do_dtors.o)
 .comment       0x00000000       0x24 ../experiment1_bsp//libucosii_bsp.a(alt_find_dev.o)
 .comment       0x00000000       0x24 ../experiment1_bsp//libucosii_bsp.a(alt_icache_flush_all.o)
 .comment       0x00000000       0x24 ../experiment1_bsp//libucosii_bsp.a(alt_iic.o)
 .comment       0x00000000       0x24 ../experiment1_bsp//libucosii_bsp.a(alt_iic_isr_register.o)
 .comment       0x00000000       0x24 ../experiment1_bsp//libucosii_bsp.a(alt_io_redirect.o)
 .comment       0x00000000       0x24 ../experiment1_bsp//libucosii_bsp.a(alt_irq_handler.o)
 .comment       0x00000000       0x24 ../experiment1_bsp//libucosii_bsp.a(alt_open.o)
 .comment       0x00000000       0x24 ../experiment1_bsp//libucosii_bsp.a(alt_tick.o)
 .comment       0x00000000       0x24 ../experiment1_bsp//libucosii_bsp.a(altera_nios2_qsys_irq.o)
 .comment       0x00000000       0x24 ../experiment1_bsp//libucosii_bsp.a(os_cpu_c.o)
 .comment       0x00000000       0x24 ../experiment1_bsp//libucosii_bsp.a(alt_find_file.o)
 .comment       0x00000000       0x24 ../experiment1_bsp//libucosii_bsp.a(alt_get_fd.o)
 .comment       0x00000000       0x24 /tools/altera/12.0/nios2eds/bin/gnu/H-i686-pc-linux-gnu/bin/../lib/gcc/nios2-elf/4.1.2/../../../../nios2-elf/lib/mno-hw-mul/libc.a(lib_a-atexit.o)
 .comment       0x00000000       0x24 /tools/altera/12.0/nios2eds/bin/gnu/H-i686-pc-linux-gnu/bin/../lib/gcc/nios2-elf/4.1.2/../../../../nios2-elf/lib/mno-hw-mul/libc.a(lib_a-exit.o)
 .comment       0x00000000       0x24 /tools/altera/12.0/nios2eds/bin/gnu/H-i686-pc-linux-gnu/bin/../lib/gcc/nios2-elf/4.1.2/../../../../nios2-elf/lib/mno-hw-mul/libc.a(lib_a-memcmp.o)
 .comment       0x00000000       0x24 /tools/altera/12.0/nios2eds/bin/gnu/H-i686-pc-linux-gnu/bin/../lib/gcc/nios2-elf/4.1.2/../../../../nios2-elf/lib/mno-hw-mul/libc.a(lib_a-__atexit.o)
 .comment       0x00000000       0x24 /tools/altera/12.0/nios2eds/bin/gnu/H-i686-pc-linux-gnu/bin/../lib/gcc/nios2-elf/4.1.2/../../../../nios2-elf/lib/mno-hw-mul/libc.a(lib_a-__call_atexit.o)
 .comment       0x00000000       0x24 ../experiment1_bsp//libucosii_bsp.a(alt_exit.o)

.debug
 *(.debug)

.line
 *(.line)

.debug_srcinfo
 *(.debug_srcinfo)

.debug_sfnames
 *(.debug_sfnames)

.debug_aranges  0x00000000      0xf78
 *(.debug_aranges)
 .debug_aranges
                0x00000000       0x28 ../experiment1_bsp//obj/HAL/src/crt0.o
 .debug_aranges
                0x00000028       0x20 obj/default/PB_button.o
 .debug_aranges
                0x00000048       0x20 obj/default/alt_ucosii_simple_error_check.o
 .debug_aranges
                0x00000068       0x20 obj/default/experiment1.o
 .debug_aranges
                0x00000088       0x20 obj/default/tasks.o
 .debug_aranges
                0x000000a8       0x20 /tools/altera/12.0/nios2eds/bin/gnu/H-i686-pc-linux-gnu/bin/../lib/gcc/nios2-elf/4.1.2/mno-hw-mul/libgcc.a(lib2-divmod.o)
 .debug_aranges
                0x000000c8       0x20 /tools/altera/12.0/nios2eds/bin/gnu/H-i686-pc-linux-gnu/bin/../lib/gcc/nios2-elf/4.1.2/mno-hw-mul/libgcc.a(lib2-mul.o)
 .debug_aranges
                0x000000e8       0x20 /tools/altera/12.0/nios2eds/bin/gnu/H-i686-pc-linux-gnu/bin/../lib/gcc/nios2-elf/4.1.2/../../../../nios2-elf/lib/mno-hw-mul/libc.a(lib_a-fprintf.o)
 .debug_aranges
                0x00000108       0x20 /tools/altera/12.0/nios2eds/bin/gnu/H-i686-pc-linux-gnu/bin/../lib/gcc/nios2-elf/4.1.2/../../../../nios2-elf/lib/mno-hw-mul/libc.a(lib_a-fwrite.o)
 .debug_aranges
                0x00000128       0x20 /tools/altera/12.0/nios2eds/bin/gnu/H-i686-pc-linux-gnu/bin/../lib/gcc/nios2-elf/4.1.2/../../../../nios2-elf/lib/mno-hw-mul/libc.a(lib_a-printf.o)
 .debug_aranges
                0x00000148       0x20 /tools/altera/12.0/nios2eds/bin/gnu/H-i686-pc-linux-gnu/bin/../lib/gcc/nios2-elf/4.1.2/../../../../nios2-elf/lib/mno-hw-mul/libc.a(lib_a-putchar.o)
 .debug_aranges
                0x00000168       0x20 /tools/altera/12.0/nios2eds/bin/gnu/H-i686-pc-linux-gnu/bin/../lib/gcc/nios2-elf/4.1.2/../../../../nios2-elf/lib/mno-hw-mul/libc.a(lib_a-puts.o)
 .debug_aranges
                0x00000188       0x20 /tools/altera/12.0/nios2eds/bin/gnu/H-i686-pc-linux-gnu/bin/../lib/gcc/nios2-elf/4.1.2/../../../../nios2-elf/lib/mno-hw-mul/libc.a(lib_a-rand.o)
 .debug_aranges
                0x000001a8       0x20 /tools/altera/12.0/nios2eds/bin/gnu/H-i686-pc-linux-gnu/bin/../lib/gcc/nios2-elf/4.1.2/../../../../nios2-elf/lib/mno-hw-mul/libc.a(lib_a-strlen.o)
 .debug_aranges
                0x000001c8       0x20 /tools/altera/12.0/nios2eds/bin/gnu/H-i686-pc-linux-gnu/bin/../lib/gcc/nios2-elf/4.1.2/../../../../nios2-elf/lib/mno-hw-mul/libc.a(lib_a-vfprintf.o)
 .debug_aranges
                0x000001e8       0x20 /tools/altera/12.0/nios2eds/bin/gnu/H-i686-pc-linux-gnu/bin/../lib/gcc/nios2-elf/4.1.2/../../../../nios2-elf/lib/mno-hw-mul/libc.a(lib_a-wsetup.o)
 .debug_aranges
                0x00000208       0x20 /tools/altera/12.0/nios2eds/bin/gnu/H-i686-pc-linux-gnu/bin/../lib/gcc/nios2-elf/4.1.2/../../../../nios2-elf/lib/mno-hw-mul/libc.a(lib_a-dtoa.o)
 .debug_aranges
                0x00000228       0x20 /tools/altera/12.0/nios2eds/bin/gnu/H-i686-pc-linux-gnu/bin/../lib/gcc/nios2-elf/4.1.2/../../../../nios2-elf/lib/mno-hw-mul/libc.a(lib_a-fflush.o)
 .debug_aranges
                0x00000248       0x20 /tools/altera/12.0/nios2eds/bin/gnu/H-i686-pc-linux-gnu/bin/../lib/gcc/nios2-elf/4.1.2/../../../../nios2-elf/lib/mno-hw-mul/libc.a(lib_a-findfp.o)
 .debug_aranges
                0x00000268       0x20 /tools/altera/12.0/nios2eds/bin/gnu/H-i686-pc-linux-gnu/bin/../lib/gcc/nios2-elf/4.1.2/../../../../nios2-elf/lib/mno-hw-mul/libc.a(lib_a-freer.o)
 .debug_aranges
                0x00000288       0x20 /tools/altera/12.0/nios2eds/bin/gnu/H-i686-pc-linux-gnu/bin/../lib/gcc/nios2-elf/4.1.2/../../../../nios2-elf/lib/mno-hw-mul/libc.a(lib_a-fvwrite.o)
 .debug_aranges
                0x000002a8       0x20 /tools/altera/12.0/nios2eds/bin/gnu/H-i686-pc-linux-gnu/bin/../lib/gcc/nios2-elf/4.1.2/../../../../nios2-elf/lib/mno-hw-mul/libc.a(lib_a-fwalk.o)
 .debug_aranges
                0x000002c8       0x20 /tools/altera/12.0/nios2eds/bin/gnu/H-i686-pc-linux-gnu/bin/../lib/gcc/nios2-elf/4.1.2/../../../../nios2-elf/lib/mno-hw-mul/libc.a(lib_a-locale.o)
 .debug_aranges
                0x000002e8       0x20 /tools/altera/12.0/nios2eds/bin/gnu/H-i686-pc-linux-gnu/bin/../lib/gcc/nios2-elf/4.1.2/../../../../nios2-elf/lib/mno-hw-mul/libc.a(lib_a-makebuf.o)
 .debug_aranges
                0x00000308       0x20 /tools/altera/12.0/nios2eds/bin/gnu/H-i686-pc-linux-gnu/bin/../lib/gcc/nios2-elf/4.1.2/../../../../nios2-elf/lib/mno-hw-mul/libc.a(lib_a-mallocr.o)
 .debug_aranges
                0x00000328       0x20 /tools/altera/12.0/nios2eds/bin/gnu/H-i686-pc-linux-gnu/bin/../lib/gcc/nios2-elf/4.1.2/../../../../nios2-elf/lib/mno-hw-mul/libc.a(lib_a-memchr.o)
 .debug_aranges
                0x00000348       0x20 /tools/altera/12.0/nios2eds/bin/gnu/H-i686-pc-linux-gnu/bin/../lib/gcc/nios2-elf/4.1.2/../../../../nios2-elf/lib/mno-hw-mul/libc.a(lib_a-memcpy.o)
 .debug_aranges
                0x00000368       0x20 /tools/altera/12.0/nios2eds/bin/gnu/H-i686-pc-linux-gnu/bin/../lib/gcc/nios2-elf/4.1.2/../../../../nios2-elf/lib/mno-hw-mul/libc.a(lib_a-memmove.o)
 .debug_aranges
                0x00000388       0x20 /tools/altera/12.0/nios2eds/bin/gnu/H-i686-pc-linux-gnu/bin/../lib/gcc/nios2-elf/4.1.2/../../../../nios2-elf/lib/mno-hw-mul/libc.a(lib_a-memset.o)
 .debug_aranges
                0x000003a8       0x20 /tools/altera/12.0/nios2eds/bin/gnu/H-i686-pc-linux-gnu/bin/../lib/gcc/nios2-elf/4.1.2/../../../../nios2-elf/lib/mno-hw-mul/libc.a(lib_a-mprec.o)
 .debug_aranges
                0x000003c8       0x20 /tools/altera/12.0/nios2eds/bin/gnu/H-i686-pc-linux-gnu/bin/../lib/gcc/nios2-elf/4.1.2/../../../../nios2-elf/lib/mno-hw-mul/libc.a(lib_a-putc.o)
 .debug_aranges
                0x000003e8       0x20 /tools/altera/12.0/nios2eds/bin/gnu/H-i686-pc-linux-gnu/bin/../lib/gcc/nios2-elf/4.1.2/../../../../nios2-elf/lib/mno-hw-mul/libc.a(lib_a-reallocr.o)
 .debug_aranges
                0x00000408       0x20 /tools/altera/12.0/nios2eds/bin/gnu/H-i686-pc-linux-gnu/bin/../lib/gcc/nios2-elf/4.1.2/../../../../nios2-elf/lib/mno-hw-mul/libc.a(lib_a-s_isinfd.o)
 .debug_aranges
                0x00000428       0x20 /tools/altera/12.0/nios2eds/bin/gnu/H-i686-pc-linux-gnu/bin/../lib/gcc/nios2-elf/4.1.2/../../../../nios2-elf/lib/mno-hw-mul/libc.a(lib_a-s_isnand.o)
 .debug_aranges
                0x00000448       0x20 /tools/altera/12.0/nios2eds/bin/gnu/H-i686-pc-linux-gnu/bin/../lib/gcc/nios2-elf/4.1.2/../../../../nios2-elf/lib/mno-hw-mul/libc.a(lib_a-sbrkr.o)
 .debug_aranges
                0x00000468       0x20 /tools/altera/12.0/nios2eds/bin/gnu/H-i686-pc-linux-gnu/bin/../lib/gcc/nios2-elf/4.1.2/../../../../nios2-elf/lib/mno-hw-mul/libc.a(lib_a-stdio.o)
 .debug_aranges
                0x00000488       0x20 /tools/altera/12.0/nios2eds/bin/gnu/H-i686-pc-linux-gnu/bin/../lib/gcc/nios2-elf/4.1.2/../../../../nios2-elf/lib/mno-hw-mul/libc.a(lib_a-strcmp.o)
 .debug_aranges
                0x000004a8       0x20 /tools/altera/12.0/nios2eds/bin/gnu/H-i686-pc-linux-gnu/bin/../lib/gcc/nios2-elf/4.1.2/../../../../nios2-elf/lib/mno-hw-mul/libc.a(lib_a-wbuf.o)
 .debug_aranges
                0x000004c8       0x20 /tools/altera/12.0/nios2eds/bin/gnu/H-i686-pc-linux-gnu/bin/../lib/gcc/nios2-elf/4.1.2/../../../../nios2-elf/lib/mno-hw-mul/libc.a(lib_a-writer.o)
 .debug_aranges
                0x000004e8       0x20 /tools/altera/12.0/nios2eds/bin/gnu/H-i686-pc-linux-gnu/bin/../lib/gcc/nios2-elf/4.1.2/../../../../nios2-elf/lib/mno-hw-mul/libc.a(lib_a-callocr.o)
 .debug_aranges
                0x00000508       0x20 /tools/altera/12.0/nios2eds/bin/gnu/H-i686-pc-linux-gnu/bin/../lib/gcc/nios2-elf/4.1.2/../../../../nios2-elf/lib/mno-hw-mul/libc.a(lib_a-closer.o)
 .debug_aranges
                0x00000528       0x20 /tools/altera/12.0/nios2eds/bin/gnu/H-i686-pc-linux-gnu/bin/../lib/gcc/nios2-elf/4.1.2/../../../../nios2-elf/lib/mno-hw-mul/libc.a(lib_a-fclose.o)
 .debug_aranges
                0x00000548       0x20 /tools/altera/12.0/nios2eds/bin/gnu/H-i686-pc-linux-gnu/bin/../lib/gcc/nios2-elf/4.1.2/../../../../nios2-elf/lib/mno-hw-mul/libc.a(lib_a-fstatr.o)
 .debug_aranges
                0x00000568       0x20 /tools/altera/12.0/nios2eds/bin/gnu/H-i686-pc-linux-gnu/bin/../lib/gcc/nios2-elf/4.1.2/../../../../nios2-elf/lib/mno-hw-mul/libc.a(lib_a-isattyr.o)
 .debug_aranges
                0x00000588       0x20 /tools/altera/12.0/nios2eds/bin/gnu/H-i686-pc-linux-gnu/bin/../lib/gcc/nios2-elf/4.1.2/../../../../nios2-elf/lib/mno-hw-mul/libc.a(lib_a-lseekr.o)
 .debug_aranges
                0x000005a8       0x20 /tools/altera/12.0/nios2eds/bin/gnu/H-i686-pc-linux-gnu/bin/../lib/gcc/nios2-elf/4.1.2/../../../../nios2-elf/lib/mno-hw-mul/libc.a(lib_a-readr.o)
 .debug_aranges
                0x000005c8       0x20 /tools/altera/12.0/nios2eds/bin/gnu/H-i686-pc-linux-gnu/bin/../lib/gcc/nios2-elf/4.1.2/mno-hw-mul/libgcc.a(_muldi3.o)
 .debug_aranges
                0x000005e8       0x20 /tools/altera/12.0/nios2eds/bin/gnu/H-i686-pc-linux-gnu/bin/../lib/gcc/nios2-elf/4.1.2/mno-hw-mul/libgcc.a(_udivdi3.o)
 .debug_aranges
                0x00000608       0x20 /tools/altera/12.0/nios2eds/bin/gnu/H-i686-pc-linux-gnu/bin/../lib/gcc/nios2-elf/4.1.2/mno-hw-mul/libgcc.a(_umoddi3.o)
 .debug_aranges
                0x00000628       0x20 /tools/altera/12.0/nios2eds/bin/gnu/H-i686-pc-linux-gnu/bin/../lib/gcc/nios2-elf/4.1.2/mno-hw-mul/libgcc.a(_addsub_df.o)
 .debug_aranges
                0x00000648       0x20 /tools/altera/12.0/nios2eds/bin/gnu/H-i686-pc-linux-gnu/bin/../lib/gcc/nios2-elf/4.1.2/mno-hw-mul/libgcc.a(_mul_df.o)
 .debug_aranges
                0x00000668       0x20 /tools/altera/12.0/nios2eds/bin/gnu/H-i686-pc-linux-gnu/bin/../lib/gcc/nios2-elf/4.1.2/mno-hw-mul/libgcc.a(_div_df.o)
 .debug_aranges
                0x00000688       0x20 /tools/altera/12.0/nios2eds/bin/gnu/H-i686-pc-linux-gnu/bin/../lib/gcc/nios2-elf/4.1.2/mno-hw-mul/libgcc.a(_eq_df.o)
 .debug_aranges
                0x000006a8       0x20 /tools/altera/12.0/nios2eds/bin/gnu/H-i686-pc-linux-gnu/bin/../lib/gcc/nios2-elf/4.1.2/mno-hw-mul/libgcc.a(_ne_df.o)
 .debug_aranges
                0x000006c8       0x20 /tools/altera/12.0/nios2eds/bin/gnu/H-i686-pc-linux-gnu/bin/../lib/gcc/nios2-elf/4.1.2/mno-hw-mul/libgcc.a(_gt_df.o)
 .debug_aranges
                0x000006e8       0x20 /tools/altera/12.0/nios2eds/bin/gnu/H-i686-pc-linux-gnu/bin/../lib/gcc/nios2-elf/4.1.2/mno-hw-mul/libgcc.a(_ge_df.o)
 .debug_aranges
                0x00000708       0x20 /tools/altera/12.0/nios2eds/bin/gnu/H-i686-pc-linux-gnu/bin/../lib/gcc/nios2-elf/4.1.2/mno-hw-mul/libgcc.a(_lt_df.o)
 .debug_aranges
                0x00000728       0x20 /tools/altera/12.0/nios2eds/bin/gnu/H-i686-pc-linux-gnu/bin/../lib/gcc/nios2-elf/4.1.2/mno-hw-mul/libgcc.a(_si_to_df.o)
 .debug_aranges
                0x00000748       0x20 /tools/altera/12.0/nios2eds/bin/gnu/H-i686-pc-linux-gnu/bin/../lib/gcc/nios2-elf/4.1.2/mno-hw-mul/libgcc.a(_df_to_si.o)
 .debug_aranges
                0x00000768       0x20 /tools/altera/12.0/nios2eds/bin/gnu/H-i686-pc-linux-gnu/bin/../lib/gcc/nios2-elf/4.1.2/mno-hw-mul/libgcc.a(_usi_to_df.o)
 .debug_aranges
                0x00000788       0x20 /tools/altera/12.0/nios2eds/bin/gnu/H-i686-pc-linux-gnu/bin/../lib/gcc/nios2-elf/4.1.2/mno-hw-mul/libgcc.a(_clzsi2.o)
 .debug_aranges
                0x000007a8       0x20 /tools/altera/12.0/nios2eds/bin/gnu/H-i686-pc-linux-gnu/bin/../lib/gcc/nios2-elf/4.1.2/mno-hw-mul/libgcc.a(_pack_df.o)
 .debug_aranges
                0x000007c8       0x20 /tools/altera/12.0/nios2eds/bin/gnu/H-i686-pc-linux-gnu/bin/../lib/gcc/nios2-elf/4.1.2/mno-hw-mul/libgcc.a(_unpack_df.o)
 .debug_aranges
                0x000007e8       0x20 /tools/altera/12.0/nios2eds/bin/gnu/H-i686-pc-linux-gnu/bin/../lib/gcc/nios2-elf/4.1.2/mno-hw-mul/libgcc.a(_fpcmp_parts_df.o)
 .debug_aranges
                0x00000808       0x20 ../experiment1_bsp//libucosii_bsp.a(alt_close.o)
 .debug_aranges
                0x00000828       0x20 ../experiment1_bsp//libucosii_bsp.a(alt_dev.o)
 .debug_aranges
                0x00000848       0x20 ../experiment1_bsp//libucosii_bsp.a(alt_fstat.o)
 .debug_aranges
                0x00000868       0x20 ../experiment1_bsp//libucosii_bsp.a(alt_irq_register.o)
 .debug_aranges
                0x00000888       0x20 ../experiment1_bsp//libucosii_bsp.a(alt_isatty.o)
 .debug_aranges
                0x000008a8       0x20 ../experiment1_bsp//libucosii_bsp.a(alt_load.o)
 .debug_aranges
                0x000008c8       0x20 ../experiment1_bsp//libucosii_bsp.a(alt_lseek.o)
 .debug_aranges
                0x000008e8       0x20 ../experiment1_bsp//libucosii_bsp.a(alt_main.o)
 .debug_aranges
                0x00000908       0x20 ../experiment1_bsp//libucosii_bsp.a(alt_read.o)
 .debug_aranges
                0x00000928       0x20 ../experiment1_bsp//libucosii_bsp.a(alt_release_fd.o)
 .debug_aranges
                0x00000948       0x20 ../experiment1_bsp//libucosii_bsp.a(alt_sbrk.o)
 .debug_aranges
                0x00000968       0x20 ../experiment1_bsp//libucosii_bsp.a(alt_write.o)
 .debug_aranges
                0x00000988       0x20 ../experiment1_bsp//libucosii_bsp.a(alt_env_lock.o)
 .debug_aranges
                0x000009a8       0x20 ../experiment1_bsp//libucosii_bsp.a(alt_malloc_lock.o)
 .debug_aranges
                0x000009c8       0x20 ../experiment1_bsp//libucosii_bsp.a(os_core.o)
 .debug_aranges
                0x000009e8       0x20 ../experiment1_bsp//libucosii_bsp.a(os_dbg.o)
 .debug_aranges
                0x00000a08       0x20 ../experiment1_bsp//libucosii_bsp.a(os_flag.o)
 .debug_aranges
                0x00000a28       0x20 ../experiment1_bsp//libucosii_bsp.a(os_mbox.o)
 .debug_aranges
                0x00000a48       0x20 ../experiment1_bsp//libucosii_bsp.a(os_mem.o)
 .debug_aranges
                0x00000a68       0x20 ../experiment1_bsp//libucosii_bsp.a(os_q.o)
 .debug_aranges
                0x00000a88       0x20 ../experiment1_bsp//libucosii_bsp.a(os_sem.o)
 .debug_aranges
                0x00000aa8       0x20 ../experiment1_bsp//libucosii_bsp.a(os_task.o)
 .debug_aranges
                0x00000ac8       0x20 ../experiment1_bsp//libucosii_bsp.a(os_time.o)
 .debug_aranges
                0x00000ae8       0x20 ../experiment1_bsp//libucosii_bsp.a(alt_sys_init.o)
 .debug_aranges
                0x00000b08       0x20 ../experiment1_bsp//libucosii_bsp.a(altera_avalon_jtag_uart_fd.o)
 .debug_aranges
                0x00000b28       0x20 ../experiment1_bsp//libucosii_bsp.a(altera_avalon_jtag_uart_init.o)
 .debug_aranges
                0x00000b48       0x20 ../experiment1_bsp//libucosii_bsp.a(altera_avalon_jtag_uart_ioctl.o)
 .debug_aranges
                0x00000b68       0x20 ../experiment1_bsp//libucosii_bsp.a(altera_avalon_jtag_uart_read.o)
 .debug_aranges
                0x00000b88       0x20 ../experiment1_bsp//libucosii_bsp.a(altera_avalon_jtag_uart_write.o)
 .debug_aranges
                0x00000ba8       0x20 ../experiment1_bsp//libucosii_bsp.a(altera_avalon_performance_counter.o)
 .debug_aranges
                0x00000bc8       0x20 ../experiment1_bsp//libucosii_bsp.a(altera_avalon_timer_sc.o)
 .debug_aranges
                0x00000be8       0x20 ../experiment1_bsp//libucosii_bsp.a(altera_up_avalon_character_lcd.o)
 .debug_aranges
                0x00000c08       0x20 ../experiment1_bsp//libucosii_bsp.a(alt_alarm_start.o)
 .debug_aranges
                0x00000c28       0x20 ../experiment1_bsp//libucosii_bsp.a(alt_dcache_flush_all.o)
 .debug_aranges
                0x00000c48       0x20 ../experiment1_bsp//libucosii_bsp.a(alt_dev_llist_insert.o)
 .debug_aranges
                0x00000c68       0x20 ../experiment1_bsp//libucosii_bsp.a(alt_do_ctors.o)
 .debug_aranges
                0x00000c88       0x20 ../experiment1_bsp//libucosii_bsp.a(alt_do_dtors.o)
 .debug_aranges
                0x00000ca8       0x20 ../experiment1_bsp//libucosii_bsp.a(alt_find_dev.o)
 .debug_aranges
                0x00000cc8       0x20 ../experiment1_bsp//libucosii_bsp.a(alt_icache_flush_all.o)
 .debug_aranges
                0x00000ce8       0x20 ../experiment1_bsp//libucosii_bsp.a(alt_iic.o)
 .debug_aranges
                0x00000d08       0x20 ../experiment1_bsp//libucosii_bsp.a(alt_iic_isr_register.o)
 .debug_aranges
                0x00000d28       0x20 ../experiment1_bsp//libucosii_bsp.a(alt_io_redirect.o)
 .debug_aranges
                0x00000d48       0x30 ../experiment1_bsp//libucosii_bsp.a(alt_irq_entry.o)
 .debug_aranges
                0x00000d78       0x28 ../experiment1_bsp//libucosii_bsp.a(alt_irq_handler.o)
 .debug_aranges
                0x00000da0       0x20 ../experiment1_bsp//libucosii_bsp.a(alt_open.o)
 .debug_aranges
                0x00000dc0       0x20 ../experiment1_bsp//libucosii_bsp.a(alt_tick.o)
 .debug_aranges
                0x00000de0       0x20 ../experiment1_bsp//libucosii_bsp.a(altera_nios2_qsys_irq.o)
 .debug_aranges
                0x00000e00       0x20 ../experiment1_bsp//libucosii_bsp.a(os_cpu_a.o)
 .debug_aranges
                0x00000e20       0x20 ../experiment1_bsp//libucosii_bsp.a(os_cpu_c.o)
 .debug_aranges
                0x00000e40       0x38 ../experiment1_bsp//libucosii_bsp.a(alt_exception_entry.o)
 .debug_aranges
                0x00000e78       0x20 ../experiment1_bsp//libucosii_bsp.a(alt_find_file.o)
 .debug_aranges
                0x00000e98       0x20 ../experiment1_bsp//libucosii_bsp.a(alt_get_fd.o)
 .debug_aranges
                0x00000eb8       0x20 /tools/altera/12.0/nios2eds/bin/gnu/H-i686-pc-linux-gnu/bin/../lib/gcc/nios2-elf/4.1.2/../../../../nios2-elf/lib/mno-hw-mul/libc.a(lib_a-atexit.o)
 .debug_aranges
                0x00000ed8       0x20 /tools/altera/12.0/nios2eds/bin/gnu/H-i686-pc-linux-gnu/bin/../lib/gcc/nios2-elf/4.1.2/../../../../nios2-elf/lib/mno-hw-mul/libc.a(lib_a-exit.o)
 .debug_aranges
                0x00000ef8       0x20 /tools/altera/12.0/nios2eds/bin/gnu/H-i686-pc-linux-gnu/bin/../lib/gcc/nios2-elf/4.1.2/../../../../nios2-elf/lib/mno-hw-mul/libc.a(lib_a-memcmp.o)
 .debug_aranges
                0x00000f18       0x20 /tools/altera/12.0/nios2eds/bin/gnu/H-i686-pc-linux-gnu/bin/../lib/gcc/nios2-elf/4.1.2/../../../../nios2-elf/lib/mno-hw-mul/libc.a(lib_a-__atexit.o)
 .debug_aranges
                0x00000f38       0x20 /tools/altera/12.0/nios2eds/bin/gnu/H-i686-pc-linux-gnu/bin/../lib/gcc/nios2-elf/4.1.2/../../../../nios2-elf/lib/mno-hw-mul/libc.a(lib_a-__call_atexit.o)
 .debug_aranges
                0x00000f58       0x20 ../experiment1_bsp//libucosii_bsp.a(alt_exit.o)

.debug_pubnames
                0x00000000     0x2742
 *(.debug_pubnames)
 .debug_pubnames
                0x00000000       0x87 obj/default/PB_button.o
 .debug_pubnames
                0x00000087       0x57 obj/default/alt_ucosii_simple_error_check.o
 .debug_pubnames
                0x000000de       0x85 obj/default/experiment1.o
 .debug_pubnames
                0x00000163      0x204 obj/default/tasks.o
 .debug_pubnames
                0x00000367       0x48 /tools/altera/12.0/nios2eds/bin/gnu/H-i686-pc-linux-gnu/bin/../lib/gcc/nios2-elf/4.1.2/mno-hw-mul/libgcc.a(lib2-divmod.o)
 .debug_pubnames
                0x000003af       0x1f /tools/altera/12.0/nios2eds/bin/gnu/H-i686-pc-linux-gnu/bin/../lib/gcc/nios2-elf/4.1.2/mno-hw-mul/libgcc.a(lib2-mul.o)
 .debug_pubnames
                0x000003ce       0x2d /tools/altera/12.0/nios2eds/bin/gnu/H-i686-pc-linux-gnu/bin/../lib/gcc/nios2-elf/4.1.2/../../../../nios2-elf/lib/mno-hw-mul/libc.a(lib_a-fprintf.o)
 .debug_pubnames
                0x000003fb       0x2b /tools/altera/12.0/nios2eds/bin/gnu/H-i686-pc-linux-gnu/bin/../lib/gcc/nios2-elf/4.1.2/../../../../nios2-elf/lib/mno-hw-mul/libc.a(lib_a-fwrite.o)
 .debug_pubnames
                0x00000426       0x39 /tools/altera/12.0/nios2eds/bin/gnu/H-i686-pc-linux-gnu/bin/../lib/gcc/nios2-elf/4.1.2/../../../../nios2-elf/lib/mno-hw-mul/libc.a(lib_a-impure.o)
 .debug_pubnames
                0x0000045f       0x2b /tools/altera/12.0/nios2eds/bin/gnu/H-i686-pc-linux-gnu/bin/../lib/gcc/nios2-elf/4.1.2/../../../../nios2-elf/lib/mno-hw-mul/libc.a(lib_a-printf.o)
 .debug_pubnames
                0x0000048a       0x2d /tools/altera/12.0/nios2eds/bin/gnu/H-i686-pc-linux-gnu/bin/../lib/gcc/nios2-elf/4.1.2/../../../../nios2-elf/lib/mno-hw-mul/libc.a(lib_a-putchar.o)
 .debug_pubnames
                0x000004b7       0x27 /tools/altera/12.0/nios2eds/bin/gnu/H-i686-pc-linux-gnu/bin/../lib/gcc/nios2-elf/4.1.2/../../../../nios2-elf/lib/mno-hw-mul/libc.a(lib_a-puts.o)
 .debug_pubnames
                0x000004de       0x25 /tools/altera/12.0/nios2eds/bin/gnu/H-i686-pc-linux-gnu/bin/../lib/gcc/nios2-elf/4.1.2/../../../../nios2-elf/lib/mno-hw-mul/libc.a(lib_a-rand.o)
 .debug_pubnames
                0x00000503       0x1d /tools/altera/12.0/nios2eds/bin/gnu/H-i686-pc-linux-gnu/bin/../lib/gcc/nios2-elf/4.1.2/../../../../nios2-elf/lib/mno-hw-mul/libc.a(lib_a-strlen.o)
 .debug_pubnames
                0x00000520       0x45 /tools/altera/12.0/nios2eds/bin/gnu/H-i686-pc-linux-gnu/bin/../lib/gcc/nios2-elf/4.1.2/../../../../nios2-elf/lib/mno-hw-mul/libc.a(lib_a-vfprintf.o)
 .debug_pubnames
                0x00000565       0x22 /tools/altera/12.0/nios2eds/bin/gnu/H-i686-pc-linux-gnu/bin/../lib/gcc/nios2-elf/4.1.2/../../../../nios2-elf/lib/mno-hw-mul/libc.a(lib_a-wsetup.o)
 .debug_pubnames
                0x00000587       0x1e /tools/altera/12.0/nios2eds/bin/gnu/H-i686-pc-linux-gnu/bin/../lib/gcc/nios2-elf/4.1.2/../../../../nios2-elf/lib/mno-hw-mul/libc.a(lib_a-dtoa.o)
 .debug_pubnames
                0x000005a5       0x2b /tools/altera/12.0/nios2eds/bin/gnu/H-i686-pc-linux-gnu/bin/../lib/gcc/nios2-elf/4.1.2/../../../../nios2-elf/lib/mno-hw-mul/libc.a(lib_a-fflush.o)
 .debug_pubnames
                0x000005d0       0xdb /tools/altera/12.0/nios2eds/bin/gnu/H-i686-pc-linux-gnu/bin/../lib/gcc/nios2-elf/4.1.2/../../../../nios2-elf/lib/mno-hw-mul/libc.a(lib_a-findfp.o)
 .debug_pubnames
                0x000006ab       0x31 /tools/altera/12.0/nios2eds/bin/gnu/H-i686-pc-linux-gnu/bin/../lib/gcc/nios2-elf/4.1.2/../../../../nios2-elf/lib/mno-hw-mul/libc.a(lib_a-freer.o)
 .debug_pubnames
                0x000006dc       0x23 /tools/altera/12.0/nios2eds/bin/gnu/H-i686-pc-linux-gnu/bin/../lib/gcc/nios2-elf/4.1.2/../../../../nios2-elf/lib/mno-hw-mul/libc.a(lib_a-fvwrite.o)
 .debug_pubnames
                0x000006ff       0x2e /tools/altera/12.0/nios2eds/bin/gnu/H-i686-pc-linux-gnu/bin/../lib/gcc/nios2-elf/4.1.2/../../../../nios2-elf/lib/mno-hw-mul/libc.a(lib_a-fwalk.o)
 .debug_pubnames
                0x0000072d       0xc3 /tools/altera/12.0/nios2eds/bin/gnu/H-i686-pc-linux-gnu/bin/../lib/gcc/nios2-elf/4.1.2/../../../../nios2-elf/lib/mno-hw-mul/libc.a(lib_a-locale.o)
 .debug_pubnames
                0x000007f0       0x23 /tools/altera/12.0/nios2eds/bin/gnu/H-i686-pc-linux-gnu/bin/../lib/gcc/nios2-elf/4.1.2/../../../../nios2-elf/lib/mno-hw-mul/libc.a(lib_a-makebuf.o)
 .debug_pubnames
                0x00000813       0xce /tools/altera/12.0/nios2eds/bin/gnu/H-i686-pc-linux-gnu/bin/../lib/gcc/nios2-elf/4.1.2/../../../../nios2-elf/lib/mno-hw-mul/libc.a(lib_a-mallocr.o)
 .debug_pubnames
                0x000008e1       0x1d /tools/altera/12.0/nios2eds/bin/gnu/H-i686-pc-linux-gnu/bin/../lib/gcc/nios2-elf/4.1.2/../../../../nios2-elf/lib/mno-hw-mul/libc.a(lib_a-memchr.o)
 .debug_pubnames
                0x000008fe       0x1d /tools/altera/12.0/nios2eds/bin/gnu/H-i686-pc-linux-gnu/bin/../lib/gcc/nios2-elf/4.1.2/../../../../nios2-elf/lib/mno-hw-mul/libc.a(lib_a-memcpy.o)
 .debug_pubnames
                0x0000091b       0x1e /tools/altera/12.0/nios2eds/bin/gnu/H-i686-pc-linux-gnu/bin/../lib/gcc/nios2-elf/4.1.2/../../../../nios2-elf/lib/mno-hw-mul/libc.a(lib_a-memmove.o)
 .debug_pubnames
                0x00000939       0x1d /tools/altera/12.0/nios2eds/bin/gnu/H-i686-pc-linux-gnu/bin/../lib/gcc/nios2-elf/4.1.2/../../../../nios2-elf/lib/mno-hw-mul/libc.a(lib_a-memset.o)
 .debug_pubnames
                0x00000956      0x13a /tools/altera/12.0/nios2eds/bin/gnu/H-i686-pc-linux-gnu/bin/../lib/gcc/nios2-elf/4.1.2/../../../../nios2-elf/lib/mno-hw-mul/libc.a(lib_a-mprec.o)
 .debug_pubnames
                0x00000a90       0x27 /tools/altera/12.0/nios2eds/bin/gnu/H-i686-pc-linux-gnu/bin/../lib/gcc/nios2-elf/4.1.2/../../../../nios2-elf/lib/mno-hw-mul/libc.a(lib_a-putc.o)
 .debug_pubnames
                0x00000ab7       0x21 /tools/altera/12.0/nios2eds/bin/gnu/H-i686-pc-linux-gnu/bin/../lib/gcc/nios2-elf/4.1.2/../../../../nios2-elf/lib/mno-hw-mul/libc.a(lib_a-reallocr.o)
 .debug_pubnames
                0x00000ad8       0x1f /tools/altera/12.0/nios2eds/bin/gnu/H-i686-pc-linux-gnu/bin/../lib/gcc/nios2-elf/4.1.2/../../../../nios2-elf/lib/mno-hw-mul/libc.a(lib_a-s_isinfd.o)
 .debug_pubnames
                0x00000af7       0x1f /tools/altera/12.0/nios2eds/bin/gnu/H-i686-pc-linux-gnu/bin/../lib/gcc/nios2-elf/4.1.2/../../../../nios2-elf/lib/mno-hw-mul/libc.a(lib_a-s_isnand.o)
 .debug_pubnames
                0x00000b16       0x1e /tools/altera/12.0/nios2eds/bin/gnu/H-i686-pc-linux-gnu/bin/../lib/gcc/nios2-elf/4.1.2/../../../../nios2-elf/lib/mno-hw-mul/libc.a(lib_a-sbrkr.o)
 .debug_pubnames
                0x00000b34       0x44 /tools/altera/12.0/nios2eds/bin/gnu/H-i686-pc-linux-gnu/bin/../lib/gcc/nios2-elf/4.1.2/../../../../nios2-elf/lib/mno-hw-mul/libc.a(lib_a-stdio.o)
 .debug_pubnames
                0x00000b78       0x1d /tools/altera/12.0/nios2eds/bin/gnu/H-i686-pc-linux-gnu/bin/../lib/gcc/nios2-elf/4.1.2/../../../../nios2-elf/lib/mno-hw-mul/libc.a(lib_a-strcmp.o)
 .debug_pubnames
                0x00000b95       0x2c /tools/altera/12.0/nios2eds/bin/gnu/H-i686-pc-linux-gnu/bin/../lib/gcc/nios2-elf/4.1.2/../../../../nios2-elf/lib/mno-hw-mul/libc.a(lib_a-wbuf.o)
 .debug_pubnames
                0x00000bc1       0x1f /tools/altera/12.0/nios2eds/bin/gnu/H-i686-pc-linux-gnu/bin/../lib/gcc/nios2-elf/4.1.2/../../../../nios2-elf/lib/mno-hw-mul/libc.a(lib_a-writer.o)
 .debug_pubnames
                0x00000be0       0x20 /tools/altera/12.0/nios2eds/bin/gnu/H-i686-pc-linux-gnu/bin/../lib/gcc/nios2-elf/4.1.2/../../../../nios2-elf/lib/mno-hw-mul/libc.a(lib_a-callocr.o)
 .debug_pubnames
                0x00000c00       0x1f /tools/altera/12.0/nios2eds/bin/gnu/H-i686-pc-linux-gnu/bin/../lib/gcc/nios2-elf/4.1.2/../../../../nios2-elf/lib/mno-hw-mul/libc.a(lib_a-closer.o)
 .debug_pubnames
                0x00000c1f       0x2b /tools/altera/12.0/nios2eds/bin/gnu/H-i686-pc-linux-gnu/bin/../lib/gcc/nios2-elf/4.1.2/../../../../nios2-elf/lib/mno-hw-mul/libc.a(lib_a-fclose.o)
 .debug_pubnames
                0x00000c4a       0x1f /tools/altera/12.0/nios2eds/bin/gnu/H-i686-pc-linux-gnu/bin/../lib/gcc/nios2-elf/4.1.2/../../../../nios2-elf/lib/mno-hw-mul/libc.a(lib_a-fstatr.o)
 .debug_pubnames
                0x00000c69       0x1c /tools/altera/12.0/nios2eds/bin/gnu/H-i686-pc-linux-gnu/bin/../lib/gcc/nios2-elf/4.1.2/../../../../nios2-elf/lib/mno-hw-mul/libc.a(lib_a-int_errno.o)
 .debug_pubnames
                0x00000c85       0x20 /tools/altera/12.0/nios2eds/bin/gnu/H-i686-pc-linux-gnu/bin/../lib/gcc/nios2-elf/4.1.2/../../../../nios2-elf/lib/mno-hw-mul/libc.a(lib_a-isattyr.o)
 .debug_pubnames
                0x00000ca5       0x1f /tools/altera/12.0/nios2eds/bin/gnu/H-i686-pc-linux-gnu/bin/../lib/gcc/nios2-elf/4.1.2/../../../../nios2-elf/lib/mno-hw-mul/libc.a(lib_a-lseekr.o)
 .debug_pubnames
                0x00000cc4       0x1e /tools/altera/12.0/nios2eds/bin/gnu/H-i686-pc-linux-gnu/bin/../lib/gcc/nios2-elf/4.1.2/../../../../nios2-elf/lib/mno-hw-mul/libc.a(lib_a-readr.o)
 .debug_pubnames
                0x00000ce2       0x1f /tools/altera/12.0/nios2eds/bin/gnu/H-i686-pc-linux-gnu/bin/../lib/gcc/nios2-elf/4.1.2/mno-hw-mul/libgcc.a(_muldi3.o)
 .debug_pubnames
                0x00000d01       0x20 /tools/altera/12.0/nios2eds/bin/gnu/H-i686-pc-linux-gnu/bin/../lib/gcc/nios2-elf/4.1.2/mno-hw-mul/libgcc.a(_udivdi3.o)
 .debug_pubnames
                0x00000d21       0x20 /tools/altera/12.0/nios2eds/bin/gnu/H-i686-pc-linux-gnu/bin/../lib/gcc/nios2-elf/4.1.2/mno-hw-mul/libgcc.a(_umoddi3.o)
 .debug_pubnames
                0x00000d41       0x2c /tools/altera/12.0/nios2eds/bin/gnu/H-i686-pc-linux-gnu/bin/../lib/gcc/nios2-elf/4.1.2/mno-hw-mul/libgcc.a(_addsub_df.o)
 .debug_pubnames
                0x00000d6d       0x1f /tools/altera/12.0/nios2eds/bin/gnu/H-i686-pc-linux-gnu/bin/../lib/gcc/nios2-elf/4.1.2/mno-hw-mul/libgcc.a(_mul_df.o)
 .debug_pubnames
                0x00000d8c       0x1f /tools/altera/12.0/nios2eds/bin/gnu/H-i686-pc-linux-gnu/bin/../lib/gcc/nios2-elf/4.1.2/mno-hw-mul/libgcc.a(_div_df.o)
 .debug_pubnames
                0x00000dab       0x1e /tools/altera/12.0/nios2eds/bin/gnu/H-i686-pc-linux-gnu/bin/../lib/gcc/nios2-elf/4.1.2/mno-hw-mul/libgcc.a(_eq_df.o)
 .debug_pubnames
                0x00000dc9       0x1e /tools/altera/12.0/nios2eds/bin/gnu/H-i686-pc-linux-gnu/bin/../lib/gcc/nios2-elf/4.1.2/mno-hw-mul/libgcc.a(_ne_df.o)
 .debug_pubnames
                0x00000de7       0x1e /tools/altera/12.0/nios2eds/bin/gnu/H-i686-pc-linux-gnu/bin/../lib/gcc/nios2-elf/4.1.2/mno-hw-mul/libgcc.a(_gt_df.o)
 .debug_pubnames
                0x00000e05       0x1e /tools/altera/12.0/nios2eds/bin/gnu/H-i686-pc-linux-gnu/bin/../lib/gcc/nios2-elf/4.1.2/mno-hw-mul/libgcc.a(_ge_df.o)
 .debug_pubnames
                0x00000e23       0x1e /tools/altera/12.0/nios2eds/bin/gnu/H-i686-pc-linux-gnu/bin/../lib/gcc/nios2-elf/4.1.2/mno-hw-mul/libgcc.a(_lt_df.o)
 .debug_pubnames
                0x00000e41       0x22 /tools/altera/12.0/nios2eds/bin/gnu/H-i686-pc-linux-gnu/bin/../lib/gcc/nios2-elf/4.1.2/mno-hw-mul/libgcc.a(_si_to_df.o)
 .debug_pubnames
                0x00000e63       0x20 /tools/altera/12.0/nios2eds/bin/gnu/H-i686-pc-linux-gnu/bin/../lib/gcc/nios2-elf/4.1.2/mno-hw-mul/libgcc.a(_df_to_si.o)
 .debug_pubnames
                0x00000e83       0x22 /tools/altera/12.0/nios2eds/bin/gnu/H-i686-pc-linux-gnu/bin/../lib/gcc/nios2-elf/4.1.2/mno-hw-mul/libgcc.a(_thenan_df.o)
 .debug_pubnames
                0x00000ea5       0x24 /tools/altera/12.0/nios2eds/bin/gnu/H-i686-pc-linux-gnu/bin/../lib/gcc/nios2-elf/4.1.2/mno-hw-mul/libgcc.a(_usi_to_df.o)
 .debug_pubnames
                0x00000ec9       0x20 /tools/altera/12.0/nios2eds/bin/gnu/H-i686-pc-linux-gnu/bin/../lib/gcc/nios2-elf/4.1.2/mno-hw-mul/libgcc.a(_clz.o)
 .debug_pubnames
                0x00000ee9       0x1f /tools/altera/12.0/nios2eds/bin/gnu/H-i686-pc-linux-gnu/bin/../lib/gcc/nios2-elf/4.1.2/mno-hw-mul/libgcc.a(_clzsi2.o)
 .debug_pubnames
                0x00000f08       0x1f /tools/altera/12.0/nios2eds/bin/gnu/H-i686-pc-linux-gnu/bin/../lib/gcc/nios2-elf/4.1.2/mno-hw-mul/libgcc.a(_pack_df.o)
 .debug_pubnames
                0x00000f27       0x21 /tools/altera/12.0/nios2eds/bin/gnu/H-i686-pc-linux-gnu/bin/../lib/gcc/nios2-elf/4.1.2/mno-hw-mul/libgcc.a(_unpack_df.o)
 .debug_pubnames
                0x00000f48       0x26 /tools/altera/12.0/nios2eds/bin/gnu/H-i686-pc-linux-gnu/bin/../lib/gcc/nios2-elf/4.1.2/mno-hw-mul/libgcc.a(_fpcmp_parts_df.o)
 .debug_pubnames
                0x00000f6e       0x1c ../experiment1_bsp//libucosii_bsp.a(alt_close.o)
 .debug_pubnames
                0x00000f8a       0x78 ../experiment1_bsp//libucosii_bsp.a(alt_dev.o)
 .debug_pubnames
                0x00001002       0x20 ../experiment1_bsp//libucosii_bsp.a(alt_errno.o)
 .debug_pubnames
                0x00001022       0x1c ../experiment1_bsp//libucosii_bsp.a(alt_fstat.o)
 .debug_pubnames
                0x0000103e       0x27 ../experiment1_bsp//libucosii_bsp.a(alt_irq_register.o)
 .debug_pubnames
                0x00001065       0x3b ../experiment1_bsp//libucosii_bsp.a(alt_irq_vars.o)
 .debug_pubnames
                0x000010a0       0x1d ../experiment1_bsp//libucosii_bsp.a(alt_isatty.o)
 .debug_pubnames
                0x000010bd       0x1f ../experiment1_bsp//libucosii_bsp.a(alt_load.o)
 .debug_pubnames
                0x000010dc       0x1c ../experiment1_bsp//libucosii_bsp.a(alt_lseek.o)
 .debug_pubnames
                0x000010f8       0x46 ../experiment1_bsp//libucosii_bsp.a(alt_main.o)
 .debug_pubnames
                0x0000113e       0x1b ../experiment1_bsp//libucosii_bsp.a(alt_read.o)
 .debug_pubnames
                0x00001159       0x25 ../experiment1_bsp//libucosii_bsp.a(alt_release_fd.o)
 .debug_pubnames
                0x0000117e       0x1b ../experiment1_bsp//libucosii_bsp.a(alt_sbrk.o)
 .debug_pubnames
                0x00001199       0x1c ../experiment1_bsp//libucosii_bsp.a(alt_write.o)
 .debug_pubnames
                0x000011b5       0x41 ../experiment1_bsp//libucosii_bsp.a(alt_env_lock.o)
 .debug_pubnames
                0x000011f6       0x48 ../experiment1_bsp//libucosii_bsp.a(alt_malloc_lock.o)
 .debug_pubnames
                0x0000123e      0x3f8 ../experiment1_bsp//libucosii_bsp.a(os_core.o)
 .debug_pubnames
                0x00001636      0x3c5 ../experiment1_bsp//libucosii_bsp.a(os_dbg.o)
 .debug_pubnames
                0x000019fb       0xd0 ../experiment1_bsp//libucosii_bsp.a(os_flag.o)
 .debug_pubnames
                0x00001acb       0x96 ../experiment1_bsp//libucosii_bsp.a(os_mbox.o)
 .debug_pubnames
                0x00001b61       0x7c ../experiment1_bsp//libucosii_bsp.a(os_mem.o)
 .debug_pubnames
                0x00001bdd       0xa9 ../experiment1_bsp//libucosii_bsp.a(os_q.o)
 .debug_pubnames
                0x00001c86       0x8a ../experiment1_bsp//libucosii_bsp.a(os_sem.o)
 .debug_pubnames
                0x00001d10       0xe5 ../experiment1_bsp//libucosii_bsp.a(os_task.o)
 .debug_pubnames
                0x00001df5       0x62 ../experiment1_bsp//libucosii_bsp.a(os_time.o)
 .debug_pubnames
                0x00001e57       0x34 ../experiment1_bsp//libucosii_bsp.a(alt_sys_init.o)
 .debug_pubnames
                0x00001e8b       0xa5 ../experiment1_bsp//libucosii_bsp.a(altera_avalon_jtag_uart_fd.o)
 .debug_pubnames
                0x00001f30       0x55 ../experiment1_bsp//libucosii_bsp.a(altera_avalon_jtag_uart_init.o)
 .debug_pubnames
                0x00001f85       0x34 ../experiment1_bsp//libucosii_bsp.a(altera_avalon_jtag_uart_ioctl.o)
 .debug_pubnames
                0x00001fb9       0x33 ../experiment1_bsp//libucosii_bsp.a(altera_avalon_jtag_uart_read.o)
 .debug_pubnames
                0x00001fec       0x34 ../experiment1_bsp//libucosii_bsp.a(altera_avalon_jtag_uart_write.o)
 .debug_pubnames
                0x00002020       0x96 ../experiment1_bsp//libucosii_bsp.a(altera_avalon_performance_counter.o)
 .debug_pubnames
                0x000020b6       0x2f ../experiment1_bsp//libucosii_bsp.a(altera_avalon_timer_sc.o)
 .debug_pubnames
                0x000020e5      0x1cd ../experiment1_bsp//libucosii_bsp.a(altera_up_avalon_character_lcd.o)
 .debug_pubnames
                0x000022b2       0x26 ../experiment1_bsp//libucosii_bsp.a(alt_alarm_start.o)
 .debug_pubnames
                0x000022d8       0x2b ../experiment1_bsp//libucosii_bsp.a(alt_dcache_flush_all.o)
 .debug_pubnames
                0x00002303       0x2b ../experiment1_bsp//libucosii_bsp.a(alt_dev_llist_insert.o)
 .debug_pubnames
                0x0000232e       0x20 ../experiment1_bsp//libucosii_bsp.a(alt_do_ctors.o)
 .debug_pubnames
                0x0000234e       0x20 ../experiment1_bsp//libucosii_bsp.a(alt_do_dtors.o)
 .debug_pubnames
                0x0000236e       0x23 ../experiment1_bsp//libucosii_bsp.a(alt_find_dev.o)
 .debug_pubnames
                0x00002391       0x2b ../experiment1_bsp//libucosii_bsp.a(alt_icache_flush_all.o)
 .debug_pubnames
                0x000023bc       0x6e ../experiment1_bsp//libucosii_bsp.a(alt_iic.o)
 .debug_pubnames
                0x0000242a       0x2b ../experiment1_bsp//libucosii_bsp.a(alt_iic_isr_register.o)
 .debug_pubnames
                0x00002455       0x26 ../experiment1_bsp//libucosii_bsp.a(alt_io_redirect.o)
 .debug_pubnames
                0x0000247b       0x32 ../experiment1_bsp//libucosii_bsp.a(alt_irq_handler.o)
 .debug_pubnames
                0x000024ad       0x1b ../experiment1_bsp//libucosii_bsp.a(alt_open.o)
 .debug_pubnames
                0x000024c8       0x68 ../experiment1_bsp//libucosii_bsp.a(alt_tick.o)
 .debug_pubnames
                0x00002530       0x31 ../experiment1_bsp//libucosii_bsp.a(altera_nios2_qsys_irq.o)
 .debug_pubnames
                0x00002561       0xcd ../experiment1_bsp//libucosii_bsp.a(os_cpu_c.o)
 .debug_pubnames
                0x0000262e       0x24 ../experiment1_bsp//libucosii_bsp.a(alt_find_file.o)
 .debug_pubnames
                0x00002652       0x21 ../experiment1_bsp//libucosii_bsp.a(alt_get_fd.o)
 .debug_pubnames
                0x00002673       0x2a /tools/altera/12.0/nios2eds/bin/gnu/H-i686-pc-linux-gnu/bin/../lib/gcc/nios2-elf/4.1.2/../../../../nios2-elf/lib/mno-hw-mul/libc.a(lib_a-atexit.o)
 .debug_pubnames
                0x0000269d       0x1b /tools/altera/12.0/nios2eds/bin/gnu/H-i686-pc-linux-gnu/bin/../lib/gcc/nios2-elf/4.1.2/../../../../nios2-elf/lib/mno-hw-mul/libc.a(lib_a-exit.o)
 .debug_pubnames
                0x000026b8       0x1d /tools/altera/12.0/nios2eds/bin/gnu/H-i686-pc-linux-gnu/bin/../lib/gcc/nios2-elf/4.1.2/../../../../nios2-elf/lib/mno-hw-mul/libc.a(lib_a-memcmp.o)
 .debug_pubnames
                0x000026d5       0x2a /tools/altera/12.0/nios2eds/bin/gnu/H-i686-pc-linux-gnu/bin/../lib/gcc/nios2-elf/4.1.2/../../../../nios2-elf/lib/mno-hw-mul/libc.a(lib_a-__atexit.o)
 .debug_pubnames
                0x000026ff       0x27 /tools/altera/12.0/nios2eds/bin/gnu/H-i686-pc-linux-gnu/bin/../lib/gcc/nios2-elf/4.1.2/../../../../nios2-elf/lib/mno-hw-mul/libc.a(lib_a-__call_atexit.o)
 .debug_pubnames
                0x00002726       0x1c ../experiment1_bsp//libucosii_bsp.a(alt_exit.o)

.debug_info     0x00000000    0x36e79
 *(.debug_info .gnu.linkonce.wi.*)
 .debug_info    0x00000000       0x6f ../experiment1_bsp//obj/HAL/src/crt0.o
 .debug_info    0x0000006f      0x3e1 obj/default/PB_button.o
 .debug_info    0x00000450      0xcaa obj/default/alt_ucosii_simple_error_check.o
 .debug_info    0x000010fa      0x877 obj/default/experiment1.o
 .debug_info    0x00001971     0x1020 obj/default/tasks.o
 .debug_info    0x00002991      0x21c /tools/altera/12.0/nios2eds/bin/gnu/H-i686-pc-linux-gnu/bin/../lib/gcc/nios2-elf/4.1.2/mno-hw-mul/libgcc.a(lib2-divmod.o)
 .debug_info    0x00002bad       0xf3 /tools/altera/12.0/nios2eds/bin/gnu/H-i686-pc-linux-gnu/bin/../lib/gcc/nios2-elf/4.1.2/mno-hw-mul/libgcc.a(lib2-mul.o)
 .debug_info    0x00002ca0      0x9e1 /tools/altera/12.0/nios2eds/bin/gnu/H-i686-pc-linux-gnu/bin/../lib/gcc/nios2-elf/4.1.2/../../../../nios2-elf/lib/mno-hw-mul/libc.a(lib_a-fprintf.o)
 .debug_info    0x00003681      0xa83 /tools/altera/12.0/nios2eds/bin/gnu/H-i686-pc-linux-gnu/bin/../lib/gcc/nios2-elf/4.1.2/../../../../nios2-elf/lib/mno-hw-mul/libc.a(lib_a-fwrite.o)
 .debug_info    0x00004104      0x93d /tools/altera/12.0/nios2eds/bin/gnu/H-i686-pc-linux-gnu/bin/../lib/gcc/nios2-elf/4.1.2/../../../../nios2-elf/lib/mno-hw-mul/libc.a(lib_a-impure.o)
 .debug_info    0x00004a41      0x9d1 /tools/altera/12.0/nios2eds/bin/gnu/H-i686-pc-linux-gnu/bin/../lib/gcc/nios2-elf/4.1.2/../../../../nios2-elf/lib/mno-hw-mul/libc.a(lib_a-printf.o)
 .debug_info    0x00005412      0x972 /tools/altera/12.0/nios2eds/bin/gnu/H-i686-pc-linux-gnu/bin/../lib/gcc/nios2-elf/4.1.2/../../../../nios2-elf/lib/mno-hw-mul/libc.a(lib_a-putchar.o)
 .debug_info    0x00005d84      0xa25 /tools/altera/12.0/nios2eds/bin/gnu/H-i686-pc-linux-gnu/bin/../lib/gcc/nios2-elf/4.1.2/../../../../nios2-elf/lib/mno-hw-mul/libc.a(lib_a-puts.o)
 .debug_info    0x000067a9      0x951 /tools/altera/12.0/nios2eds/bin/gnu/H-i686-pc-linux-gnu/bin/../lib/gcc/nios2-elf/4.1.2/../../../../nios2-elf/lib/mno-hw-mul/libc.a(lib_a-rand.o)
 .debug_info    0x000070fa       0xdb /tools/altera/12.0/nios2eds/bin/gnu/H-i686-pc-linux-gnu/bin/../lib/gcc/nios2-elf/4.1.2/../../../../nios2-elf/lib/mno-hw-mul/libc.a(lib_a-strlen.o)
 .debug_info    0x000071d5     0x10d5 /tools/altera/12.0/nios2eds/bin/gnu/H-i686-pc-linux-gnu/bin/../lib/gcc/nios2-elf/4.1.2/../../../../nios2-elf/lib/mno-hw-mul/libc.a(lib_a-vfprintf.o)
 .debug_info    0x000082aa      0x95d /tools/altera/12.0/nios2eds/bin/gnu/H-i686-pc-linux-gnu/bin/../lib/gcc/nios2-elf/4.1.2/../../../../nios2-elf/lib/mno-hw-mul/libc.a(lib_a-wsetup.o)
 .debug_info    0x00008c07      0xd6f /tools/altera/12.0/nios2eds/bin/gnu/H-i686-pc-linux-gnu/bin/../lib/gcc/nios2-elf/4.1.2/../../../../nios2-elf/lib/mno-hw-mul/libc.a(lib_a-dtoa.o)
 .debug_info    0x00009976      0x9fe /tools/altera/12.0/nios2eds/bin/gnu/H-i686-pc-linux-gnu/bin/../lib/gcc/nios2-elf/4.1.2/../../../../nios2-elf/lib/mno-hw-mul/libc.a(lib_a-fflush.o)
 .debug_info    0x0000a374      0xb72 /tools/altera/12.0/nios2eds/bin/gnu/H-i686-pc-linux-gnu/bin/../lib/gcc/nios2-elf/4.1.2/../../../../nios2-elf/lib/mno-hw-mul/libc.a(lib_a-findfp.o)
 .debug_info    0x0000aee6      0xbc9 /tools/altera/12.0/nios2eds/bin/gnu/H-i686-pc-linux-gnu/bin/../lib/gcc/nios2-elf/4.1.2/../../../../nios2-elf/lib/mno-hw-mul/libc.a(lib_a-freer.o)
 .debug_info    0x0000baaf      0xa88 /tools/altera/12.0/nios2eds/bin/gnu/H-i686-pc-linux-gnu/bin/../lib/gcc/nios2-elf/4.1.2/../../../../nios2-elf/lib/mno-hw-mul/libc.a(lib_a-fvwrite.o)
 .debug_info    0x0000c537      0xaed /tools/altera/12.0/nios2eds/bin/gnu/H-i686-pc-linux-gnu/bin/../lib/gcc/nios2-elf/4.1.2/../../../../nios2-elf/lib/mno-hw-mul/libc.a(lib_a-fwalk.o)
 .debug_info    0x0000d024      0xb97 /tools/altera/12.0/nios2eds/bin/gnu/H-i686-pc-linux-gnu/bin/../lib/gcc/nios2-elf/4.1.2/../../../../nios2-elf/lib/mno-hw-mul/libc.a(lib_a-locale.o)
 .debug_info    0x0000dbbb      0xb1a /tools/altera/12.0/nios2eds/bin/gnu/H-i686-pc-linux-gnu/bin/../lib/gcc/nios2-elf/4.1.2/../../../../nios2-elf/lib/mno-hw-mul/libc.a(lib_a-makebuf.o)
 .debug_info    0x0000e6d5      0xcd0 /tools/altera/12.0/nios2eds/bin/gnu/H-i686-pc-linux-gnu/bin/../lib/gcc/nios2-elf/4.1.2/../../../../nios2-elf/lib/mno-hw-mul/libc.a(lib_a-mallocr.o)
 .debug_info    0x0000f3a5      0x138 /tools/altera/12.0/nios2eds/bin/gnu/H-i686-pc-linux-gnu/bin/../lib/gcc/nios2-elf/4.1.2/../../../../nios2-elf/lib/mno-hw-mul/libc.a(lib_a-memchr.o)
 .debug_info    0x0000f4dd      0x106 /tools/altera/12.0/nios2eds/bin/gnu/H-i686-pc-linux-gnu/bin/../lib/gcc/nios2-elf/4.1.2/../../../../nios2-elf/lib/mno-hw-mul/libc.a(lib_a-memcpy.o)
 .debug_info    0x0000f5e3      0x13e /tools/altera/12.0/nios2eds/bin/gnu/H-i686-pc-linux-gnu/bin/../lib/gcc/nios2-elf/4.1.2/../../../../nios2-elf/lib/mno-hw-mul/libc.a(lib_a-memmove.o)
 .debug_info    0x0000f721      0x113 /tools/altera/12.0/nios2eds/bin/gnu/H-i686-pc-linux-gnu/bin/../lib/gcc/nios2-elf/4.1.2/../../../../nios2-elf/lib/mno-hw-mul/libc.a(lib_a-memset.o)
 .debug_info    0x0000f834     0x143b /tools/altera/12.0/nios2eds/bin/gnu/H-i686-pc-linux-gnu/bin/../lib/gcc/nios2-elf/4.1.2/../../../../nios2-elf/lib/mno-hw-mul/libc.a(lib_a-mprec.o)
 .debug_info    0x00010c6f      0x9c1 /tools/altera/12.0/nios2eds/bin/gnu/H-i686-pc-linux-gnu/bin/../lib/gcc/nios2-elf/4.1.2/../../../../nios2-elf/lib/mno-hw-mul/libc.a(lib_a-putc.o)
 .debug_info    0x00011630      0xbd7 /tools/altera/12.0/nios2eds/bin/gnu/H-i686-pc-linux-gnu/bin/../lib/gcc/nios2-elf/4.1.2/../../../../nios2-elf/lib/mno-hw-mul/libc.a(lib_a-reallocr.o)
 .debug_info    0x00012207       0xd7 /tools/altera/12.0/nios2eds/bin/gnu/H-i686-pc-linux-gnu/bin/../lib/gcc/nios2-elf/4.1.2/../../../../nios2-elf/lib/mno-hw-mul/libc.a(lib_a-s_isinfd.o)
 .debug_info    0x000122de       0xd5 /tools/altera/12.0/nios2eds/bin/gnu/H-i686-pc-linux-gnu/bin/../lib/gcc/nios2-elf/4.1.2/../../../../nios2-elf/lib/mno-hw-mul/libc.a(lib_a-s_isnand.o)
 .debug_info    0x000123b3      0x962 /tools/altera/12.0/nios2eds/bin/gnu/H-i686-pc-linux-gnu/bin/../lib/gcc/nios2-elf/4.1.2/../../../../nios2-elf/lib/mno-hw-mul/libc.a(lib_a-sbrkr.o)
 .debug_info    0x00012d15      0xaac /tools/altera/12.0/nios2eds/bin/gnu/H-i686-pc-linux-gnu/bin/../lib/gcc/nios2-elf/4.1.2/../../../../nios2-elf/lib/mno-hw-mul/libc.a(lib_a-stdio.o)
 .debug_info    0x000137c1       0xdd /tools/altera/12.0/nios2eds/bin/gnu/H-i686-pc-linux-gnu/bin/../lib/gcc/nios2-elf/4.1.2/../../../../nios2-elf/lib/mno-hw-mul/libc.a(lib_a-strcmp.o)
 .debug_info    0x0001389e      0x9ae /tools/altera/12.0/nios2eds/bin/gnu/H-i686-pc-linux-gnu/bin/../lib/gcc/nios2-elf/4.1.2/../../../../nios2-elf/lib/mno-hw-mul/libc.a(lib_a-wbuf.o)
 .debug_info    0x0001424c      0x993 /tools/altera/12.0/nios2eds/bin/gnu/H-i686-pc-linux-gnu/bin/../lib/gcc/nios2-elf/4.1.2/../../../../nios2-elf/lib/mno-hw-mul/libc.a(lib_a-writer.o)
 .debug_info    0x00014bdf      0xa1b /tools/altera/12.0/nios2eds/bin/gnu/H-i686-pc-linux-gnu/bin/../lib/gcc/nios2-elf/4.1.2/../../../../nios2-elf/lib/mno-hw-mul/libc.a(lib_a-callocr.o)
 .debug_info    0x000155fa      0x958 /tools/altera/12.0/nios2eds/bin/gnu/H-i686-pc-linux-gnu/bin/../lib/gcc/nios2-elf/4.1.2/../../../../nios2-elf/lib/mno-hw-mul/libc.a(lib_a-closer.o)
 .debug_info    0x00015f52      0x994 /tools/altera/12.0/nios2eds/bin/gnu/H-i686-pc-linux-gnu/bin/../lib/gcc/nios2-elf/4.1.2/../../../../nios2-elf/lib/mno-hw-mul/libc.a(lib_a-fclose.o)
 .debug_info    0x000168e6      0xafc /tools/altera/12.0/nios2eds/bin/gnu/H-i686-pc-linux-gnu/bin/../lib/gcc/nios2-elf/4.1.2/../../../../nios2-elf/lib/mno-hw-mul/libc.a(lib_a-fstatr.o)
 .debug_info    0x000173e2       0x8c /tools/altera/12.0/nios2eds/bin/gnu/H-i686-pc-linux-gnu/bin/../lib/gcc/nios2-elf/4.1.2/../../../../nios2-elf/lib/mno-hw-mul/libc.a(lib_a-int_errno.o)
 .debug_info    0x0001746e      0x958 /tools/altera/12.0/nios2eds/bin/gnu/H-i686-pc-linux-gnu/bin/../lib/gcc/nios2-elf/4.1.2/../../../../nios2-elf/lib/mno-hw-mul/libc.a(lib_a-isattyr.o)
 .debug_info    0x00017dc6      0x981 /tools/altera/12.0/nios2eds/bin/gnu/H-i686-pc-linux-gnu/bin/../lib/gcc/nios2-elf/4.1.2/../../../../nios2-elf/lib/mno-hw-mul/libc.a(lib_a-lseekr.o)
 .debug_info    0x00018747      0x98c /tools/altera/12.0/nios2eds/bin/gnu/H-i686-pc-linux-gnu/bin/../lib/gcc/nios2-elf/4.1.2/../../../../nios2-elf/lib/mno-hw-mul/libc.a(lib_a-readr.o)
 .debug_info    0x000190d3      0x210 /tools/altera/12.0/nios2eds/bin/gnu/H-i686-pc-linux-gnu/bin/../lib/gcc/nios2-elf/4.1.2/mno-hw-mul/libgcc.a(_muldi3.o)
 .debug_info    0x000192e3      0x71c /tools/altera/12.0/nios2eds/bin/gnu/H-i686-pc-linux-gnu/bin/../lib/gcc/nios2-elf/4.1.2/mno-hw-mul/libgcc.a(_udivdi3.o)
 .debug_info    0x000199ff      0x749 /tools/altera/12.0/nios2eds/bin/gnu/H-i686-pc-linux-gnu/bin/../lib/gcc/nios2-elf/4.1.2/mno-hw-mul/libgcc.a(_umoddi3.o)
 .debug_info    0x0001a148      0x493 /tools/altera/12.0/nios2eds/bin/gnu/H-i686-pc-linux-gnu/bin/../lib/gcc/nios2-elf/4.1.2/mno-hw-mul/libgcc.a(_addsub_df.o)
 .debug_info    0x0001a5db      0x488 /tools/altera/12.0/nios2eds/bin/gnu/H-i686-pc-linux-gnu/bin/../lib/gcc/nios2-elf/4.1.2/mno-hw-mul/libgcc.a(_mul_df.o)
 .debug_info    0x0001aa63      0x39b /tools/altera/12.0/nios2eds/bin/gnu/H-i686-pc-linux-gnu/bin/../lib/gcc/nios2-elf/4.1.2/mno-hw-mul/libgcc.a(_div_df.o)
 .debug_info    0x0001adfe      0x29d /tools/altera/12.0/nios2eds/bin/gnu/H-i686-pc-linux-gnu/bin/../lib/gcc/nios2-elf/4.1.2/mno-hw-mul/libgcc.a(_eq_df.o)
 .debug_info    0x0001b09b      0x29d /tools/altera/12.0/nios2eds/bin/gnu/H-i686-pc-linux-gnu/bin/../lib/gcc/nios2-elf/4.1.2/mno-hw-mul/libgcc.a(_ne_df.o)
 .debug_info    0x0001b338      0x29d /tools/altera/12.0/nios2eds/bin/gnu/H-i686-pc-linux-gnu/bin/../lib/gcc/nios2-elf/4.1.2/mno-hw-mul/libgcc.a(_gt_df.o)
 .debug_info    0x0001b5d5      0x29d /tools/altera/12.0/nios2eds/bin/gnu/H-i686-pc-linux-gnu/bin/../lib/gcc/nios2-elf/4.1.2/mno-hw-mul/libgcc.a(_ge_df.o)
 .debug_info    0x0001b872      0x29d /tools/altera/12.0/nios2eds/bin/gnu/H-i686-pc-linux-gnu/bin/../lib/gcc/nios2-elf/4.1.2/mno-hw-mul/libgcc.a(_lt_df.o)
 .debug_info    0x0001bb0f      0x218 /tools/altera/12.0/nios2eds/bin/gnu/H-i686-pc-linux-gnu/bin/../lib/gcc/nios2-elf/4.1.2/mno-hw-mul/libgcc.a(_si_to_df.o)
 .debug_info    0x0001bd27      0x2cd /tools/altera/12.0/nios2eds/bin/gnu/H-i686-pc-linux-gnu/bin/../lib/gcc/nios2-elf/4.1.2/mno-hw-mul/libgcc.a(_df_to_si.o)
 .debug_info    0x0001bff4      0x164 /tools/altera/12.0/nios2eds/bin/gnu/H-i686-pc-linux-gnu/bin/../lib/gcc/nios2-elf/4.1.2/mno-hw-mul/libgcc.a(_thenan_df.o)
 .debug_info    0x0001c158      0x213 /tools/altera/12.0/nios2eds/bin/gnu/H-i686-pc-linux-gnu/bin/../lib/gcc/nios2-elf/4.1.2/mno-hw-mul/libgcc.a(_usi_to_df.o)
 .debug_info    0x0001c36b       0xc9 /tools/altera/12.0/nios2eds/bin/gnu/H-i686-pc-linux-gnu/bin/../lib/gcc/nios2-elf/4.1.2/mno-hw-mul/libgcc.a(_clz.o)
 .debug_info    0x0001c434      0x130 /tools/altera/12.0/nios2eds/bin/gnu/H-i686-pc-linux-gnu/bin/../lib/gcc/nios2-elf/4.1.2/mno-hw-mul/libgcc.a(_clzsi2.o)
 .debug_info    0x0001c564      0x2fc /tools/altera/12.0/nios2eds/bin/gnu/H-i686-pc-linux-gnu/bin/../lib/gcc/nios2-elf/4.1.2/mno-hw-mul/libgcc.a(_pack_df.o)
 .debug_info    0x0001c860      0x268 /tools/altera/12.0/nios2eds/bin/gnu/H-i686-pc-linux-gnu/bin/../lib/gcc/nios2-elf/4.1.2/mno-hw-mul/libgcc.a(_unpack_df.o)
 .debug_info    0x0001cac8      0x21b /tools/altera/12.0/nios2eds/bin/gnu/H-i686-pc-linux-gnu/bin/../lib/gcc/nios2-elf/4.1.2/mno-hw-mul/libgcc.a(_fpcmp_parts_df.o)
 .debug_info    0x0001cce3      0x4af ../experiment1_bsp//libucosii_bsp.a(alt_close.o)
 .debug_info    0x0001d192      0x7d1 ../experiment1_bsp//libucosii_bsp.a(alt_dev.o)
 .debug_info    0x0001d963      0x158 ../experiment1_bsp//libucosii_bsp.a(alt_errno.o)
 .debug_info    0x0001dabb      0x6a8 ../experiment1_bsp//libucosii_bsp.a(alt_fstat.o)
 .debug_info    0x0001e163      0x45e ../experiment1_bsp//libucosii_bsp.a(alt_irq_register.o)
 .debug_info    0x0001e5c1      0x15b ../experiment1_bsp//libucosii_bsp.a(alt_irq_vars.o)
 .debug_info    0x0001e71c      0x6ae ../experiment1_bsp//libucosii_bsp.a(alt_isatty.o)
 .debug_info    0x0001edca      0x281 ../experiment1_bsp//libucosii_bsp.a(alt_load.o)
 .debug_info    0x0001f04b      0x4e2 ../experiment1_bsp//libucosii_bsp.a(alt_lseek.o)
 .debug_info    0x0001f52d      0x3d1 ../experiment1_bsp//libucosii_bsp.a(alt_main.o)
 .debug_info    0x0001f8fe      0x6d2 ../experiment1_bsp//libucosii_bsp.a(alt_read.o)
 .debug_info    0x0001ffd0      0x443 ../experiment1_bsp//libucosii_bsp.a(alt_release_fd.o)
 .debug_info    0x00020413      0x2ab ../experiment1_bsp//libucosii_bsp.a(alt_sbrk.o)
 .debug_info    0x000206be      0x6db ../experiment1_bsp//libucosii_bsp.a(alt_write.o)
 .debug_info    0x00020d99     0x11c7 ../experiment1_bsp//libucosii_bsp.a(alt_env_lock.o)
 .debug_info    0x00021f60     0x1323 ../experiment1_bsp//libucosii_bsp.a(alt_malloc_lock.o)
 .debug_info    0x00023283     0x1bdd ../experiment1_bsp//libucosii_bsp.a(os_core.o)
 .debug_info    0x00024e60     0x1122 ../experiment1_bsp//libucosii_bsp.a(os_dbg.o)
 .debug_info    0x00025f82     0x1238 ../experiment1_bsp//libucosii_bsp.a(os_flag.o)
 .debug_info    0x000271ba      0xd34 ../experiment1_bsp//libucosii_bsp.a(os_mbox.o)
 .debug_info    0x00027eee      0x802 ../experiment1_bsp//libucosii_bsp.a(os_mem.o)
 .debug_info    0x000286f0     0x1072 ../experiment1_bsp//libucosii_bsp.a(os_q.o)
 .debug_info    0x00029762      0xcda ../experiment1_bsp//libucosii_bsp.a(os_sem.o)
 .debug_info    0x0002a43c     0x1350 ../experiment1_bsp//libucosii_bsp.a(os_task.o)
 .debug_info    0x0002b78c      0x9d4 ../experiment1_bsp//libucosii_bsp.a(os_time.o)
 .debug_info    0x0002c160      0x961 ../experiment1_bsp//libucosii_bsp.a(alt_sys_init.o)
 .debug_info    0x0002cac1      0x9c6 ../experiment1_bsp//libucosii_bsp.a(altera_avalon_jtag_uart_fd.o)
 .debug_info    0x0002d487      0x944 ../experiment1_bsp//libucosii_bsp.a(altera_avalon_jtag_uart_init.o)
 .debug_info    0x0002ddcb      0x630 ../experiment1_bsp//libucosii_bsp.a(altera_avalon_jtag_uart_ioctl.o)
 .debug_info    0x0002e3fb      0x7ec ../experiment1_bsp//libucosii_bsp.a(altera_avalon_jtag_uart_read.o)
 .debug_info    0x0002ebe7      0x7e3 ../experiment1_bsp//libucosii_bsp.a(altera_avalon_jtag_uart_write.o)
 .debug_info    0x0002f3ca      0x2a3 ../experiment1_bsp//libucosii_bsp.a(altera_avalon_performance_counter.o)
 .debug_info    0x0002f66d      0x37f ../experiment1_bsp//libucosii_bsp.a(altera_avalon_timer_sc.o)
 .debug_info    0x0002f9ec      0x8f0 ../experiment1_bsp//libucosii_bsp.a(altera_up_avalon_character_lcd.o)
 .debug_info    0x000302dc      0x436 ../experiment1_bsp//libucosii_bsp.a(alt_alarm_start.o)
 .debug_info    0x00030712      0x150 ../experiment1_bsp//libucosii_bsp.a(alt_dcache_flush_all.o)
 .debug_info    0x00030862      0x2ab ../experiment1_bsp//libucosii_bsp.a(alt_dev_llist_insert.o)
 .debug_info    0x00030b0d      0x103 ../experiment1_bsp//libucosii_bsp.a(alt_do_ctors.o)
 .debug_info    0x00030c10      0x102 ../experiment1_bsp//libucosii_bsp.a(alt_do_dtors.o)
 .debug_info    0x00030d12      0x460 ../experiment1_bsp//libucosii_bsp.a(alt_find_dev.o)
 .debug_info    0x00031172      0x150 ../experiment1_bsp//libucosii_bsp.a(alt_icache_flush_all.o)
 .debug_info    0x000312c2      0x487 ../experiment1_bsp//libucosii_bsp.a(alt_iic.o)
 .debug_info    0x00031749      0x308 ../experiment1_bsp//libucosii_bsp.a(alt_iic_isr_register.o)
 .debug_info    0x00031a51      0x6dd ../experiment1_bsp//libucosii_bsp.a(alt_io_redirect.o)
 .debug_info    0x0003212e       0x78 ../experiment1_bsp//libucosii_bsp.a(alt_irq_entry.o)
 .debug_info    0x000321a6      0x2ae ../experiment1_bsp//libucosii_bsp.a(alt_irq_handler.o)
 .debug_info    0x00032454      0x55e ../experiment1_bsp//libucosii_bsp.a(alt_open.o)
 .debug_info    0x000329b2      0x405 ../experiment1_bsp//libucosii_bsp.a(alt_tick.o)
 .debug_info    0x00032db7      0x157 ../experiment1_bsp//libucosii_bsp.a(altera_nios2_qsys_irq.o)
 .debug_info    0x00032f0e       0x77 ../experiment1_bsp//libucosii_bsp.a(os_cpu_a.o)
 .debug_info    0x00032f85     0x12c7 ../experiment1_bsp//libucosii_bsp.a(os_cpu_c.o)
 .debug_info    0x0003424c       0x7e ../experiment1_bsp//libucosii_bsp.a(alt_exception_entry.o)
 .debug_info    0x000342ca      0x467 ../experiment1_bsp//libucosii_bsp.a(alt_find_file.o)
 .debug_info    0x00034731      0x5f9 ../experiment1_bsp//libucosii_bsp.a(alt_get_fd.o)
 .debug_info    0x00034d2a      0x181 /tools/altera/12.0/nios2eds/bin/gnu/H-i686-pc-linux-gnu/bin/../lib/gcc/nios2-elf/4.1.2/../../../../nios2-elf/lib/mno-hw-mul/libc.a(lib_a-atexit.o)
 .debug_info    0x00034eab      0x93f /tools/altera/12.0/nios2eds/bin/gnu/H-i686-pc-linux-gnu/bin/../lib/gcc/nios2-elf/4.1.2/../../../../nios2-elf/lib/mno-hw-mul/libc.a(lib_a-exit.o)
 .debug_info    0x000357ea      0x115 /tools/altera/12.0/nios2eds/bin/gnu/H-i686-pc-linux-gnu/bin/../lib/gcc/nios2-elf/4.1.2/../../../../nios2-elf/lib/mno-hw-mul/libc.a(lib_a-memcmp.o)
 .debug_info    0x000358ff      0x99c /tools/altera/12.0/nios2eds/bin/gnu/H-i686-pc-linux-gnu/bin/../lib/gcc/nios2-elf/4.1.2/../../../../nios2-elf/lib/mno-hw-mul/libc.a(lib_a-__atexit.o)
 .debug_info    0x0003629b      0x9e2 /tools/altera/12.0/nios2eds/bin/gnu/H-i686-pc-linux-gnu/bin/../lib/gcc/nios2-elf/4.1.2/../../../../nios2-elf/lib/mno-hw-mul/libc.a(lib_a-__call_atexit.o)
 .debug_info    0x00036c7d      0x1fc ../experiment1_bsp//libucosii_bsp.a(alt_exit.o)

.debug_abbrev   0x00000000     0xa519
 *(.debug_abbrev)
 .debug_abbrev  0x00000000       0x12 ../experiment1_bsp//obj/HAL/src/crt0.o
 .debug_abbrev  0x00000012       0xf6 obj/default/PB_button.o
 .debug_abbrev  0x00000108      0x195 obj/default/alt_ucosii_simple_error_check.o
 .debug_abbrev  0x0000029d      0x174 obj/default/experiment1.o
 .debug_abbrev  0x00000411      0x1cc obj/default/tasks.o
 .debug_abbrev  0x000005dd       0xe0 /tools/altera/12.0/nios2eds/bin/gnu/H-i686-pc-linux-gnu/bin/../lib/gcc/nios2-elf/4.1.2/mno-hw-mul/libgcc.a(lib2-divmod.o)
 .debug_abbrev  0x000006bd       0x7b /tools/altera/12.0/nios2eds/bin/gnu/H-i686-pc-linux-gnu/bin/../lib/gcc/nios2-elf/4.1.2/mno-hw-mul/libgcc.a(lib2-mul.o)
 .debug_abbrev  0x00000738      0x197 /tools/altera/12.0/nios2eds/bin/gnu/H-i686-pc-linux-gnu/bin/../lib/gcc/nios2-elf/4.1.2/../../../../nios2-elf/lib/mno-hw-mul/libc.a(lib_a-fprintf.o)
 .debug_abbrev  0x000008cf      0x1b1 /tools/altera/12.0/nios2eds/bin/gnu/H-i686-pc-linux-gnu/bin/../lib/gcc/nios2-elf/4.1.2/../../../../nios2-elf/lib/mno-hw-mul/libc.a(lib_a-fwrite.o)
 .debug_abbrev  0x00000a80      0x157 /tools/altera/12.0/nios2eds/bin/gnu/H-i686-pc-linux-gnu/bin/../lib/gcc/nios2-elf/4.1.2/../../../../nios2-elf/lib/mno-hw-mul/libc.a(lib_a-impure.o)
 .debug_abbrev  0x00000bd7      0x191 /tools/altera/12.0/nios2eds/bin/gnu/H-i686-pc-linux-gnu/bin/../lib/gcc/nios2-elf/4.1.2/../../../../nios2-elf/lib/mno-hw-mul/libc.a(lib_a-printf.o)
 .debug_abbrev  0x00000d68      0x170 /tools/altera/12.0/nios2eds/bin/gnu/H-i686-pc-linux-gnu/bin/../lib/gcc/nios2-elf/4.1.2/../../../../nios2-elf/lib/mno-hw-mul/libc.a(lib_a-putchar.o)
 .debug_abbrev  0x00000ed8      0x1ac /tools/altera/12.0/nios2eds/bin/gnu/H-i686-pc-linux-gnu/bin/../lib/gcc/nios2-elf/4.1.2/../../../../nios2-elf/lib/mno-hw-mul/libc.a(lib_a-puts.o)
 .debug_abbrev  0x00001084      0x185 /tools/altera/12.0/nios2eds/bin/gnu/H-i686-pc-linux-gnu/bin/../lib/gcc/nios2-elf/4.1.2/../../../../nios2-elf/lib/mno-hw-mul/libc.a(lib_a-rand.o)
 .debug_abbrev  0x00001209       0x8b /tools/altera/12.0/nios2eds/bin/gnu/H-i686-pc-linux-gnu/bin/../lib/gcc/nios2-elf/4.1.2/../../../../nios2-elf/lib/mno-hw-mul/libc.a(lib_a-strlen.o)
 .debug_abbrev  0x00001294      0x30a /tools/altera/12.0/nios2eds/bin/gnu/H-i686-pc-linux-gnu/bin/../lib/gcc/nios2-elf/4.1.2/../../../../nios2-elf/lib/mno-hw-mul/libc.a(lib_a-vfprintf.o)
 .debug_abbrev  0x0000159e      0x170 /tools/altera/12.0/nios2eds/bin/gnu/H-i686-pc-linux-gnu/bin/../lib/gcc/nios2-elf/4.1.2/../../../../nios2-elf/lib/mno-hw-mul/libc.a(lib_a-wsetup.o)
 .debug_abbrev  0x0000170e      0x232 /tools/altera/12.0/nios2eds/bin/gnu/H-i686-pc-linux-gnu/bin/../lib/gcc/nios2-elf/4.1.2/../../../../nios2-elf/lib/mno-hw-mul/libc.a(lib_a-dtoa.o)
 .debug_abbrev  0x00001940      0x1c6 /tools/altera/12.0/nios2eds/bin/gnu/H-i686-pc-linux-gnu/bin/../lib/gcc/nios2-elf/4.1.2/../../../../nios2-elf/lib/mno-hw-mul/libc.a(lib_a-fflush.o)
 .debug_abbrev  0x00001b06      0x24c /tools/altera/12.0/nios2eds/bin/gnu/H-i686-pc-linux-gnu/bin/../lib/gcc/nios2-elf/4.1.2/../../../../nios2-elf/lib/mno-hw-mul/libc.a(lib_a-findfp.o)
 .debug_abbrev  0x00001d52      0x1d9 /tools/altera/12.0/nios2eds/bin/gnu/H-i686-pc-linux-gnu/bin/../lib/gcc/nios2-elf/4.1.2/../../../../nios2-elf/lib/mno-hw-mul/libc.a(lib_a-freer.o)
 .debug_abbrev  0x00001f2b      0x1a3 /tools/altera/12.0/nios2eds/bin/gnu/H-i686-pc-linux-gnu/bin/../lib/gcc/nios2-elf/4.1.2/../../../../nios2-elf/lib/mno-hw-mul/libc.a(lib_a-fvwrite.o)
 .debug_abbrev  0x000020ce      0x1e3 /tools/altera/12.0/nios2eds/bin/gnu/H-i686-pc-linux-gnu/bin/../lib/gcc/nios2-elf/4.1.2/../../../../nios2-elf/lib/mno-hw-mul/libc.a(lib_a-fwalk.o)
 .debug_abbrev  0x000022b1      0x1ed /tools/altera/12.0/nios2eds/bin/gnu/H-i686-pc-linux-gnu/bin/../lib/gcc/nios2-elf/4.1.2/../../../../nios2-elf/lib/mno-hw-mul/libc.a(lib_a-locale.o)
 .debug_abbrev  0x0000249e      0x197 /tools/altera/12.0/nios2eds/bin/gnu/H-i686-pc-linux-gnu/bin/../lib/gcc/nios2-elf/4.1.2/../../../../nios2-elf/lib/mno-hw-mul/libc.a(lib_a-makebuf.o)
 .debug_abbrev  0x00002635      0x216 /tools/altera/12.0/nios2eds/bin/gnu/H-i686-pc-linux-gnu/bin/../lib/gcc/nios2-elf/4.1.2/../../../../nios2-elf/lib/mno-hw-mul/libc.a(lib_a-mallocr.o)
 .debug_abbrev  0x0000284b       0xb5 /tools/altera/12.0/nios2eds/bin/gnu/H-i686-pc-linux-gnu/bin/../lib/gcc/nios2-elf/4.1.2/../../../../nios2-elf/lib/mno-hw-mul/libc.a(lib_a-memchr.o)
 .debug_abbrev  0x00002900       0xb5 /tools/altera/12.0/nios2eds/bin/gnu/H-i686-pc-linux-gnu/bin/../lib/gcc/nios2-elf/4.1.2/../../../../nios2-elf/lib/mno-hw-mul/libc.a(lib_a-memcpy.o)
 .debug_abbrev  0x000029b5       0xb5 /tools/altera/12.0/nios2eds/bin/gnu/H-i686-pc-linux-gnu/bin/../lib/gcc/nios2-elf/4.1.2/../../../../nios2-elf/lib/mno-hw-mul/libc.a(lib_a-memmove.o)
 .debug_abbrev  0x00002a6a       0xb8 /tools/altera/12.0/nios2eds/bin/gnu/H-i686-pc-linux-gnu/bin/../lib/gcc/nios2-elf/4.1.2/../../../../nios2-elf/lib/mno-hw-mul/libc.a(lib_a-memset.o)
 .debug_abbrev  0x00002b22      0x297 /tools/altera/12.0/nios2eds/bin/gnu/H-i686-pc-linux-gnu/bin/../lib/gcc/nios2-elf/4.1.2/../../../../nios2-elf/lib/mno-hw-mul/libc.a(lib_a-mprec.o)
 .debug_abbrev  0x00002db9      0x17f /tools/altera/12.0/nios2eds/bin/gnu/H-i686-pc-linux-gnu/bin/../lib/gcc/nios2-elf/4.1.2/../../../../nios2-elf/lib/mno-hw-mul/libc.a(lib_a-putc.o)
 .debug_abbrev  0x00002f38      0x1c3 /tools/altera/12.0/nios2eds/bin/gnu/H-i686-pc-linux-gnu/bin/../lib/gcc/nios2-elf/4.1.2/../../../../nios2-elf/lib/mno-hw-mul/libc.a(lib_a-reallocr.o)
 .debug_abbrev  0x000030fb       0x79 /tools/altera/12.0/nios2eds/bin/gnu/H-i686-pc-linux-gnu/bin/../lib/gcc/nios2-elf/4.1.2/../../../../nios2-elf/lib/mno-hw-mul/libc.a(lib_a-s_isinfd.o)
 .debug_abbrev  0x00003174       0x79 /tools/altera/12.0/nios2eds/bin/gnu/H-i686-pc-linux-gnu/bin/../lib/gcc/nios2-elf/4.1.2/../../../../nios2-elf/lib/mno-hw-mul/libc.a(lib_a-s_isnand.o)
 .debug_abbrev  0x000031ed      0x18c /tools/altera/12.0/nios2eds/bin/gnu/H-i686-pc-linux-gnu/bin/../lib/gcc/nios2-elf/4.1.2/../../../../nios2-elf/lib/mno-hw-mul/libc.a(lib_a-sbrkr.o)
 .debug_abbrev  0x00003379      0x1c9 /tools/altera/12.0/nios2eds/bin/gnu/H-i686-pc-linux-gnu/bin/../lib/gcc/nios2-elf/4.1.2/../../../../nios2-elf/lib/mno-hw-mul/libc.a(lib_a-stdio.o)
 .debug_abbrev  0x00003542       0x80 /tools/altera/12.0/nios2eds/bin/gnu/H-i686-pc-linux-gnu/bin/../lib/gcc/nios2-elf/4.1.2/../../../../nios2-elf/lib/mno-hw-mul/libc.a(lib_a-strcmp.o)
 .debug_abbrev  0x000035c2      0x198 /tools/altera/12.0/nios2eds/bin/gnu/H-i686-pc-linux-gnu/bin/../lib/gcc/nios2-elf/4.1.2/../../../../nios2-elf/lib/mno-hw-mul/libc.a(lib_a-wbuf.o)
 .debug_abbrev  0x0000375a      0x184 /tools/altera/12.0/nios2eds/bin/gnu/H-i686-pc-linux-gnu/bin/../lib/gcc/nios2-elf/4.1.2/../../../../nios2-elf/lib/mno-hw-mul/libc.a(lib_a-writer.o)
 .debug_abbrev  0x000038de      0x1b8 /tools/altera/12.0/nios2eds/bin/gnu/H-i686-pc-linux-gnu/bin/../lib/gcc/nios2-elf/4.1.2/../../../../nios2-elf/lib/mno-hw-mul/libc.a(lib_a-callocr.o)
 .debug_abbrev  0x00003a96      0x17f /tools/altera/12.0/nios2eds/bin/gnu/H-i686-pc-linux-gnu/bin/../lib/gcc/nios2-elf/4.1.2/../../../../nios2-elf/lib/mno-hw-mul/libc.a(lib_a-closer.o)
 .debug_abbrev  0x00003c15      0x1a7 /tools/altera/12.0/nios2eds/bin/gnu/H-i686-pc-linux-gnu/bin/../lib/gcc/nios2-elf/4.1.2/../../../../nios2-elf/lib/mno-hw-mul/libc.a(lib_a-fclose.o)
 .debug_abbrev  0x00003dbc      0x18e /tools/altera/12.0/nios2eds/bin/gnu/H-i686-pc-linux-gnu/bin/../lib/gcc/nios2-elf/4.1.2/../../../../nios2-elf/lib/mno-hw-mul/libc.a(lib_a-fstatr.o)
 .debug_abbrev  0x00003f4a       0x3b /tools/altera/12.0/nios2eds/bin/gnu/H-i686-pc-linux-gnu/bin/../lib/gcc/nios2-elf/4.1.2/../../../../nios2-elf/lib/mno-hw-mul/libc.a(lib_a-int_errno.o)
 .debug_abbrev  0x00003f85      0x17f /tools/altera/12.0/nios2eds/bin/gnu/H-i686-pc-linux-gnu/bin/../lib/gcc/nios2-elf/4.1.2/../../../../nios2-elf/lib/mno-hw-mul/libc.a(lib_a-isattyr.o)
 .debug_abbrev  0x00004104      0x18e /tools/altera/12.0/nios2eds/bin/gnu/H-i686-pc-linux-gnu/bin/../lib/gcc/nios2-elf/4.1.2/../../../../nios2-elf/lib/mno-hw-mul/libc.a(lib_a-lseekr.o)
 .debug_abbrev  0x00004292      0x17f /tools/altera/12.0/nios2eds/bin/gnu/H-i686-pc-linux-gnu/bin/../lib/gcc/nios2-elf/4.1.2/../../../../nios2-elf/lib/mno-hw-mul/libc.a(lib_a-readr.o)
 .debug_abbrev  0x00004411       0xfb /tools/altera/12.0/nios2eds/bin/gnu/H-i686-pc-linux-gnu/bin/../lib/gcc/nios2-elf/4.1.2/mno-hw-mul/libgcc.a(_muldi3.o)
 .debug_abbrev  0x0000450c      0x16b /tools/altera/12.0/nios2eds/bin/gnu/H-i686-pc-linux-gnu/bin/../lib/gcc/nios2-elf/4.1.2/mno-hw-mul/libgcc.a(_udivdi3.o)
 .debug_abbrev  0x00004677      0x18e /tools/altera/12.0/nios2eds/bin/gnu/H-i686-pc-linux-gnu/bin/../lib/gcc/nios2-elf/4.1.2/mno-hw-mul/libgcc.a(_umoddi3.o)
 .debug_abbrev  0x00004805      0x1d2 /tools/altera/12.0/nios2eds/bin/gnu/H-i686-pc-linux-gnu/bin/../lib/gcc/nios2-elf/4.1.2/mno-hw-mul/libgcc.a(_addsub_df.o)
 .debug_abbrev  0x000049d7      0x204 /tools/altera/12.0/nios2eds/bin/gnu/H-i686-pc-linux-gnu/bin/../lib/gcc/nios2-elf/4.1.2/mno-hw-mul/libgcc.a(_mul_df.o)
 .debug_abbrev  0x00004bdb      0x1e3 /tools/altera/12.0/nios2eds/bin/gnu/H-i686-pc-linux-gnu/bin/../lib/gcc/nios2-elf/4.1.2/mno-hw-mul/libgcc.a(_div_df.o)
 .debug_abbrev  0x00004dbe      0x151 /tools/altera/12.0/nios2eds/bin/gnu/H-i686-pc-linux-gnu/bin/../lib/gcc/nios2-elf/4.1.2/mno-hw-mul/libgcc.a(_eq_df.o)
 .debug_abbrev  0x00004f0f      0x151 /tools/altera/12.0/nios2eds/bin/gnu/H-i686-pc-linux-gnu/bin/../lib/gcc/nios2-elf/4.1.2/mno-hw-mul/libgcc.a(_ne_df.o)
 .debug_abbrev  0x00005060      0x151 /tools/altera/12.0/nios2eds/bin/gnu/H-i686-pc-linux-gnu/bin/../lib/gcc/nios2-elf/4.1.2/mno-hw-mul/libgcc.a(_gt_df.o)
 .debug_abbrev  0x000051b1      0x151 /tools/altera/12.0/nios2eds/bin/gnu/H-i686-pc-linux-gnu/bin/../lib/gcc/nios2-elf/4.1.2/mno-hw-mul/libgcc.a(_ge_df.o)
 .debug_abbrev  0x00005302      0x151 /tools/altera/12.0/nios2eds/bin/gnu/H-i686-pc-linux-gnu/bin/../lib/gcc/nios2-elf/4.1.2/mno-hw-mul/libgcc.a(_lt_df.o)
 .debug_abbrev  0x00005453      0x13f /tools/altera/12.0/nios2eds/bin/gnu/H-i686-pc-linux-gnu/bin/../lib/gcc/nios2-elf/4.1.2/mno-hw-mul/libgcc.a(_si_to_df.o)
 .debug_abbrev  0x00005592      0x176 /tools/altera/12.0/nios2eds/bin/gnu/H-i686-pc-linux-gnu/bin/../lib/gcc/nios2-elf/4.1.2/mno-hw-mul/libgcc.a(_df_to_si.o)
 .debug_abbrev  0x00005708       0xba /tools/altera/12.0/nios2eds/bin/gnu/H-i686-pc-linux-gnu/bin/../lib/gcc/nios2-elf/4.1.2/mno-hw-mul/libgcc.a(_thenan_df.o)
 .debug_abbrev  0x000057c2      0x155 /tools/altera/12.0/nios2eds/bin/gnu/H-i686-pc-linux-gnu/bin/../lib/gcc/nios2-elf/4.1.2/mno-hw-mul/libgcc.a(_usi_to_df.o)
 .debug_abbrev  0x00005917       0x61 /tools/altera/12.0/nios2eds/bin/gnu/H-i686-pc-linux-gnu/bin/../lib/gcc/nios2-elf/4.1.2/mno-hw-mul/libgcc.a(_clz.o)
 .debug_abbrev  0x00005978       0xb9 /tools/altera/12.0/nios2eds/bin/gnu/H-i686-pc-linux-gnu/bin/../lib/gcc/nios2-elf/4.1.2/mno-hw-mul/libgcc.a(_clzsi2.o)
 .debug_abbrev  0x00005a31      0x1b1 /tools/altera/12.0/nios2eds/bin/gnu/H-i686-pc-linux-gnu/bin/../lib/gcc/nios2-elf/4.1.2/mno-hw-mul/libgcc.a(_pack_df.o)
 .debug_abbrev  0x00005be2      0x149 /tools/altera/12.0/nios2eds/bin/gnu/H-i686-pc-linux-gnu/bin/../lib/gcc/nios2-elf/4.1.2/mno-hw-mul/libgcc.a(_unpack_df.o)
 .debug_abbrev  0x00005d2b      0x132 /tools/altera/12.0/nios2eds/bin/gnu/H-i686-pc-linux-gnu/bin/../lib/gcc/nios2-elf/4.1.2/mno-hw-mul/libgcc.a(_fpcmp_parts_df.o)
 .debug_abbrev  0x00005e5d      0x102 ../experiment1_bsp//libucosii_bsp.a(alt_close.o)
 .debug_abbrev  0x00005f5f      0x10a ../experiment1_bsp//libucosii_bsp.a(alt_dev.o)
 .debug_abbrev  0x00006069       0x5e ../experiment1_bsp//libucosii_bsp.a(alt_errno.o)
 .debug_abbrev  0x000060c7      0x102 ../experiment1_bsp//libucosii_bsp.a(alt_fstat.o)
 .debug_abbrev  0x000061c9      0x180 ../experiment1_bsp//libucosii_bsp.a(alt_irq_register.o)
 .debug_abbrev  0x00006349       0x44 ../experiment1_bsp//libucosii_bsp.a(alt_irq_vars.o)
 .debug_abbrev  0x0000638d      0x102 ../experiment1_bsp//libucosii_bsp.a(alt_isatty.o)
 .debug_abbrev  0x0000648f       0x88 ../experiment1_bsp//libucosii_bsp.a(alt_load.o)
 .debug_abbrev  0x00006517      0x102 ../experiment1_bsp//libucosii_bsp.a(alt_lseek.o)
 .debug_abbrev  0x00006619      0x120 ../experiment1_bsp//libucosii_bsp.a(alt_main.o)
 .debug_abbrev  0x00006739      0x102 ../experiment1_bsp//libucosii_bsp.a(alt_read.o)
 .debug_abbrev  0x0000683b       0xd3 ../experiment1_bsp//libucosii_bsp.a(alt_release_fd.o)
 .debug_abbrev  0x0000690e      0x115 ../experiment1_bsp//libucosii_bsp.a(alt_sbrk.o)
 .debug_abbrev  0x00006a23      0x107 ../experiment1_bsp//libucosii_bsp.a(alt_write.o)
 .debug_abbrev  0x00006b2a      0x1b3 ../experiment1_bsp//libucosii_bsp.a(alt_env_lock.o)
 .debug_abbrev  0x00006cdd      0x234 ../experiment1_bsp//libucosii_bsp.a(alt_malloc_lock.o)
 .debug_abbrev  0x00006f11      0x2aa ../experiment1_bsp//libucosii_bsp.a(os_core.o)
 .debug_abbrev  0x000071bb      0x114 ../experiment1_bsp//libucosii_bsp.a(os_dbg.o)
 .debug_abbrev  0x000072cf      0x21b ../experiment1_bsp//libucosii_bsp.a(os_flag.o)
 .debug_abbrev  0x000074ea      0x1f6 ../experiment1_bsp//libucosii_bsp.a(os_mbox.o)
 .debug_abbrev  0x000076e0      0x235 ../experiment1_bsp//libucosii_bsp.a(os_mem.o)
 .debug_abbrev  0x00007915      0x20d ../experiment1_bsp//libucosii_bsp.a(os_q.o)
 .debug_abbrev  0x00007b22      0x20d ../experiment1_bsp//libucosii_bsp.a(os_sem.o)
 .debug_abbrev  0x00007d2f      0x20e ../experiment1_bsp//libucosii_bsp.a(os_task.o)
 .debug_abbrev  0x00007f3d      0x1de ../experiment1_bsp//libucosii_bsp.a(os_time.o)
 .debug_abbrev  0x0000811b      0x1a3 ../experiment1_bsp//libucosii_bsp.a(alt_sys_init.o)
 .debug_abbrev  0x000082be      0x13c ../experiment1_bsp//libucosii_bsp.a(altera_avalon_jtag_uart_fd.o)
 .debug_abbrev  0x000083fa      0x21e ../experiment1_bsp//libucosii_bsp.a(altera_avalon_jtag_uart_init.o)
 .debug_abbrev  0x00008618      0x135 ../experiment1_bsp//libucosii_bsp.a(altera_avalon_jtag_uart_ioctl.o)
 .debug_abbrev  0x0000874d      0x1ee ../experiment1_bsp//libucosii_bsp.a(altera_avalon_jtag_uart_read.o)
 .debug_abbrev  0x0000893b      0x1ea ../experiment1_bsp//libucosii_bsp.a(altera_avalon_jtag_uart_write.o)
 .debug_abbrev  0x00008b25       0x81 ../experiment1_bsp//libucosii_bsp.a(altera_avalon_performance_counter.o)
 .debug_abbrev  0x00008ba6      0x137 ../experiment1_bsp//libucosii_bsp.a(altera_avalon_timer_sc.o)
 .debug_abbrev  0x00008cdd      0x127 ../experiment1_bsp//libucosii_bsp.a(altera_up_avalon_character_lcd.o)
 .debug_abbrev  0x00008e04      0x172 ../experiment1_bsp//libucosii_bsp.a(alt_alarm_start.o)
 .debug_abbrev  0x00008f76       0x3f ../experiment1_bsp//libucosii_bsp.a(alt_dcache_flush_all.o)
 .debug_abbrev  0x00008fb5       0xf6 ../experiment1_bsp//libucosii_bsp.a(alt_dev_llist_insert.o)
 .debug_abbrev  0x000090ab       0x76 ../experiment1_bsp//libucosii_bsp.a(alt_do_ctors.o)
 .debug_abbrev  0x00009121       0x76 ../experiment1_bsp//libucosii_bsp.a(alt_do_dtors.o)
 .debug_abbrev  0x00009197       0xd6 ../experiment1_bsp//libucosii_bsp.a(alt_find_dev.o)
 .debug_abbrev  0x0000926d       0x3f ../experiment1_bsp//libucosii_bsp.a(alt_icache_flush_all.o)
 .debug_abbrev  0x000092ac      0x134 ../experiment1_bsp//libucosii_bsp.a(alt_iic.o)
 .debug_abbrev  0x000093e0      0x14e ../experiment1_bsp//libucosii_bsp.a(alt_iic_isr_register.o)
 .debug_abbrev  0x0000952e       0xf7 ../experiment1_bsp//libucosii_bsp.a(alt_io_redirect.o)
 .debug_abbrev  0x00009625       0x12 ../experiment1_bsp//libucosii_bsp.a(alt_irq_entry.o)
 .debug_abbrev  0x00009637      0x124 ../experiment1_bsp//libucosii_bsp.a(alt_irq_handler.o)
 .debug_abbrev  0x0000975b      0x119 ../experiment1_bsp//libucosii_bsp.a(alt_open.o)
 .debug_abbrev  0x00009874      0x150 ../experiment1_bsp//libucosii_bsp.a(alt_tick.o)
 .debug_abbrev  0x000099c4       0x3f ../experiment1_bsp//libucosii_bsp.a(altera_nios2_qsys_irq.o)
 .debug_abbrev  0x00009a03       0x14 ../experiment1_bsp//libucosii_bsp.a(os_cpu_a.o)
 .debug_abbrev  0x00009a17      0x1d0 ../experiment1_bsp//libucosii_bsp.a(os_cpu_c.o)
 .debug_abbrev  0x00009be7       0x12 ../experiment1_bsp//libucosii_bsp.a(alt_exception_entry.o)
 .debug_abbrev  0x00009bf9       0xd6 ../experiment1_bsp//libucosii_bsp.a(alt_find_file.o)
 .debug_abbrev  0x00009ccf      0x173 ../experiment1_bsp//libucosii_bsp.a(alt_get_fd.o)
 .debug_abbrev  0x00009e42       0xb7 /tools/altera/12.0/nios2eds/bin/gnu/H-i686-pc-linux-gnu/bin/../lib/gcc/nios2-elf/4.1.2/../../../../nios2-elf/lib/mno-hw-mul/libc.a(lib_a-atexit.o)
 .debug_abbrev  0x00009ef9      0x16e /tools/altera/12.0/nios2eds/bin/gnu/H-i686-pc-linux-gnu/bin/../lib/gcc/nios2-elf/4.1.2/../../../../nios2-elf/lib/mno-hw-mul/libc.a(lib_a-exit.o)
 .debug_abbrev  0x0000a067       0x7c /tools/altera/12.0/nios2eds/bin/gnu/H-i686-pc-linux-gnu/bin/../lib/gcc/nios2-elf/4.1.2/../../../../nios2-elf/lib/mno-hw-mul/libc.a(lib_a-memcmp.o)
 .debug_abbrev  0x0000a0e3      0x1ae /tools/altera/12.0/nios2eds/bin/gnu/H-i686-pc-linux-gnu/bin/../lib/gcc/nios2-elf/4.1.2/../../../../nios2-elf/lib/mno-hw-mul/libc.a(lib_a-__atexit.o)
 .debug_abbrev  0x0000a291      0x1de /tools/altera/12.0/nios2eds/bin/gnu/H-i686-pc-linux-gnu/bin/../lib/gcc/nios2-elf/4.1.2/../../../../nios2-elf/lib/mno-hw-mul/libc.a(lib_a-__call_atexit.o)
 .debug_abbrev  0x0000a46f       0xaa ../experiment1_bsp//libucosii_bsp.a(alt_exit.o)

.debug_line     0x00000000    0x1eaf2
 *(.debug_line)
 .debug_line    0x00000000       0x66 ../experiment1_bsp//obj/HAL/src/crt0.o
 .debug_line    0x00000066      0x414 obj/default/PB_button.o
 .debug_line    0x0000047a      0x403 obj/default/alt_ucosii_simple_error_check.o
 .debug_line    0x0000087d      0x4ce obj/default/experiment1.o
 .debug_line    0x00000d4b      0xd1e obj/default/tasks.o
 .debug_line    0x00001a69      0x2c3 /tools/altera/12.0/nios2eds/bin/gnu/H-i686-pc-linux-gnu/bin/../lib/gcc/nios2-elf/4.1.2/mno-hw-mul/libgcc.a(lib2-divmod.o)
 .debug_line    0x00001d2c      0x18e /tools/altera/12.0/nios2eds/bin/gnu/H-i686-pc-linux-gnu/bin/../lib/gcc/nios2-elf/4.1.2/mno-hw-mul/libgcc.a(lib2-mul.o)
 .debug_line    0x00001eba      0x281 /tools/altera/12.0/nios2eds/bin/gnu/H-i686-pc-linux-gnu/bin/../lib/gcc/nios2-elf/4.1.2/../../../../nios2-elf/lib/mno-hw-mul/libc.a(lib_a-fprintf.o)
 .debug_line    0x0000213b      0x2de /tools/altera/12.0/nios2eds/bin/gnu/H-i686-pc-linux-gnu/bin/../lib/gcc/nios2-elf/4.1.2/../../../../nios2-elf/lib/mno-hw-mul/libc.a(lib_a-fwrite.o)
 .debug_line    0x00002419      0x227 /tools/altera/12.0/nios2eds/bin/gnu/H-i686-pc-linux-gnu/bin/../lib/gcc/nios2-elf/4.1.2/../../../../nios2-elf/lib/mno-hw-mul/libc.a(lib_a-impure.o)
 .debug_line    0x00002640      0x298 /tools/altera/12.0/nios2eds/bin/gnu/H-i686-pc-linux-gnu/bin/../lib/gcc/nios2-elf/4.1.2/../../../../nios2-elf/lib/mno-hw-mul/libc.a(lib_a-printf.o)
 .debug_line    0x000028d8      0x261 /tools/altera/12.0/nios2eds/bin/gnu/H-i686-pc-linux-gnu/bin/../lib/gcc/nios2-elf/4.1.2/../../../../nios2-elf/lib/mno-hw-mul/libc.a(lib_a-putchar.o)
 .debug_line    0x00002b39      0x2f4 /tools/altera/12.0/nios2eds/bin/gnu/H-i686-pc-linux-gnu/bin/../lib/gcc/nios2-elf/4.1.2/../../../../nios2-elf/lib/mno-hw-mul/libc.a(lib_a-puts.o)
 .debug_line    0x00002e2d      0x23a /tools/altera/12.0/nios2eds/bin/gnu/H-i686-pc-linux-gnu/bin/../lib/gcc/nios2-elf/4.1.2/../../../../nios2-elf/lib/mno-hw-mul/libc.a(lib_a-rand.o)
 .debug_line    0x00003067      0x267 /tools/altera/12.0/nios2eds/bin/gnu/H-i686-pc-linux-gnu/bin/../lib/gcc/nios2-elf/4.1.2/../../../../nios2-elf/lib/mno-hw-mul/libc.a(lib_a-strlen.o)
 .debug_line    0x000032ce     0x1109 /tools/altera/12.0/nios2eds/bin/gnu/H-i686-pc-linux-gnu/bin/../lib/gcc/nios2-elf/4.1.2/../../../../nios2-elf/lib/mno-hw-mul/libc.a(lib_a-vfprintf.o)
 .debug_line    0x000043d7      0x2ed /tools/altera/12.0/nios2eds/bin/gnu/H-i686-pc-linux-gnu/bin/../lib/gcc/nios2-elf/4.1.2/../../../../nios2-elf/lib/mno-hw-mul/libc.a(lib_a-wsetup.o)
 .debug_line    0x000046c4     0x1303 /tools/altera/12.0/nios2eds/bin/gnu/H-i686-pc-linux-gnu/bin/../lib/gcc/nios2-elf/4.1.2/../../../../nios2-elf/lib/mno-hw-mul/libc.a(lib_a-dtoa.o)
 .debug_line    0x000059c7      0x40a /tools/altera/12.0/nios2eds/bin/gnu/H-i686-pc-linux-gnu/bin/../lib/gcc/nios2-elf/4.1.2/../../../../nios2-elf/lib/mno-hw-mul/libc.a(lib_a-fflush.o)
 .debug_line    0x00005dd1      0x606 /tools/altera/12.0/nios2eds/bin/gnu/H-i686-pc-linux-gnu/bin/../lib/gcc/nios2-elf/4.1.2/../../../../nios2-elf/lib/mno-hw-mul/libc.a(lib_a-findfp.o)
 .debug_line    0x000063d7      0x5e8 /tools/altera/12.0/nios2eds/bin/gnu/H-i686-pc-linux-gnu/bin/../lib/gcc/nios2-elf/4.1.2/../../../../nios2-elf/lib/mno-hw-mul/libc.a(lib_a-freer.o)
 .debug_line    0x000069bf      0x63e /tools/altera/12.0/nios2eds/bin/gnu/H-i686-pc-linux-gnu/bin/../lib/gcc/nios2-elf/4.1.2/../../../../nios2-elf/lib/mno-hw-mul/libc.a(lib_a-fvwrite.o)
 .debug_line    0x00006ffd      0x347 /tools/altera/12.0/nios2eds/bin/gnu/H-i686-pc-linux-gnu/bin/../lib/gcc/nios2-elf/4.1.2/../../../../nios2-elf/lib/mno-hw-mul/libc.a(lib_a-fwalk.o)
 .debug_line    0x00007344      0x2c5 /tools/altera/12.0/nios2eds/bin/gnu/H-i686-pc-linux-gnu/bin/../lib/gcc/nios2-elf/4.1.2/../../../../nios2-elf/lib/mno-hw-mul/libc.a(lib_a-locale.o)
 .debug_line    0x00007609      0x3c0 /tools/altera/12.0/nios2eds/bin/gnu/H-i686-pc-linux-gnu/bin/../lib/gcc/nios2-elf/4.1.2/../../../../nios2-elf/lib/mno-hw-mul/libc.a(lib_a-makebuf.o)
 .debug_line    0x000079c9      0x807 /tools/altera/12.0/nios2eds/bin/gnu/H-i686-pc-linux-gnu/bin/../lib/gcc/nios2-elf/4.1.2/../../../../nios2-elf/lib/mno-hw-mul/libc.a(lib_a-mallocr.o)
 .debug_line    0x000081d0      0x2fd /tools/altera/12.0/nios2eds/bin/gnu/H-i686-pc-linux-gnu/bin/../lib/gcc/nios2-elf/4.1.2/../../../../nios2-elf/lib/mno-hw-mul/libc.a(lib_a-memchr.o)
 .debug_line    0x000084cd      0x1ac /tools/altera/12.0/nios2eds/bin/gnu/H-i686-pc-linux-gnu/bin/../lib/gcc/nios2-elf/4.1.2/../../../../nios2-elf/lib/mno-hw-mul/libc.a(lib_a-memcpy.o)
 .debug_line    0x00008679      0x304 /tools/altera/12.0/nios2eds/bin/gnu/H-i686-pc-linux-gnu/bin/../lib/gcc/nios2-elf/4.1.2/../../../../nios2-elf/lib/mno-hw-mul/libc.a(lib_a-memmove.o)
 .debug_line    0x0000897d      0x2fb /tools/altera/12.0/nios2eds/bin/gnu/H-i686-pc-linux-gnu/bin/../lib/gcc/nios2-elf/4.1.2/../../../../nios2-elf/lib/mno-hw-mul/libc.a(lib_a-memset.o)
 .debug_line    0x00008c78     0x1258 /tools/altera/12.0/nios2eds/bin/gnu/H-i686-pc-linux-gnu/bin/../lib/gcc/nios2-elf/4.1.2/../../../../nios2-elf/lib/mno-hw-mul/libc.a(lib_a-mprec.o)
 .debug_line    0x00009ed0      0x2c1 /tools/altera/12.0/nios2eds/bin/gnu/H-i686-pc-linux-gnu/bin/../lib/gcc/nios2-elf/4.1.2/../../../../nios2-elf/lib/mno-hw-mul/libc.a(lib_a-putc.o)
 .debug_line    0x0000a191      0x587 /tools/altera/12.0/nios2eds/bin/gnu/H-i686-pc-linux-gnu/bin/../lib/gcc/nios2-elf/4.1.2/../../../../nios2-elf/lib/mno-hw-mul/libc.a(lib_a-reallocr.o)
 .debug_line    0x0000a718      0x21f /tools/altera/12.0/nios2eds/bin/gnu/H-i686-pc-linux-gnu/bin/../lib/gcc/nios2-elf/4.1.2/../../../../nios2-elf/lib/mno-hw-mul/libc.a(lib_a-s_isinfd.o)
 .debug_line    0x0000a937      0x217 /tools/altera/12.0/nios2eds/bin/gnu/H-i686-pc-linux-gnu/bin/../lib/gcc/nios2-elf/4.1.2/../../../../nios2-elf/lib/mno-hw-mul/libc.a(lib_a-s_isnand.o)
 .debug_line    0x0000ab4e      0x293 /tools/altera/12.0/nios2eds/bin/gnu/H-i686-pc-linux-gnu/bin/../lib/gcc/nios2-elf/4.1.2/../../../../nios2-elf/lib/mno-hw-mul/libc.a(lib_a-sbrkr.o)
 .debug_line    0x0000ade1      0x389 /tools/altera/12.0/nios2eds/bin/gnu/H-i686-pc-linux-gnu/bin/../lib/gcc/nios2-elf/4.1.2/../../../../nios2-elf/lib/mno-hw-mul/libc.a(lib_a-stdio.o)
 .debug_line    0x0000b16a      0x2cf /tools/altera/12.0/nios2eds/bin/gnu/H-i686-pc-linux-gnu/bin/../lib/gcc/nios2-elf/4.1.2/../../../../nios2-elf/lib/mno-hw-mul/libc.a(lib_a-strcmp.o)
 .debug_line    0x0000b439      0x34d /tools/altera/12.0/nios2eds/bin/gnu/H-i686-pc-linux-gnu/bin/../lib/gcc/nios2-elf/4.1.2/../../../../nios2-elf/lib/mno-hw-mul/libc.a(lib_a-wbuf.o)
 .debug_line    0x0000b786      0x294 /tools/altera/12.0/nios2eds/bin/gnu/H-i686-pc-linux-gnu/bin/../lib/gcc/nios2-elf/4.1.2/../../../../nios2-elf/lib/mno-hw-mul/libc.a(lib_a-writer.o)
 .debug_line    0x0000ba1a      0x259 /tools/altera/12.0/nios2eds/bin/gnu/H-i686-pc-linux-gnu/bin/../lib/gcc/nios2-elf/4.1.2/../../../../nios2-elf/lib/mno-hw-mul/libc.a(lib_a-callocr.o)
 .debug_line    0x0000bc73      0x294 /tools/altera/12.0/nios2eds/bin/gnu/H-i686-pc-linux-gnu/bin/../lib/gcc/nios2-elf/4.1.2/../../../../nios2-elf/lib/mno-hw-mul/libc.a(lib_a-closer.o)
 .debug_line    0x0000bf07      0x2e5 /tools/altera/12.0/nios2eds/bin/gnu/H-i686-pc-linux-gnu/bin/../lib/gcc/nios2-elf/4.1.2/../../../../nios2-elf/lib/mno-hw-mul/libc.a(lib_a-fclose.o)
 .debug_line    0x0000c1ec      0x261 /tools/altera/12.0/nios2eds/bin/gnu/H-i686-pc-linux-gnu/bin/../lib/gcc/nios2-elf/4.1.2/../../../../nios2-elf/lib/mno-hw-mul/libc.a(lib_a-fstatr.o)
 .debug_line    0x0000c44d      0x1dc /tools/altera/12.0/nios2eds/bin/gnu/H-i686-pc-linux-gnu/bin/../lib/gcc/nios2-elf/4.1.2/../../../../nios2-elf/lib/mno-hw-mul/libc.a(lib_a-int_errno.o)
 .debug_line    0x0000c629      0x295 /tools/altera/12.0/nios2eds/bin/gnu/H-i686-pc-linux-gnu/bin/../lib/gcc/nios2-elf/4.1.2/../../../../nios2-elf/lib/mno-hw-mul/libc.a(lib_a-isattyr.o)
 .debug_line    0x0000c8be      0x294 /tools/altera/12.0/nios2eds/bin/gnu/H-i686-pc-linux-gnu/bin/../lib/gcc/nios2-elf/4.1.2/../../../../nios2-elf/lib/mno-hw-mul/libc.a(lib_a-lseekr.o)
 .debug_line    0x0000cb52      0x293 /tools/altera/12.0/nios2eds/bin/gnu/H-i686-pc-linux-gnu/bin/../lib/gcc/nios2-elf/4.1.2/../../../../nios2-elf/lib/mno-hw-mul/libc.a(lib_a-readr.o)
 .debug_line    0x0000cde5      0x1c3 /tools/altera/12.0/nios2eds/bin/gnu/H-i686-pc-linux-gnu/bin/../lib/gcc/nios2-elf/4.1.2/mno-hw-mul/libgcc.a(_muldi3.o)
 .debug_line    0x0000cfa8      0x366 /tools/altera/12.0/nios2eds/bin/gnu/H-i686-pc-linux-gnu/bin/../lib/gcc/nios2-elf/4.1.2/mno-hw-mul/libgcc.a(_udivdi3.o)
 .debug_line    0x0000d30e      0x479 /tools/altera/12.0/nios2eds/bin/gnu/H-i686-pc-linux-gnu/bin/../lib/gcc/nios2-elf/4.1.2/mno-hw-mul/libgcc.a(_umoddi3.o)
 .debug_line    0x0000d787      0x430 /tools/altera/12.0/nios2eds/bin/gnu/H-i686-pc-linux-gnu/bin/../lib/gcc/nios2-elf/4.1.2/mno-hw-mul/libgcc.a(_addsub_df.o)
 .debug_line    0x0000dbb7      0x3e5 /tools/altera/12.0/nios2eds/bin/gnu/H-i686-pc-linux-gnu/bin/../lib/gcc/nios2-elf/4.1.2/mno-hw-mul/libgcc.a(_mul_df.o)
 .debug_line    0x0000df9c      0x301 /tools/altera/12.0/nios2eds/bin/gnu/H-i686-pc-linux-gnu/bin/../lib/gcc/nios2-elf/4.1.2/mno-hw-mul/libgcc.a(_div_df.o)
 .debug_line    0x0000e29d      0x129 /tools/altera/12.0/nios2eds/bin/gnu/H-i686-pc-linux-gnu/bin/../lib/gcc/nios2-elf/4.1.2/mno-hw-mul/libgcc.a(_eq_df.o)
 .debug_line    0x0000e3c6      0x129 /tools/altera/12.0/nios2eds/bin/gnu/H-i686-pc-linux-gnu/bin/../lib/gcc/nios2-elf/4.1.2/mno-hw-mul/libgcc.a(_ne_df.o)
 .debug_line    0x0000e4ef      0x129 /tools/altera/12.0/nios2eds/bin/gnu/H-i686-pc-linux-gnu/bin/../lib/gcc/nios2-elf/4.1.2/mno-hw-mul/libgcc.a(_gt_df.o)
 .debug_line    0x0000e618      0x129 /tools/altera/12.0/nios2eds/bin/gnu/H-i686-pc-linux-gnu/bin/../lib/gcc/nios2-elf/4.1.2/mno-hw-mul/libgcc.a(_ge_df.o)
 .debug_line    0x0000e741      0x129 /tools/altera/12.0/nios2eds/bin/gnu/H-i686-pc-linux-gnu/bin/../lib/gcc/nios2-elf/4.1.2/mno-hw-mul/libgcc.a(_lt_df.o)
 .debug_line    0x0000e86a      0x175 /tools/altera/12.0/nios2eds/bin/gnu/H-i686-pc-linux-gnu/bin/../lib/gcc/nios2-elf/4.1.2/mno-hw-mul/libgcc.a(_si_to_df.o)
 .debug_line    0x0000e9df      0x149 /tools/altera/12.0/nios2eds/bin/gnu/H-i686-pc-linux-gnu/bin/../lib/gcc/nios2-elf/4.1.2/mno-hw-mul/libgcc.a(_df_to_si.o)
 .debug_line    0x0000eb28       0x94 /tools/altera/12.0/nios2eds/bin/gnu/H-i686-pc-linux-gnu/bin/../lib/gcc/nios2-elf/4.1.2/mno-hw-mul/libgcc.a(_thenan_df.o)
 .debug_line    0x0000ebbc      0x189 /tools/altera/12.0/nios2eds/bin/gnu/H-i686-pc-linux-gnu/bin/../lib/gcc/nios2-elf/4.1.2/mno-hw-mul/libgcc.a(_usi_to_df.o)
 .debug_line    0x0000ed45      0x11e /tools/altera/12.0/nios2eds/bin/gnu/H-i686-pc-linux-gnu/bin/../lib/gcc/nios2-elf/4.1.2/mno-hw-mul/libgcc.a(_clz.o)
 .debug_line    0x0000ee63      0x179 /tools/altera/12.0/nios2eds/bin/gnu/H-i686-pc-linux-gnu/bin/../lib/gcc/nios2-elf/4.1.2/mno-hw-mul/libgcc.a(_clzsi2.o)
 .debug_line    0x0000efdc      0x222 /tools/altera/12.0/nios2eds/bin/gnu/H-i686-pc-linux-gnu/bin/../lib/gcc/nios2-elf/4.1.2/mno-hw-mul/libgcc.a(_pack_df.o)
 .debug_line    0x0000f1fe      0x1e4 /tools/altera/12.0/nios2eds/bin/gnu/H-i686-pc-linux-gnu/bin/../lib/gcc/nios2-elf/4.1.2/mno-hw-mul/libgcc.a(_unpack_df.o)
 .debug_line    0x0000f3e2      0x187 /tools/altera/12.0/nios2eds/bin/gnu/H-i686-pc-linux-gnu/bin/../lib/gcc/nios2-elf/4.1.2/mno-hw-mul/libgcc.a(_fpcmp_parts_df.o)
 .debug_line    0x0000f569      0x305 ../experiment1_bsp//libucosii_bsp.a(alt_close.o)
 .debug_line    0x0000f86e      0x2c6 ../experiment1_bsp//libucosii_bsp.a(alt_dev.o)
 .debug_line    0x0000fb34      0x1b6 ../experiment1_bsp//libucosii_bsp.a(alt_errno.o)
 .debug_line    0x0000fcea      0x30d ../experiment1_bsp//libucosii_bsp.a(alt_fstat.o)
 .debug_line    0x0000fff7      0x379 ../experiment1_bsp//libucosii_bsp.a(alt_irq_register.o)
 .debug_line    0x00010370       0x72 ../experiment1_bsp//libucosii_bsp.a(alt_irq_vars.o)
 .debug_line    0x000103e2      0x30e ../experiment1_bsp//libucosii_bsp.a(alt_isatty.o)
 .debug_line    0x000106f0      0x223 ../experiment1_bsp//libucosii_bsp.a(alt_load.o)
 .debug_line    0x00010913      0x30d ../experiment1_bsp//libucosii_bsp.a(alt_lseek.o)
 .debug_line    0x00010c20      0x355 ../experiment1_bsp//libucosii_bsp.a(alt_main.o)
 .debug_line    0x00010f75      0x334 ../experiment1_bsp//libucosii_bsp.a(alt_read.o)
 .debug_line    0x000112a9      0x285 ../experiment1_bsp//libucosii_bsp.a(alt_release_fd.o)
 .debug_line    0x0001152e      0x26d ../experiment1_bsp//libucosii_bsp.a(alt_sbrk.o)
 .debug_line    0x0001179b      0x335 ../experiment1_bsp//libucosii_bsp.a(alt_write.o)
 .debug_line    0x00011ad0      0x2cb ../experiment1_bsp//libucosii_bsp.a(alt_env_lock.o)
 .debug_line    0x00011d9b      0x387 ../experiment1_bsp//libucosii_bsp.a(alt_malloc_lock.o)
 .debug_line    0x00012122     0x166f ../experiment1_bsp//libucosii_bsp.a(os_core.o)
 .debug_line    0x00013791      0x394 ../experiment1_bsp//libucosii_bsp.a(os_dbg.o)
 .debug_line    0x00013b25     0x11f3 ../experiment1_bsp//libucosii_bsp.a(os_flag.o)
 .debug_line    0x00014d18      0xac2 ../experiment1_bsp//libucosii_bsp.a(os_mbox.o)
 .debug_line    0x000157da      0x796 ../experiment1_bsp//libucosii_bsp.a(os_mem.o)
 .debug_line    0x00015f70      0xe77 ../experiment1_bsp//libucosii_bsp.a(os_q.o)
 .debug_line    0x00016de7      0xa2f ../experiment1_bsp//libucosii_bsp.a(os_sem.o)
 .debug_line    0x00017816     0x1138 ../experiment1_bsp//libucosii_bsp.a(os_task.o)
 .debug_line    0x0001894e      0x53b ../experiment1_bsp//libucosii_bsp.a(os_time.o)
 .debug_line    0x00018e89      0x339 ../experiment1_bsp//libucosii_bsp.a(alt_sys_init.o)
 .debug_line    0x000191c2      0x325 ../experiment1_bsp//libucosii_bsp.a(altera_avalon_jtag_uart_fd.o)
 .debug_line    0x000194e7      0x5a4 ../experiment1_bsp//libucosii_bsp.a(altera_avalon_jtag_uart_init.o)
 .debug_line    0x00019a8b      0x362 ../experiment1_bsp//libucosii_bsp.a(altera_avalon_jtag_uart_ioctl.o)
 .debug_line    0x00019ded      0x4a0 ../experiment1_bsp//libucosii_bsp.a(altera_avalon_jtag_uart_read.o)
 .debug_line    0x0001a28d      0x4ae ../experiment1_bsp//libucosii_bsp.a(altera_avalon_jtag_uart_write.o)
 .debug_line    0x0001a73b      0x12d ../experiment1_bsp//libucosii_bsp.a(altera_avalon_performance_counter.o)
 .debug_line    0x0001a868      0x2bf ../experiment1_bsp//libucosii_bsp.a(altera_avalon_timer_sc.o)
 .debug_line    0x0001ab27      0x4d1 ../experiment1_bsp//libucosii_bsp.a(altera_up_avalon_character_lcd.o)
 .debug_line    0x0001aff8      0x2e8 ../experiment1_bsp//libucosii_bsp.a(alt_alarm_start.o)
 .debug_line    0x0001b2e0      0x1c1 ../experiment1_bsp//libucosii_bsp.a(alt_dcache_flush_all.o)
 .debug_line    0x0001b4a1      0x266 ../experiment1_bsp//libucosii_bsp.a(alt_dev_llist_insert.o)
 .debug_line    0x0001b707       0x83 ../experiment1_bsp//libucosii_bsp.a(alt_do_ctors.o)
 .debug_line    0x0001b78a       0x83 ../experiment1_bsp//libucosii_bsp.a(alt_do_dtors.o)
 .debug_line    0x0001b80d      0x2e6 ../experiment1_bsp//libucosii_bsp.a(alt_find_dev.o)
 .debug_line    0x0001baf3      0x1c1 ../experiment1_bsp//libucosii_bsp.a(alt_icache_flush_all.o)
 .debug_line    0x0001bcb4      0x2d4 ../experiment1_bsp//libucosii_bsp.a(alt_iic.o)
 .debug_line    0x0001bf88      0x255 ../experiment1_bsp//libucosii_bsp.a(alt_iic_isr_register.o)
 .debug_line    0x0001c1dd      0x32f ../experiment1_bsp//libucosii_bsp.a(alt_io_redirect.o)
 .debug_line    0x0001c50c       0x6b ../experiment1_bsp//libucosii_bsp.a(alt_irq_entry.o)
 .debug_line    0x0001c577      0x2d0 ../experiment1_bsp//libucosii_bsp.a(alt_irq_handler.o)
 .debug_line    0x0001c847      0x36b ../experiment1_bsp//libucosii_bsp.a(alt_open.o)
 .debug_line    0x0001cbb2      0x322 ../experiment1_bsp//libucosii_bsp.a(alt_tick.o)
 .debug_line    0x0001ced4      0x1da ../experiment1_bsp//libucosii_bsp.a(altera_nios2_qsys_irq.o)
 .debug_line    0x0001d0ae       0x86 ../experiment1_bsp//libucosii_bsp.a(os_cpu_a.o)
 .debug_line    0x0001d134      0x334 ../experiment1_bsp//libucosii_bsp.a(os_cpu_c.o)
 .debug_line    0x0001d468       0xab ../experiment1_bsp//libucosii_bsp.a(alt_exception_entry.o)
 .debug_line    0x0001d513      0x2f7 ../experiment1_bsp//libucosii_bsp.a(alt_find_file.o)
 .debug_line    0x0001d80a      0x327 ../experiment1_bsp//libucosii_bsp.a(alt_get_fd.o)
 .debug_line    0x0001db31      0x1fd /tools/altera/12.0/nios2eds/bin/gnu/H-i686-pc-linux-gnu/bin/../lib/gcc/nios2-elf/4.1.2/../../../../nios2-elf/lib/mno-hw-mul/libc.a(lib_a-atexit.o)
 .debug_line    0x0001dd2e      0x235 /tools/altera/12.0/nios2eds/bin/gnu/H-i686-pc-linux-gnu/bin/../lib/gcc/nios2-elf/4.1.2/../../../../nios2-elf/lib/mno-hw-mul/libc.a(lib_a-exit.o)
 .debug_line    0x0001df63      0x299 /tools/altera/12.0/nios2eds/bin/gnu/H-i686-pc-linux-gnu/bin/../lib/gcc/nios2-elf/4.1.2/../../../../nios2-elf/lib/mno-hw-mul/libc.a(lib_a-memcmp.o)
 .debug_line    0x0001e1fc      0x310 /tools/altera/12.0/nios2eds/bin/gnu/H-i686-pc-linux-gnu/bin/../lib/gcc/nios2-elf/4.1.2/../../../../nios2-elf/lib/mno-hw-mul/libc.a(lib_a-__atexit.o)
 .debug_line    0x0001e50c      0x364 /tools/altera/12.0/nios2eds/bin/gnu/H-i686-pc-linux-gnu/bin/../lib/gcc/nios2-elf/4.1.2/../../../../nios2-elf/lib/mno-hw-mul/libc.a(lib_a-__call_atexit.o)
 .debug_line    0x0001e870      0x282 ../experiment1_bsp//libucosii_bsp.a(alt_exit.o)

.debug_frame    0x00000000     0x2b78
 *(.debug_frame)
 .debug_frame   0x00000000       0xb8 obj/default/PB_button.o
 .debug_frame   0x000000b8       0x48 obj/default/alt_ucosii_simple_error_check.o
 .debug_frame   0x00000100       0x84 obj/default/experiment1.o
 .debug_frame   0x00000184      0x12c obj/default/tasks.o
 .debug_frame   0x000002b0       0x70 /tools/altera/12.0/nios2eds/bin/gnu/H-i686-pc-linux-gnu/bin/../lib/gcc/nios2-elf/4.1.2/mno-hw-mul/libgcc.a(lib2-divmod.o)
 .debug_frame   0x00000320       0x20 /tools/altera/12.0/nios2eds/bin/gnu/H-i686-pc-linux-gnu/bin/../lib/gcc/nios2-elf/4.1.2/mno-hw-mul/libgcc.a(lib2-mul.o)
 .debug_frame   0x00000340       0x40 /tools/altera/12.0/nios2eds/bin/gnu/H-i686-pc-linux-gnu/bin/../lib/gcc/nios2-elf/4.1.2/../../../../nios2-elf/lib/mno-hw-mul/libc.a(lib_a-fprintf.o)
 .debug_frame   0x00000380       0x48 /tools/altera/12.0/nios2eds/bin/gnu/H-i686-pc-linux-gnu/bin/../lib/gcc/nios2-elf/4.1.2/../../../../nios2-elf/lib/mno-hw-mul/libc.a(lib_a-fwrite.o)
 .debug_frame   0x000003c8       0x40 /tools/altera/12.0/nios2eds/bin/gnu/H-i686-pc-linux-gnu/bin/../lib/gcc/nios2-elf/4.1.2/../../../../nios2-elf/lib/mno-hw-mul/libc.a(lib_a-printf.o)
 .debug_frame   0x00000408       0x30 /tools/altera/12.0/nios2eds/bin/gnu/H-i686-pc-linux-gnu/bin/../lib/gcc/nios2-elf/4.1.2/../../../../nios2-elf/lib/mno-hw-mul/libc.a(lib_a-putchar.o)
 .debug_frame   0x00000438       0x3c /tools/altera/12.0/nios2eds/bin/gnu/H-i686-pc-linux-gnu/bin/../lib/gcc/nios2-elf/4.1.2/../../../../nios2-elf/lib/mno-hw-mul/libc.a(lib_a-puts.o)
 .debug_frame   0x00000474       0x3c /tools/altera/12.0/nios2eds/bin/gnu/H-i686-pc-linux-gnu/bin/../lib/gcc/nios2-elf/4.1.2/../../../../nios2-elf/lib/mno-hw-mul/libc.a(lib_a-rand.o)
 .debug_frame   0x000004b0       0x20 /tools/altera/12.0/nios2eds/bin/gnu/H-i686-pc-linux-gnu/bin/../lib/gcc/nios2-elf/4.1.2/../../../../nios2-elf/lib/mno-hw-mul/libc.a(lib_a-strlen.o)
 .debug_frame   0x000004d0       0x64 /tools/altera/12.0/nios2eds/bin/gnu/H-i686-pc-linux-gnu/bin/../lib/gcc/nios2-elf/4.1.2/../../../../nios2-elf/lib/mno-hw-mul/libc.a(lib_a-vfprintf.o)
 .debug_frame   0x00000534       0x2c /tools/altera/12.0/nios2eds/bin/gnu/H-i686-pc-linux-gnu/bin/../lib/gcc/nios2-elf/4.1.2/../../../../nios2-elf/lib/mno-hw-mul/libc.a(lib_a-wsetup.o)
 .debug_frame   0x00000560       0x64 /tools/altera/12.0/nios2eds/bin/gnu/H-i686-pc-linux-gnu/bin/../lib/gcc/nios2-elf/4.1.2/../../../../nios2-elf/lib/mno-hw-mul/libc.a(lib_a-dtoa.o)
 .debug_frame   0x000005c4       0x40 /tools/altera/12.0/nios2eds/bin/gnu/H-i686-pc-linux-gnu/bin/../lib/gcc/nios2-elf/4.1.2/../../../../nios2-elf/lib/mno-hw-mul/libc.a(lib_a-fflush.o)
 .debug_frame   0x00000604      0x118 /tools/altera/12.0/nios2eds/bin/gnu/H-i686-pc-linux-gnu/bin/../lib/gcc/nios2-elf/4.1.2/../../../../nios2-elf/lib/mno-hw-mul/libc.a(lib_a-findfp.o)
 .debug_frame   0x0000071c       0x4c /tools/altera/12.0/nios2eds/bin/gnu/H-i686-pc-linux-gnu/bin/../lib/gcc/nios2-elf/4.1.2/../../../../nios2-elf/lib/mno-hw-mul/libc.a(lib_a-freer.o)
 .debug_frame   0x00000768       0x38 /tools/altera/12.0/nios2eds/bin/gnu/H-i686-pc-linux-gnu/bin/../lib/gcc/nios2-elf/4.1.2/../../../../nios2-elf/lib/mno-hw-mul/libc.a(lib_a-fvwrite.o)
 .debug_frame   0x000007a0       0x60 /tools/altera/12.0/nios2eds/bin/gnu/H-i686-pc-linux-gnu/bin/../lib/gcc/nios2-elf/4.1.2/../../../../nios2-elf/lib/mno-hw-mul/libc.a(lib_a-fwalk.o)
 .debug_frame   0x00000800       0x70 /tools/altera/12.0/nios2eds/bin/gnu/H-i686-pc-linux-gnu/bin/../lib/gcc/nios2-elf/4.1.2/../../../../nios2-elf/lib/mno-hw-mul/libc.a(lib_a-locale.o)
 .debug_frame   0x00000870       0x2c /tools/altera/12.0/nios2eds/bin/gnu/H-i686-pc-linux-gnu/bin/../lib/gcc/nios2-elf/4.1.2/../../../../nios2-elf/lib/mno-hw-mul/libc.a(lib_a-makebuf.o)
 .debug_frame   0x0000089c       0x38 /tools/altera/12.0/nios2eds/bin/gnu/H-i686-pc-linux-gnu/bin/../lib/gcc/nios2-elf/4.1.2/../../../../nios2-elf/lib/mno-hw-mul/libc.a(lib_a-mallocr.o)
 .debug_frame   0x000008d4       0x20 /tools/altera/12.0/nios2eds/bin/gnu/H-i686-pc-linux-gnu/bin/../lib/gcc/nios2-elf/4.1.2/../../../../nios2-elf/lib/mno-hw-mul/libc.a(lib_a-memchr.o)
 .debug_frame   0x000008f4       0x20 /tools/altera/12.0/nios2eds/bin/gnu/H-i686-pc-linux-gnu/bin/../lib/gcc/nios2-elf/4.1.2/../../../../nios2-elf/lib/mno-hw-mul/libc.a(lib_a-memcpy.o)
 .debug_frame   0x00000914       0x20 /tools/altera/12.0/nios2eds/bin/gnu/H-i686-pc-linux-gnu/bin/../lib/gcc/nios2-elf/4.1.2/../../../../nios2-elf/lib/mno-hw-mul/libc.a(lib_a-memmove.o)
 .debug_frame   0x00000934       0x20 /tools/altera/12.0/nios2eds/bin/gnu/H-i686-pc-linux-gnu/bin/../lib/gcc/nios2-elf/4.1.2/../../../../nios2-elf/lib/mno-hw-mul/libc.a(lib_a-memset.o)
 .debug_frame   0x00000954      0x228 /tools/altera/12.0/nios2eds/bin/gnu/H-i686-pc-linux-gnu/bin/../lib/gcc/nios2-elf/4.1.2/../../../../nios2-elf/lib/mno-hw-mul/libc.a(lib_a-mprec.o)
 .debug_frame   0x00000b7c       0x4c /tools/altera/12.0/nios2eds/bin/gnu/H-i686-pc-linux-gnu/bin/../lib/gcc/nios2-elf/4.1.2/../../../../nios2-elf/lib/mno-hw-mul/libc.a(lib_a-putc.o)
 .debug_frame   0x00000bc8       0x38 /tools/altera/12.0/nios2eds/bin/gnu/H-i686-pc-linux-gnu/bin/../lib/gcc/nios2-elf/4.1.2/../../../../nios2-elf/lib/mno-hw-mul/libc.a(lib_a-reallocr.o)
 .debug_frame   0x00000c00       0x20 /tools/altera/12.0/nios2eds/bin/gnu/H-i686-pc-linux-gnu/bin/../lib/gcc/nios2-elf/4.1.2/../../../../nios2-elf/lib/mno-hw-mul/libc.a(lib_a-s_isinfd.o)
 .debug_frame   0x00000c20       0x20 /tools/altera/12.0/nios2eds/bin/gnu/H-i686-pc-linux-gnu/bin/../lib/gcc/nios2-elf/4.1.2/../../../../nios2-elf/lib/mno-hw-mul/libc.a(lib_a-s_isnand.o)
 .debug_frame   0x00000c40       0x2c /tools/altera/12.0/nios2eds/bin/gnu/H-i686-pc-linux-gnu/bin/../lib/gcc/nios2-elf/4.1.2/../../../../nios2-elf/lib/mno-hw-mul/libc.a(lib_a-sbrkr.o)
 .debug_frame   0x00000c6c       0x78 /tools/altera/12.0/nios2eds/bin/gnu/H-i686-pc-linux-gnu/bin/../lib/gcc/nios2-elf/4.1.2/../../../../nios2-elf/lib/mno-hw-mul/libc.a(lib_a-stdio.o)
 .debug_frame   0x00000ce4       0x20 /tools/altera/12.0/nios2eds/bin/gnu/H-i686-pc-linux-gnu/bin/../lib/gcc/nios2-elf/4.1.2/../../../../nios2-elf/lib/mno-hw-mul/libc.a(lib_a-strcmp.o)
 .debug_frame   0x00000d04       0x3c /tools/altera/12.0/nios2eds/bin/gnu/H-i686-pc-linux-gnu/bin/../lib/gcc/nios2-elf/4.1.2/../../../../nios2-elf/lib/mno-hw-mul/libc.a(lib_a-wbuf.o)
 .debug_frame   0x00000d40       0x2c /tools/altera/12.0/nios2eds/bin/gnu/H-i686-pc-linux-gnu/bin/../lib/gcc/nios2-elf/4.1.2/../../../../nios2-elf/lib/mno-hw-mul/libc.a(lib_a-writer.o)
 .debug_frame   0x00000d6c       0x2c /tools/altera/12.0/nios2eds/bin/gnu/H-i686-pc-linux-gnu/bin/../lib/gcc/nios2-elf/4.1.2/../../../../nios2-elf/lib/mno-hw-mul/libc.a(lib_a-callocr.o)
 .debug_frame   0x00000d98       0x2c /tools/altera/12.0/nios2eds/bin/gnu/H-i686-pc-linux-gnu/bin/../lib/gcc/nios2-elf/4.1.2/../../../../nios2-elf/lib/mno-hw-mul/libc.a(lib_a-closer.o)
 .debug_frame   0x00000dc4       0x3c /tools/altera/12.0/nios2eds/bin/gnu/H-i686-pc-linux-gnu/bin/../lib/gcc/nios2-elf/4.1.2/../../../../nios2-elf/lib/mno-hw-mul/libc.a(lib_a-fclose.o)
 .debug_frame   0x00000e00       0x2c /tools/altera/12.0/nios2eds/bin/gnu/H-i686-pc-linux-gnu/bin/../lib/gcc/nios2-elf/4.1.2/../../../../nios2-elf/lib/mno-hw-mul/libc.a(lib_a-fstatr.o)
 .debug_frame   0x00000e2c       0x2c /tools/altera/12.0/nios2eds/bin/gnu/H-i686-pc-linux-gnu/bin/../lib/gcc/nios2-elf/4.1.2/../../../../nios2-elf/lib/mno-hw-mul/libc.a(lib_a-isattyr.o)
 .debug_frame   0x00000e58       0x2c /tools/altera/12.0/nios2eds/bin/gnu/H-i686-pc-linux-gnu/bin/../lib/gcc/nios2-elf/4.1.2/../../../../nios2-elf/lib/mno-hw-mul/libc.a(lib_a-lseekr.o)
 .debug_frame   0x00000e84       0x2c /tools/altera/12.0/nios2eds/bin/gnu/H-i686-pc-linux-gnu/bin/../lib/gcc/nios2-elf/4.1.2/../../../../nios2-elf/lib/mno-hw-mul/libc.a(lib_a-readr.o)
 .debug_frame   0x00000eb0       0x40 /tools/altera/12.0/nios2eds/bin/gnu/H-i686-pc-linux-gnu/bin/../lib/gcc/nios2-elf/4.1.2/mno-hw-mul/libgcc.a(_muldi3.o)
 .debug_frame   0x00000ef0       0x38 /tools/altera/12.0/nios2eds/bin/gnu/H-i686-pc-linux-gnu/bin/../lib/gcc/nios2-elf/4.1.2/mno-hw-mul/libgcc.a(_udivdi3.o)
 .debug_frame   0x00000f28       0x38 /tools/altera/12.0/nios2eds/bin/gnu/H-i686-pc-linux-gnu/bin/../lib/gcc/nios2-elf/4.1.2/mno-hw-mul/libgcc.a(_umoddi3.o)
 .debug_frame   0x00000f60       0x70 /tools/altera/12.0/nios2eds/bin/gnu/H-i686-pc-linux-gnu/bin/../lib/gcc/nios2-elf/4.1.2/mno-hw-mul/libgcc.a(_addsub_df.o)
 .debug_frame   0x00000fd0       0x3c /tools/altera/12.0/nios2eds/bin/gnu/H-i686-pc-linux-gnu/bin/../lib/gcc/nios2-elf/4.1.2/mno-hw-mul/libgcc.a(_mul_df.o)
 .debug_frame   0x0000100c       0x30 /tools/altera/12.0/nios2eds/bin/gnu/H-i686-pc-linux-gnu/bin/../lib/gcc/nios2-elf/4.1.2/mno-hw-mul/libgcc.a(_div_df.o)
 .debug_frame   0x0000103c       0x2c /tools/altera/12.0/nios2eds/bin/gnu/H-i686-pc-linux-gnu/bin/../lib/gcc/nios2-elf/4.1.2/mno-hw-mul/libgcc.a(_eq_df.o)
 .debug_frame   0x00001068       0x2c /tools/altera/12.0/nios2eds/bin/gnu/H-i686-pc-linux-gnu/bin/../lib/gcc/nios2-elf/4.1.2/mno-hw-mul/libgcc.a(_ne_df.o)
 .debug_frame   0x00001094       0x2c /tools/altera/12.0/nios2eds/bin/gnu/H-i686-pc-linux-gnu/bin/../lib/gcc/nios2-elf/4.1.2/mno-hw-mul/libgcc.a(_gt_df.o)
 .debug_frame   0x000010c0       0x2c /tools/altera/12.0/nios2eds/bin/gnu/H-i686-pc-linux-gnu/bin/../lib/gcc/nios2-elf/4.1.2/mno-hw-mul/libgcc.a(_ge_df.o)
 .debug_frame   0x000010ec       0x2c /tools/altera/12.0/nios2eds/bin/gnu/H-i686-pc-linux-gnu/bin/../lib/gcc/nios2-elf/4.1.2/mno-hw-mul/libgcc.a(_lt_df.o)
 .debug_frame   0x00001118       0x30 /tools/altera/12.0/nios2eds/bin/gnu/H-i686-pc-linux-gnu/bin/../lib/gcc/nios2-elf/4.1.2/mno-hw-mul/libgcc.a(_si_to_df.o)
 .debug_frame   0x00001148       0x28 /tools/altera/12.0/nios2eds/bin/gnu/H-i686-pc-linux-gnu/bin/../lib/gcc/nios2-elf/4.1.2/mno-hw-mul/libgcc.a(_df_to_si.o)
 .debug_frame   0x00001170       0x38 /tools/altera/12.0/nios2eds/bin/gnu/H-i686-pc-linux-gnu/bin/../lib/gcc/nios2-elf/4.1.2/mno-hw-mul/libgcc.a(_usi_to_df.o)
 .debug_frame   0x000011a8       0x20 /tools/altera/12.0/nios2eds/bin/gnu/H-i686-pc-linux-gnu/bin/../lib/gcc/nios2-elf/4.1.2/mno-hw-mul/libgcc.a(_clzsi2.o)
 .debug_frame   0x000011c8       0x2c /tools/altera/12.0/nios2eds/bin/gnu/H-i686-pc-linux-gnu/bin/../lib/gcc/nios2-elf/4.1.2/mno-hw-mul/libgcc.a(_pack_df.o)
 .debug_frame   0x000011f4       0x20 /tools/altera/12.0/nios2eds/bin/gnu/H-i686-pc-linux-gnu/bin/../lib/gcc/nios2-elf/4.1.2/mno-hw-mul/libgcc.a(_unpack_df.o)
 .debug_frame   0x00001214       0x20 /tools/altera/12.0/nios2eds/bin/gnu/H-i686-pc-linux-gnu/bin/../lib/gcc/nios2-elf/4.1.2/mno-hw-mul/libgcc.a(_fpcmp_parts_df.o)
 .debug_frame   0x00001234       0x48 ../experiment1_bsp//libucosii_bsp.a(alt_close.o)
 .debug_frame   0x0000127c       0x2c ../experiment1_bsp//libucosii_bsp.a(alt_dev.o)
 .debug_frame   0x000012a8       0x48 ../experiment1_bsp//libucosii_bsp.a(alt_fstat.o)
 .debug_frame   0x000012f0       0x2c ../experiment1_bsp//libucosii_bsp.a(alt_irq_register.o)
 .debug_frame   0x0000131c       0x48 ../experiment1_bsp//libucosii_bsp.a(alt_isatty.o)
 .debug_frame   0x00001364       0x48 ../experiment1_bsp//libucosii_bsp.a(alt_load.o)
 .debug_frame   0x000013ac       0x48 ../experiment1_bsp//libucosii_bsp.a(alt_lseek.o)
 .debug_frame   0x000013f4       0x2c ../experiment1_bsp//libucosii_bsp.a(alt_main.o)
 .debug_frame   0x00001420       0x48 ../experiment1_bsp//libucosii_bsp.a(alt_read.o)
 .debug_frame   0x00001468       0x30 ../experiment1_bsp//libucosii_bsp.a(alt_release_fd.o)
 .debug_frame   0x00001498       0x2c ../experiment1_bsp//libucosii_bsp.a(alt_sbrk.o)
 .debug_frame   0x000014c4       0x48 ../experiment1_bsp//libucosii_bsp.a(alt_write.o)
 .debug_frame   0x0000150c       0x4c ../experiment1_bsp//libucosii_bsp.a(alt_env_lock.o)
 .debug_frame   0x00001558       0x4c ../experiment1_bsp//libucosii_bsp.a(alt_malloc_lock.o)
 .debug_frame   0x000015a4      0x3e4 ../experiment1_bsp//libucosii_bsp.a(os_core.o)
 .debug_frame   0x00001988       0x2c ../experiment1_bsp//libucosii_bsp.a(os_dbg.o)
 .debug_frame   0x000019b4      0x180 ../experiment1_bsp//libucosii_bsp.a(os_flag.o)
 .debug_frame   0x00001b34       0xf0 ../experiment1_bsp//libucosii_bsp.a(os_mbox.o)
 .debug_frame   0x00001c24       0xd4 ../experiment1_bsp//libucosii_bsp.a(os_mem.o)
 .debug_frame   0x00001cf8      0x144 ../experiment1_bsp//libucosii_bsp.a(os_q.o)
 .debug_frame   0x00001e3c       0xf0 ../experiment1_bsp//libucosii_bsp.a(os_sem.o)
 .debug_frame   0x00001f2c      0x160 ../experiment1_bsp//libucosii_bsp.a(os_task.o)
 .debug_frame   0x0000208c       0xa0 ../experiment1_bsp//libucosii_bsp.a(os_time.o)
 .debug_frame   0x0000212c       0x64 ../experiment1_bsp//libucosii_bsp.a(alt_sys_init.o)
 .debug_frame   0x00002190       0x80 ../experiment1_bsp//libucosii_bsp.a(altera_avalon_jtag_uart_fd.o)
 .debug_frame   0x00002210       0x80 ../experiment1_bsp//libucosii_bsp.a(altera_avalon_jtag_uart_init.o)
 .debug_frame   0x00002290       0x2c ../experiment1_bsp//libucosii_bsp.a(altera_avalon_jtag_uart_ioctl.o)
 .debug_frame   0x000022bc       0x2c ../experiment1_bsp//libucosii_bsp.a(altera_avalon_jtag_uart_read.o)
 .debug_frame   0x000022e8       0x2c ../experiment1_bsp//libucosii_bsp.a(altera_avalon_jtag_uart_write.o)
 .debug_frame   0x00002314       0x9c ../experiment1_bsp//libucosii_bsp.a(altera_avalon_performance_counter.o)
 .debug_frame   0x000023b0       0x48 ../experiment1_bsp//libucosii_bsp.a(altera_avalon_timer_sc.o)
 .debug_frame   0x000023f8      0x17c ../experiment1_bsp//libucosii_bsp.a(altera_up_avalon_character_lcd.o)
 .debug_frame   0x00002574       0x2c ../experiment1_bsp//libucosii_bsp.a(alt_alarm_start.o)
 .debug_frame   0x000025a0       0x2c ../experiment1_bsp//libucosii_bsp.a(alt_dcache_flush_all.o)
 .debug_frame   0x000025cc       0x48 ../experiment1_bsp//libucosii_bsp.a(alt_dev_llist_insert.o)
 .debug_frame   0x00002614       0x2c ../experiment1_bsp//libucosii_bsp.a(alt_do_ctors.o)
 .debug_frame   0x00002640       0x2c ../experiment1_bsp//libucosii_bsp.a(alt_do_dtors.o)
 .debug_frame   0x0000266c       0x2c ../experiment1_bsp//libucosii_bsp.a(alt_find_dev.o)
 .debug_frame   0x00002698       0x2c ../experiment1_bsp//libucosii_bsp.a(alt_icache_flush_all.o)
 .debug_frame   0x000026c4       0x80 ../experiment1_bsp//libucosii_bsp.a(alt_iic.o)
 .debug_frame   0x00002744       0x2c ../experiment1_bsp//libucosii_bsp.a(alt_iic_isr_register.o)
 .debug_frame   0x00002770       0x4c ../experiment1_bsp//libucosii_bsp.a(alt_io_redirect.o)
 .debug_frame   0x000027bc       0x2c ../experiment1_bsp//libucosii_bsp.a(alt_irq_handler.o)
 .debug_frame   0x000027e8       0x68 ../experiment1_bsp//libucosii_bsp.a(alt_open.o)
 .debug_frame   0x00002850       0x48 ../experiment1_bsp//libucosii_bsp.a(alt_tick.o)
 .debug_frame   0x00002898       0x2c ../experiment1_bsp//libucosii_bsp.a(altera_nios2_qsys_irq.o)
 .debug_frame   0x000028c4      0x128 ../experiment1_bsp//libucosii_bsp.a(os_cpu_c.o)
 .debug_frame   0x000029ec       0x2c ../experiment1_bsp//libucosii_bsp.a(alt_find_file.o)
 .debug_frame   0x00002a18       0x30 ../experiment1_bsp//libucosii_bsp.a(alt_get_fd.o)
 .debug_frame   0x00002a48       0x20 /tools/altera/12.0/nios2eds/bin/gnu/H-i686-pc-linux-gnu/bin/../lib/gcc/nios2-elf/4.1.2/../../../../nios2-elf/lib/mno-hw-mul/libc.a(lib_a-atexit.o)
 .debug_frame   0x00002a68       0x28 /tools/altera/12.0/nios2eds/bin/gnu/H-i686-pc-linux-gnu/bin/../lib/gcc/nios2-elf/4.1.2/../../../../nios2-elf/lib/mno-hw-mul/libc.a(lib_a-exit.o)
 .debug_frame   0x00002a90       0x20 /tools/altera/12.0/nios2eds/bin/gnu/H-i686-pc-linux-gnu/bin/../lib/gcc/nios2-elf/4.1.2/../../../../nios2-elf/lib/mno-hw-mul/libc.a(lib_a-memcmp.o)
 .debug_frame   0x00002ab0       0x34 /tools/altera/12.0/nios2eds/bin/gnu/H-i686-pc-linux-gnu/bin/../lib/gcc/nios2-elf/4.1.2/../../../../nios2-elf/lib/mno-hw-mul/libc.a(lib_a-__atexit.o)
 .debug_frame   0x00002ae4       0x4c /tools/altera/12.0/nios2eds/bin/gnu/H-i686-pc-linux-gnu/bin/../lib/gcc/nios2-elf/4.1.2/../../../../nios2-elf/lib/mno-hw-mul/libc.a(lib_a-__call_atexit.o)
 .debug_frame   0x00002b30       0x48 ../experiment1_bsp//libucosii_bsp.a(alt_exit.o)

.debug_str      0x00000000     0x27e1
 *(.debug_str)
 .debug_str     0x00000000       0x1e obj/default/PB_button.o
 .debug_str     0x0000001e       0x2c obj/default/alt_ucosii_simple_error_check.o
 .debug_str     0x0000004a       0x37 obj/default/experiment1.o
 .debug_str     0x00000081       0x66 obj/default/tasks.o
 .debug_str     0x000000e7      0x169 /tools/altera/12.0/nios2eds/bin/gnu/H-i686-pc-linux-gnu/bin/../lib/gcc/nios2-elf/4.1.2/mno-hw-mul/libgcc.a(lib2-divmod.o)
                                0x1b6 (size before relaxing)
 .debug_str     0x00000250       0x37 /tools/altera/12.0/nios2eds/bin/gnu/H-i686-pc-linux-gnu/bin/../lib/gcc/nios2-elf/4.1.2/mno-hw-mul/libgcc.a(lib2-mul.o)
                                0x177 (size before relaxing)
 .debug_str     0x00000287      0x459 /tools/altera/12.0/nios2eds/bin/gnu/H-i686-pc-linux-gnu/bin/../lib/gcc/nios2-elf/4.1.2/../../../../nios2-elf/lib/mno-hw-mul/libc.a(lib_a-fprintf.o)
                                0x52f (size before relaxing)
 .debug_str     0x000006e0       0x8a /tools/altera/12.0/nios2eds/bin/gnu/H-i686-pc-linux-gnu/bin/../lib/gcc/nios2-elf/4.1.2/../../../../nios2-elf/lib/mno-hw-mul/libc.a(lib_a-fwrite.o)
                                0x56f (size before relaxing)
 .debug_str     0x0000076a       0xf4 /tools/altera/12.0/nios2eds/bin/gnu/H-i686-pc-linux-gnu/bin/../lib/gcc/nios2-elf/4.1.2/../../../../nios2-elf/lib/mno-hw-mul/libc.a(lib_a-impure.o)
                                0x52a (size before relaxing)
 .debug_str     0x0000085e       0x47 /tools/altera/12.0/nios2eds/bin/gnu/H-i686-pc-linux-gnu/bin/../lib/gcc/nios2-elf/4.1.2/../../../../nios2-elf/lib/mno-hw-mul/libc.a(lib_a-printf.o)
                                0x533 (size before relaxing)
 .debug_str     0x000008a5       0x51 /tools/altera/12.0/nios2eds/bin/gnu/H-i686-pc-linux-gnu/bin/../lib/gcc/nios2-elf/4.1.2/../../../../nios2-elf/lib/mno-hw-mul/libc.a(lib_a-putchar.o)
                                0x51f (size before relaxing)
 .debug_str     0x000008f6       0x48 /tools/altera/12.0/nios2eds/bin/gnu/H-i686-pc-linux-gnu/bin/../lib/gcc/nios2-elf/4.1.2/../../../../nios2-elf/lib/mno-hw-mul/libc.a(lib_a-puts.o)
                                0x559 (size before relaxing)
 .debug_str     0x0000093e       0xdb /tools/altera/12.0/nios2eds/bin/gnu/H-i686-pc-linux-gnu/bin/../lib/gcc/nios2-elf/4.1.2/../../../../nios2-elf/lib/mno-hw-mul/libc.a(lib_a-rand.o)
                                0x51b (size before relaxing)
 .debug_str     0x00000a19       0xeb /tools/altera/12.0/nios2eds/bin/gnu/H-i686-pc-linux-gnu/bin/../lib/gcc/nios2-elf/4.1.2/../../../../nios2-elf/lib/mno-hw-mul/libc.a(lib_a-strlen.o)
                                0x18d (size before relaxing)
 .debug_str     0x00000b04      0x188 /tools/altera/12.0/nios2eds/bin/gnu/H-i686-pc-linux-gnu/bin/../lib/gcc/nios2-elf/4.1.2/../../../../nios2-elf/lib/mno-hw-mul/libc.a(lib_a-vfprintf.o)
                                0x708 (size before relaxing)
 .debug_str     0x00000c8c       0x49 /tools/altera/12.0/nios2eds/bin/gnu/H-i686-pc-linux-gnu/bin/../lib/gcc/nios2-elf/4.1.2/../../../../nios2-elf/lib/mno-hw-mul/libc.a(lib_a-wsetup.o)
                                0x51c (size before relaxing)
 .debug_str     0x00000cd5      0x105 /tools/altera/12.0/nios2eds/bin/gnu/H-i686-pc-linux-gnu/bin/../lib/gcc/nios2-elf/4.1.2/../../../../nios2-elf/lib/mno-hw-mul/libc.a(lib_a-dtoa.o)
                                0x611 (size before relaxing)
 .debug_str     0x00000dda       0x55 /tools/altera/12.0/nios2eds/bin/gnu/H-i686-pc-linux-gnu/bin/../lib/gcc/nios2-elf/4.1.2/../../../../nios2-elf/lib/mno-hw-mul/libc.a(lib_a-fflush.o)
                                0x542 (size before relaxing)
 .debug_str     0x00000e2f      0x105 /tools/altera/12.0/nios2eds/bin/gnu/H-i686-pc-linux-gnu/bin/../lib/gcc/nios2-elf/4.1.2/../../../../nios2-elf/lib/mno-hw-mul/libc.a(lib_a-findfp.o)
                                0x604 (size before relaxing)
 .debug_str     0x00000f34      0x15e /tools/altera/12.0/nios2eds/bin/gnu/H-i686-pc-linux-gnu/bin/../lib/gcc/nios2-elf/4.1.2/../../../../nios2-elf/lib/mno-hw-mul/libc.a(lib_a-freer.o)
                                0x653 (size before relaxing)
 .debug_str     0x00001092       0x69 /tools/altera/12.0/nios2eds/bin/gnu/H-i686-pc-linux-gnu/bin/../lib/gcc/nios2-elf/4.1.2/../../../../nios2-elf/lib/mno-hw-mul/libc.a(lib_a-fvwrite.o)
                                0x573 (size before relaxing)
 .debug_str     0x000010fb       0x61 /tools/altera/12.0/nios2eds/bin/gnu/H-i686-pc-linux-gnu/bin/../lib/gcc/nios2-elf/4.1.2/../../../../nios2-elf/lib/mno-hw-mul/libc.a(lib_a-fwalk.o)
                                0x545 (size before relaxing)
 .debug_str     0x0000115c      0x235 /tools/altera/12.0/nios2eds/bin/gnu/H-i686-pc-linux-gnu/bin/../lib/gcc/nios2-elf/4.1.2/../../../../nios2-elf/lib/mno-hw-mul/libc.a(lib_a-locale.o)
                                0x6b9 (size before relaxing)
 .debug_str     0x00001391      0x126 /tools/altera/12.0/nios2eds/bin/gnu/H-i686-pc-linux-gnu/bin/../lib/gcc/nios2-elf/4.1.2/../../../../nios2-elf/lib/mno-hw-mul/libc.a(lib_a-makebuf.o)
                                0x616 (size before relaxing)
 .debug_str     0x000014b7       0xef /tools/altera/12.0/nios2eds/bin/gnu/H-i686-pc-linux-gnu/bin/../lib/gcc/nios2-elf/4.1.2/../../../../nios2-elf/lib/mno-hw-mul/libc.a(lib_a-mallocr.o)
                                0x701 (size before relaxing)
 .debug_str     0x000015a6       0x5f /tools/altera/12.0/nios2eds/bin/gnu/H-i686-pc-linux-gnu/bin/../lib/gcc/nios2-elf/4.1.2/../../../../nios2-elf/lib/mno-hw-mul/libc.a(lib_a-memchr.o)
                                0x19b (size before relaxing)
 .debug_str     0x00001605       0x6c /tools/altera/12.0/nios2eds/bin/gnu/H-i686-pc-linux-gnu/bin/../lib/gcc/nios2-elf/4.1.2/../../../../nios2-elf/lib/mno-hw-mul/libc.a(lib_a-memcpy.o)
                                0x138 (size before relaxing)
 .debug_str     0x00001671       0x50 /tools/altera/12.0/nios2eds/bin/gnu/H-i686-pc-linux-gnu/bin/../lib/gcc/nios2-elf/4.1.2/../../../../nios2-elf/lib/mno-hw-mul/libc.a(lib_a-memmove.o)
                                0x1ad (size before relaxing)
 .debug_str     0x000016c1       0x45 /tools/altera/12.0/nios2eds/bin/gnu/H-i686-pc-linux-gnu/bin/../lib/gcc/nios2-elf/4.1.2/../../../../nios2-elf/lib/mno-hw-mul/libc.a(lib_a-memset.o)
                                0x18e (size before relaxing)
 .debug_str     0x00001706       0xfb /tools/altera/12.0/nios2eds/bin/gnu/H-i686-pc-linux-gnu/bin/../lib/gcc/nios2-elf/4.1.2/../../../../nios2-elf/lib/mno-hw-mul/libc.a(lib_a-mprec.o)
                                0x61e (size before relaxing)
 .debug_str     0x00001801       0x48 /tools/altera/12.0/nios2eds/bin/gnu/H-i686-pc-linux-gnu/bin/../lib/gcc/nios2-elf/4.1.2/../../../../nios2-elf/lib/mno-hw-mul/libc.a(lib_a-putc.o)
                                0x522 (size before relaxing)
 .debug_str     0x00001849       0x59 /tools/altera/12.0/nios2eds/bin/gnu/H-i686-pc-linux-gnu/bin/../lib/gcc/nios2-elf/4.1.2/../../../../nios2-elf/lib/mno-hw-mul/libc.a(lib_a-reallocr.o)
                                0x5d3 (size before relaxing)
 .debug_str     0x000018a2       0xec /tools/altera/12.0/nios2eds/bin/gnu/H-i686-pc-linux-gnu/bin/../lib/gcc/nios2-elf/4.1.2/../../../../nios2-elf/lib/mno-hw-mul/libc.a(lib_a-s_isinfd.o)
                                0x19a (size before relaxing)
 .debug_str     0x0000198e       0x49 /tools/altera/12.0/nios2eds/bin/gnu/H-i686-pc-linux-gnu/bin/../lib/gcc/nios2-elf/4.1.2/../../../../nios2-elf/lib/mno-hw-mul/libc.a(lib_a-s_isnand.o)
                                0x19a (size before relaxing)
 .debug_str     0x000019d7       0x53 /tools/altera/12.0/nios2eds/bin/gnu/H-i686-pc-linux-gnu/bin/../lib/gcc/nios2-elf/4.1.2/../../../../nios2-elf/lib/mno-hw-mul/libc.a(lib_a-sbrkr.o)
                                0x51b (size before relaxing)
 .debug_str     0x00001a2a       0x65 /tools/altera/12.0/nios2eds/bin/gnu/H-i686-pc-linux-gnu/bin/../lib/gcc/nios2-elf/4.1.2/../../../../nios2-elf/lib/mno-hw-mul/libc.a(lib_a-stdio.o)
                                0x541 (size before relaxing)
 .debug_str     0x00001a8f       0x45 /tools/altera/12.0/nios2eds/bin/gnu/H-i686-pc-linux-gnu/bin/../lib/gcc/nios2-elf/4.1.2/../../../../nios2-elf/lib/mno-hw-mul/libc.a(lib_a-strcmp.o)
                                0x173 (size before relaxing)
 .debug_str     0x00001ad4       0x4d /tools/altera/12.0/nios2eds/bin/gnu/H-i686-pc-linux-gnu/bin/../lib/gcc/nios2-elf/4.1.2/../../../../nios2-elf/lib/mno-hw-mul/libc.a(lib_a-wbuf.o)
                                0x520 (size before relaxing)
 .debug_str     0x00001b21       0x4f /tools/altera/12.0/nios2eds/bin/gnu/H-i686-pc-linux-gnu/bin/../lib/gcc/nios2-elf/4.1.2/../../../../nios2-elf/lib/mno-hw-mul/libc.a(lib_a-writer.o)
                                0x51e (size before relaxing)
 .debug_str     0x00001b70       0x19 /tools/altera/12.0/nios2eds/bin/gnu/H-i686-pc-linux-gnu/bin/../lib/gcc/nios2-elf/4.1.2/../../../../nios2-elf/lib/mno-hw-mul/libc.a(lib_a-callocr.o)
                                0x552 (size before relaxing)
 .debug_str     0x00001b89       0x46 /tools/altera/12.0/nios2eds/bin/gnu/H-i686-pc-linux-gnu/bin/../lib/gcc/nios2-elf/4.1.2/../../../../nios2-elf/lib/mno-hw-mul/libc.a(lib_a-closer.o)
                                0x50e (size before relaxing)
 .debug_str     0x00001bcf       0x4e /tools/altera/12.0/nios2eds/bin/gnu/H-i686-pc-linux-gnu/bin/../lib/gcc/nios2-elf/4.1.2/../../../../nios2-elf/lib/mno-hw-mul/libc.a(lib_a-fclose.o)
                                0x526 (size before relaxing)
 .debug_str     0x00001c1d       0x4c /tools/altera/12.0/nios2eds/bin/gnu/H-i686-pc-linux-gnu/bin/../lib/gcc/nios2-elf/4.1.2/../../../../nios2-elf/lib/mno-hw-mul/libc.a(lib_a-fstatr.o)
                                0x601 (size before relaxing)
 .debug_str     0x00001c69       0x40 /tools/altera/12.0/nios2eds/bin/gnu/H-i686-pc-linux-gnu/bin/../lib/gcc/nios2-elf/4.1.2/../../../../nios2-elf/lib/mno-hw-mul/libc.a(lib_a-int_errno.o)
                                0x173 (size before relaxing)
 .debug_str     0x00001ca9       0x48 /tools/altera/12.0/nios2eds/bin/gnu/H-i686-pc-linux-gnu/bin/../lib/gcc/nios2-elf/4.1.2/../../../../nios2-elf/lib/mno-hw-mul/libc.a(lib_a-isattyr.o)
                                0x510 (size before relaxing)
 .debug_str     0x00001cf1       0x46 /tools/altera/12.0/nios2eds/bin/gnu/H-i686-pc-linux-gnu/bin/../lib/gcc/nios2-elf/4.1.2/../../../../nios2-elf/lib/mno-hw-mul/libc.a(lib_a-lseekr.o)
                                0x51c (size before relaxing)
 .debug_str     0x00001d37       0x44 /tools/altera/12.0/nios2eds/bin/gnu/H-i686-pc-linux-gnu/bin/../lib/gcc/nios2-elf/4.1.2/../../../../nios2-elf/lib/mno-hw-mul/libc.a(lib_a-readr.o)
                                0x51c (size before relaxing)
 .debug_str     0x00001d7b       0x67 /tools/altera/12.0/nios2eds/bin/gnu/H-i686-pc-linux-gnu/bin/../lib/gcc/nios2-elf/4.1.2/mno-hw-mul/libgcc.a(_muldi3.o)
                                0x1ae (size before relaxing)
 .debug_str     0x00001de2       0x54 /tools/altera/12.0/nios2eds/bin/gnu/H-i686-pc-linux-gnu/bin/../lib/gcc/nios2-elf/4.1.2/mno-hw-mul/libgcc.a(_udivdi3.o)
                                0x1f9 (size before relaxing)
 .debug_str     0x00001e36        0xa /tools/altera/12.0/nios2eds/bin/gnu/H-i686-pc-linux-gnu/bin/../lib/gcc/nios2-elf/4.1.2/mno-hw-mul/libgcc.a(_umoddi3.o)
                                0x1f9 (size before relaxing)
 .debug_str     0x00001e40      0x137 /tools/altera/12.0/nios2eds/bin/gnu/H-i686-pc-linux-gnu/bin/../lib/gcc/nios2-elf/4.1.2/mno-hw-mul/libgcc.a(_addsub_df.o)
                                0x271 (size before relaxing)
 .debug_str     0x00001f77       0x40 /tools/altera/12.0/nios2eds/bin/gnu/H-i686-pc-linux-gnu/bin/../lib/gcc/nios2-elf/4.1.2/mno-hw-mul/libgcc.a(_mul_df.o)
                                0x243 (size before relaxing)
 .debug_str     0x00001fb7       0x35 /tools/altera/12.0/nios2eds/bin/gnu/H-i686-pc-linux-gnu/bin/../lib/gcc/nios2-elf/4.1.2/mno-hw-mul/libgcc.a(_div_df.o)
                                0x233 (size before relaxing)
 .debug_str     0x00001fec        0x8 /tools/altera/12.0/nios2eds/bin/gnu/H-i686-pc-linux-gnu/bin/../lib/gcc/nios2-elf/4.1.2/mno-hw-mul/libgcc.a(_eq_df.o)
                                0x200 (size before relaxing)
 .debug_str     0x00001ff4        0x8 /tools/altera/12.0/nios2eds/bin/gnu/H-i686-pc-linux-gnu/bin/../lib/gcc/nios2-elf/4.1.2/mno-hw-mul/libgcc.a(_ne_df.o)
                                0x200 (size before relaxing)
 .debug_str     0x00001ffc        0x8 /tools/altera/12.0/nios2eds/bin/gnu/H-i686-pc-linux-gnu/bin/../lib/gcc/nios2-elf/4.1.2/mno-hw-mul/libgcc.a(_gt_df.o)
                                0x200 (size before relaxing)
 .debug_str     0x00002004        0x8 /tools/altera/12.0/nios2eds/bin/gnu/H-i686-pc-linux-gnu/bin/../lib/gcc/nios2-elf/4.1.2/mno-hw-mul/libgcc.a(_ge_df.o)
                                0x200 (size before relaxing)
 .debug_str     0x0000200c        0x8 /tools/altera/12.0/nios2eds/bin/gnu/H-i686-pc-linux-gnu/bin/../lib/gcc/nios2-elf/4.1.2/mno-hw-mul/libgcc.a(_lt_df.o)
                                0x200 (size before relaxing)
 .debug_str     0x00002014       0x18 /tools/altera/12.0/nios2eds/bin/gnu/H-i686-pc-linux-gnu/bin/../lib/gcc/nios2-elf/4.1.2/mno-hw-mul/libgcc.a(_si_to_df.o)
                                0x1e0 (size before relaxing)
 .debug_str     0x0000202c        0xa /tools/altera/12.0/nios2eds/bin/gnu/H-i686-pc-linux-gnu/bin/../lib/gcc/nios2-elf/4.1.2/mno-hw-mul/libgcc.a(_df_to_si.o)
                                0x209 (size before relaxing)
 .debug_str     0x00000000      0x1a5 /tools/altera/12.0/nios2eds/bin/gnu/H-i686-pc-linux-gnu/bin/../lib/gcc/nios2-elf/4.1.2/mno-hw-mul/libgcc.a(_thenan_df.o)
 .debug_str     0x00002036       0x14 /tools/altera/12.0/nios2eds/bin/gnu/H-i686-pc-linux-gnu/bin/../lib/gcc/nios2-elf/4.1.2/mno-hw-mul/libgcc.a(_usi_to_df.o)
                                0x1dc (size before relaxing)
 .debug_str     0x00000000      0x163 /tools/altera/12.0/nios2eds/bin/gnu/H-i686-pc-linux-gnu/bin/../lib/gcc/nios2-elf/4.1.2/mno-hw-mul/libgcc.a(_clz.o)
 .debug_str     0x0000204a        0x9 /tools/altera/12.0/nios2eds/bin/gnu/H-i686-pc-linux-gnu/bin/../lib/gcc/nios2-elf/4.1.2/mno-hw-mul/libgcc.a(_clzsi2.o)
                                0x180 (size before relaxing)
 .debug_str     0x00002053       0x10 /tools/altera/12.0/nios2eds/bin/gnu/H-i686-pc-linux-gnu/bin/../lib/gcc/nios2-elf/4.1.2/mno-hw-mul/libgcc.a(_pack_df.o)
                                0x208 (size before relaxing)
 .debug_str     0x00002063        0xb /tools/altera/12.0/nios2eds/bin/gnu/H-i686-pc-linux-gnu/bin/../lib/gcc/nios2-elf/4.1.2/mno-hw-mul/libgcc.a(_unpack_df.o)
                                0x1ea (size before relaxing)
 .debug_str     0x0000206e       0x10 /tools/altera/12.0/nios2eds/bin/gnu/H-i686-pc-linux-gnu/bin/../lib/gcc/nios2-elf/4.1.2/mno-hw-mul/libgcc.a(_fpcmp_parts_df.o)
                                0x1c8 (size before relaxing)
 .debug_str     0x0000207e       0x12 ../experiment1_bsp//libucosii_bsp.a(alt_close.o)
 .debug_str     0x00002090       0x12 ../experiment1_bsp//libucosii_bsp.a(alt_dev.o)
 .debug_str     0x000020a2       0x12 ../experiment1_bsp//libucosii_bsp.a(alt_errno.o)
 .debug_str     0x000020b4       0x12 ../experiment1_bsp//libucosii_bsp.a(alt_fstat.o)
 .debug_str     0x000020c6       0x21 ../experiment1_bsp//libucosii_bsp.a(alt_irq_register.o)
 .debug_str     0x000020e7       0x12 ../experiment1_bsp//libucosii_bsp.a(alt_isatty.o)
 .debug_str     0x000020f9       0x12 ../experiment1_bsp//libucosii_bsp.a(alt_load.o)
 .debug_str     0x0000210b       0x12 ../experiment1_bsp//libucosii_bsp.a(alt_lseek.o)
 .debug_str     0x0000211d       0x12 ../experiment1_bsp//libucosii_bsp.a(alt_main.o)
 .debug_str     0x0000212f       0x12 ../experiment1_bsp//libucosii_bsp.a(alt_read.o)
 .debug_str     0x00002141       0x12 ../experiment1_bsp//libucosii_bsp.a(alt_release_fd.o)
 .debug_str     0x00002153       0x1a ../experiment1_bsp//libucosii_bsp.a(alt_sbrk.o)
 .debug_str     0x0000216d       0x12 ../experiment1_bsp//libucosii_bsp.a(alt_write.o)
 .debug_str     0x0000217f       0x36 ../experiment1_bsp//libucosii_bsp.a(alt_env_lock.o)
 .debug_str     0x000021b5       0x36 ../experiment1_bsp//libucosii_bsp.a(alt_malloc_lock.o)
 .debug_str     0x000021eb       0x46 ../experiment1_bsp//libucosii_bsp.a(os_core.o)
 .debug_str     0x00002231       0x2b ../experiment1_bsp//libucosii_bsp.a(os_dbg.o)
 .debug_str     0x0000225c       0x4e ../experiment1_bsp//libucosii_bsp.a(os_flag.o)
 .debug_str     0x000022aa       0x36 ../experiment1_bsp//libucosii_bsp.a(os_mbox.o)
 .debug_str     0x000022e0       0x2c ../experiment1_bsp//libucosii_bsp.a(os_mem.o)
 .debug_str     0x0000230c       0x36 ../experiment1_bsp//libucosii_bsp.a(os_q.o)
 .debug_str     0x00002342       0x36 ../experiment1_bsp//libucosii_bsp.a(os_sem.o)
 .debug_str     0x00002378       0x23 ../experiment1_bsp//libucosii_bsp.a(os_task.o)
 .debug_str     0x0000239b       0x1f ../experiment1_bsp//libucosii_bsp.a(os_time.o)
 .debug_str     0x000023ba       0x2b ../experiment1_bsp//libucosii_bsp.a(alt_sys_init.o)
 .debug_str     0x000023e5       0x12 ../experiment1_bsp//libucosii_bsp.a(altera_avalon_jtag_uart_fd.o)
 .debug_str     0x000023f7       0x1a ../experiment1_bsp//libucosii_bsp.a(altera_avalon_jtag_uart_init.o)
 .debug_str     0x00002411       0x12 ../experiment1_bsp//libucosii_bsp.a(altera_avalon_jtag_uart_ioctl.o)
 .debug_str     0x00002423       0x22 ../experiment1_bsp//libucosii_bsp.a(altera_avalon_jtag_uart_read.o)
 .debug_str     0x00002445       0x22 ../experiment1_bsp//libucosii_bsp.a(altera_avalon_jtag_uart_write.o)
 .debug_str     0x00002467       0x1e ../experiment1_bsp//libucosii_bsp.a(altera_avalon_performance_counter.o)
 .debug_str     0x00002485       0x12 ../experiment1_bsp//libucosii_bsp.a(altera_avalon_timer_sc.o)
 .debug_str     0x00002497       0x55 ../experiment1_bsp//libucosii_bsp.a(altera_up_avalon_character_lcd.o)
 .debug_str     0x000024ec       0x23 ../experiment1_bsp//libucosii_bsp.a(alt_alarm_start.o)
 .debug_str     0x0000250f       0x12 ../experiment1_bsp//libucosii_bsp.a(alt_dcache_flush_all.o)
 .debug_str     0x00002521       0x12 ../experiment1_bsp//libucosii_bsp.a(alt_dev_llist_insert.o)
 .debug_str     0x00002533       0x12 ../experiment1_bsp//libucosii_bsp.a(alt_find_dev.o)
 .debug_str     0x00002545       0x12 ../experiment1_bsp//libucosii_bsp.a(alt_icache_flush_all.o)
 .debug_str     0x00002557       0x18 ../experiment1_bsp//libucosii_bsp.a(alt_iic.o)
 .debug_str     0x0000256f       0x1a ../experiment1_bsp//libucosii_bsp.a(alt_iic_isr_register.o)
 .debug_str     0x00002589       0x12 ../experiment1_bsp//libucosii_bsp.a(alt_io_redirect.o)
 .debug_str     0x0000259b       0x12 ../experiment1_bsp//libucosii_bsp.a(alt_irq_handler.o)
 .debug_str     0x000025ad       0x12 ../experiment1_bsp//libucosii_bsp.a(alt_open.o)
 .debug_str     0x000025bf       0x1a ../experiment1_bsp//libucosii_bsp.a(alt_tick.o)
 .debug_str     0x000025d9       0x12 ../experiment1_bsp//libucosii_bsp.a(altera_nios2_qsys_irq.o)
 .debug_str     0x000025eb       0x20 ../experiment1_bsp//libucosii_bsp.a(os_cpu_c.o)
 .debug_str     0x0000260b       0x12 ../experiment1_bsp//libucosii_bsp.a(alt_find_file.o)
 .debug_str     0x0000261d       0x12 ../experiment1_bsp//libucosii_bsp.a(alt_get_fd.o)
 .debug_str     0x0000262f       0x3e /tools/altera/12.0/nios2eds/bin/gnu/H-i686-pc-linux-gnu/bin/../lib/gcc/nios2-elf/4.1.2/../../../../nios2-elf/lib/mno-hw-mul/libc.a(lib_a-atexit.o)
                                0x1cf (size before relaxing)
 .debug_str     0x0000266d       0x41 /tools/altera/12.0/nios2eds/bin/gnu/H-i686-pc-linux-gnu/bin/../lib/gcc/nios2-elf/4.1.2/../../../../nios2-elf/lib/mno-hw-mul/libc.a(lib_a-exit.o)
                                0x51c (size before relaxing)
 .debug_str     0x000026ae       0x45 /tools/altera/12.0/nios2eds/bin/gnu/H-i686-pc-linux-gnu/bin/../lib/gcc/nios2-elf/4.1.2/../../../../nios2-elf/lib/mno-hw-mul/libc.a(lib_a-memcmp.o)
                                0x17a (size before relaxing)
 .debug_str     0x000026f3       0x54 /tools/altera/12.0/nios2eds/bin/gnu/H-i686-pc-linux-gnu/bin/../lib/gcc/nios2-elf/4.1.2/../../../../nios2-elf/lib/mno-hw-mul/libc.a(lib_a-__atexit.o)
                                0x534 (size before relaxing)
 .debug_str     0x00002747       0x7e /tools/altera/12.0/nios2eds/bin/gnu/H-i686-pc-linux-gnu/bin/../lib/gcc/nios2-elf/4.1.2/../../../../nios2-elf/lib/mno-hw-mul/libc.a(lib_a-__call_atexit.o)
                                0x55e (size before relaxing)
 .debug_str     0x000027c5       0x1c ../experiment1_bsp//libucosii_bsp.a(alt_exit.o)

.debug_loc      0x00000000     0xdd50
 *(.debug_loc)
 .debug_loc     0x00000000      0x102 obj/default/PB_button.o
 .debug_loc     0x00000102       0x56 obj/default/alt_ucosii_simple_error_check.o
 .debug_loc     0x00000158       0xac obj/default/experiment1.o
 .debug_loc     0x00000204      0x184 obj/default/tasks.o
 .debug_loc     0x00000388      0x1d2 /tools/altera/12.0/nios2eds/bin/gnu/H-i686-pc-linux-gnu/bin/../lib/gcc/nios2-elf/4.1.2/mno-hw-mul/libgcc.a(lib2-divmod.o)
 .debug_loc     0x0000055a       0x4f /tools/altera/12.0/nios2eds/bin/gnu/H-i686-pc-linux-gnu/bin/../lib/gcc/nios2-elf/4.1.2/mno-hw-mul/libgcc.a(lib2-mul.o)
 .debug_loc     0x000005a9       0xf1 /tools/altera/12.0/nios2eds/bin/gnu/H-i686-pc-linux-gnu/bin/../lib/gcc/nios2-elf/4.1.2/../../../../nios2-elf/lib/mno-hw-mul/libc.a(lib_a-fprintf.o)
 .debug_loc     0x0000069a      0x183 /tools/altera/12.0/nios2eds/bin/gnu/H-i686-pc-linux-gnu/bin/../lib/gcc/nios2-elf/4.1.2/../../../../nios2-elf/lib/mno-hw-mul/libc.a(lib_a-fwrite.o)
 .debug_loc     0x0000081d       0xcb /tools/altera/12.0/nios2eds/bin/gnu/H-i686-pc-linux-gnu/bin/../lib/gcc/nios2-elf/4.1.2/../../../../nios2-elf/lib/mno-hw-mul/libc.a(lib_a-printf.o)
 .debug_loc     0x000008e8       0x44 /tools/altera/12.0/nios2eds/bin/gnu/H-i686-pc-linux-gnu/bin/../lib/gcc/nios2-elf/4.1.2/../../../../nios2-elf/lib/mno-hw-mul/libc.a(lib_a-putchar.o)
 .debug_loc     0x0000092c       0xa2 /tools/altera/12.0/nios2eds/bin/gnu/H-i686-pc-linux-gnu/bin/../lib/gcc/nios2-elf/4.1.2/../../../../nios2-elf/lib/mno-hw-mul/libc.a(lib_a-puts.o)
 .debug_loc     0x000009ce       0x42 /tools/altera/12.0/nios2eds/bin/gnu/H-i686-pc-linux-gnu/bin/../lib/gcc/nios2-elf/4.1.2/../../../../nios2-elf/lib/mno-hw-mul/libc.a(lib_a-rand.o)
 .debug_loc     0x00000a10       0x3c /tools/altera/12.0/nios2eds/bin/gnu/H-i686-pc-linux-gnu/bin/../lib/gcc/nios2-elf/4.1.2/../../../../nios2-elf/lib/mno-hw-mul/libc.a(lib_a-strlen.o)
 .debug_loc     0x00000a4c     0x1dc0 /tools/altera/12.0/nios2eds/bin/gnu/H-i686-pc-linux-gnu/bin/../lib/gcc/nios2-elf/4.1.2/../../../../nios2-elf/lib/mno-hw-mul/libc.a(lib_a-vfprintf.o)
 .debug_loc     0x0000280c       0x7c /tools/altera/12.0/nios2eds/bin/gnu/H-i686-pc-linux-gnu/bin/../lib/gcc/nios2-elf/4.1.2/../../../../nios2-elf/lib/mno-hw-mul/libc.a(lib_a-wsetup.o)
 .debug_loc     0x00002888     0x1da7 /tools/altera/12.0/nios2eds/bin/gnu/H-i686-pc-linux-gnu/bin/../lib/gcc/nios2-elf/4.1.2/../../../../nios2-elf/lib/mno-hw-mul/libc.a(lib_a-dtoa.o)
 .debug_loc     0x0000462f      0x1f6 /tools/altera/12.0/nios2eds/bin/gnu/H-i686-pc-linux-gnu/bin/../lib/gcc/nios2-elf/4.1.2/../../../../nios2-elf/lib/mno-hw-mul/libc.a(lib_a-fflush.o)
 .debug_loc     0x00004825      0x1e1 /tools/altera/12.0/nios2eds/bin/gnu/H-i686-pc-linux-gnu/bin/../lib/gcc/nios2-elf/4.1.2/../../../../nios2-elf/lib/mno-hw-mul/libc.a(lib_a-findfp.o)
 .debug_loc     0x00004a06      0x4a7 /tools/altera/12.0/nios2eds/bin/gnu/H-i686-pc-linux-gnu/bin/../lib/gcc/nios2-elf/4.1.2/../../../../nios2-elf/lib/mno-hw-mul/libc.a(lib_a-freer.o)
 .debug_loc     0x00004ead      0x4e4 /tools/altera/12.0/nios2eds/bin/gnu/H-i686-pc-linux-gnu/bin/../lib/gcc/nios2-elf/4.1.2/../../../../nios2-elf/lib/mno-hw-mul/libc.a(lib_a-fvwrite.o)
 .debug_loc     0x00005391      0x1d2 /tools/altera/12.0/nios2eds/bin/gnu/H-i686-pc-linux-gnu/bin/../lib/gcc/nios2-elf/4.1.2/../../../../nios2-elf/lib/mno-hw-mul/libc.a(lib_a-fwalk.o)
 .debug_loc     0x00005563       0xe1 /tools/altera/12.0/nios2eds/bin/gnu/H-i686-pc-linux-gnu/bin/../lib/gcc/nios2-elf/4.1.2/../../../../nios2-elf/lib/mno-hw-mul/libc.a(lib_a-locale.o)
 .debug_loc     0x00005644      0x11c /tools/altera/12.0/nios2eds/bin/gnu/H-i686-pc-linux-gnu/bin/../lib/gcc/nios2-elf/4.1.2/../../../../nios2-elf/lib/mno-hw-mul/libc.a(lib_a-makebuf.o)
 .debug_loc     0x00005760      0xaeb /tools/altera/12.0/nios2eds/bin/gnu/H-i686-pc-linux-gnu/bin/../lib/gcc/nios2-elf/4.1.2/../../../../nios2-elf/lib/mno-hw-mul/libc.a(lib_a-mallocr.o)
 .debug_loc     0x0000624b      0x106 /tools/altera/12.0/nios2eds/bin/gnu/H-i686-pc-linux-gnu/bin/../lib/gcc/nios2-elf/4.1.2/../../../../nios2-elf/lib/mno-hw-mul/libc.a(lib_a-memchr.o)
 .debug_loc     0x00006351       0xca /tools/altera/12.0/nios2eds/bin/gnu/H-i686-pc-linux-gnu/bin/../lib/gcc/nios2-elf/4.1.2/../../../../nios2-elf/lib/mno-hw-mul/libc.a(lib_a-memcpy.o)
 .debug_loc     0x0000641b      0x117 /tools/altera/12.0/nios2eds/bin/gnu/H-i686-pc-linux-gnu/bin/../lib/gcc/nios2-elf/4.1.2/../../../../nios2-elf/lib/mno-hw-mul/libc.a(lib_a-memmove.o)
 .debug_loc     0x00006532       0xa1 /tools/altera/12.0/nios2eds/bin/gnu/H-i686-pc-linux-gnu/bin/../lib/gcc/nios2-elf/4.1.2/../../../../nios2-elf/lib/mno-hw-mul/libc.a(lib_a-memset.o)
 .debug_loc     0x000065d3     0x1547 /tools/altera/12.0/nios2eds/bin/gnu/H-i686-pc-linux-gnu/bin/../lib/gcc/nios2-elf/4.1.2/../../../../nios2-elf/lib/mno-hw-mul/libc.a(lib_a-mprec.o)
 .debug_loc     0x00007b1a      0x20d /tools/altera/12.0/nios2eds/bin/gnu/H-i686-pc-linux-gnu/bin/../lib/gcc/nios2-elf/4.1.2/../../../../nios2-elf/lib/mno-hw-mul/libc.a(lib_a-putc.o)
 .debug_loc     0x00007d27      0x8c0 /tools/altera/12.0/nios2eds/bin/gnu/H-i686-pc-linux-gnu/bin/../lib/gcc/nios2-elf/4.1.2/../../../../nios2-elf/lib/mno-hw-mul/libc.a(lib_a-reallocr.o)
 .debug_loc     0x000085e7       0x36 /tools/altera/12.0/nios2eds/bin/gnu/H-i686-pc-linux-gnu/bin/../lib/gcc/nios2-elf/4.1.2/../../../../nios2-elf/lib/mno-hw-mul/libc.a(lib_a-s_isinfd.o)
 .debug_loc     0x0000861d       0x18 /tools/altera/12.0/nios2eds/bin/gnu/H-i686-pc-linux-gnu/bin/../lib/gcc/nios2-elf/4.1.2/../../../../nios2-elf/lib/mno-hw-mul/libc.a(lib_a-s_isnand.o)
 .debug_loc     0x00008635       0x5b /tools/altera/12.0/nios2eds/bin/gnu/H-i686-pc-linux-gnu/bin/../lib/gcc/nios2-elf/4.1.2/../../../../nios2-elf/lib/mno-hw-mul/libc.a(lib_a-sbrkr.o)
 .debug_loc     0x00008690      0x21f /tools/altera/12.0/nios2eds/bin/gnu/H-i686-pc-linux-gnu/bin/../lib/gcc/nios2-elf/4.1.2/../../../../nios2-elf/lib/mno-hw-mul/libc.a(lib_a-stdio.o)
 .debug_loc     0x000088af       0x65 /tools/altera/12.0/nios2eds/bin/gnu/H-i686-pc-linux-gnu/bin/../lib/gcc/nios2-elf/4.1.2/../../../../nios2-elf/lib/mno-hw-mul/libc.a(lib_a-strcmp.o)
 .debug_loc     0x00008914      0x157 /tools/altera/12.0/nios2eds/bin/gnu/H-i686-pc-linux-gnu/bin/../lib/gcc/nios2-elf/4.1.2/../../../../nios2-elf/lib/mno-hw-mul/libc.a(lib_a-wbuf.o)
 .debug_loc     0x00008a6b       0x97 /tools/altera/12.0/nios2eds/bin/gnu/H-i686-pc-linux-gnu/bin/../lib/gcc/nios2-elf/4.1.2/../../../../nios2-elf/lib/mno-hw-mul/libc.a(lib_a-writer.o)
 .debug_loc     0x00008b02       0xff /tools/altera/12.0/nios2eds/bin/gnu/H-i686-pc-linux-gnu/bin/../lib/gcc/nios2-elf/4.1.2/../../../../nios2-elf/lib/mno-hw-mul/libc.a(lib_a-callocr.o)
 .debug_loc     0x00008c01       0x5b /tools/altera/12.0/nios2eds/bin/gnu/H-i686-pc-linux-gnu/bin/../lib/gcc/nios2-elf/4.1.2/../../../../nios2-elf/lib/mno-hw-mul/libc.a(lib_a-closer.o)
 .debug_loc     0x00008c5c       0xe4 /tools/altera/12.0/nios2eds/bin/gnu/H-i686-pc-linux-gnu/bin/../lib/gcc/nios2-elf/4.1.2/../../../../nios2-elf/lib/mno-hw-mul/libc.a(lib_a-fclose.o)
 .debug_loc     0x00008d40       0x79 /tools/altera/12.0/nios2eds/bin/gnu/H-i686-pc-linux-gnu/bin/../lib/gcc/nios2-elf/4.1.2/../../../../nios2-elf/lib/mno-hw-mul/libc.a(lib_a-fstatr.o)
 .debug_loc     0x00008db9       0x5b /tools/altera/12.0/nios2eds/bin/gnu/H-i686-pc-linux-gnu/bin/../lib/gcc/nios2-elf/4.1.2/../../../../nios2-elf/lib/mno-hw-mul/libc.a(lib_a-isattyr.o)
 .debug_loc     0x00008e14       0x97 /tools/altera/12.0/nios2eds/bin/gnu/H-i686-pc-linux-gnu/bin/../lib/gcc/nios2-elf/4.1.2/../../../../nios2-elf/lib/mno-hw-mul/libc.a(lib_a-lseekr.o)
 .debug_loc     0x00008eab       0x97 /tools/altera/12.0/nios2eds/bin/gnu/H-i686-pc-linux-gnu/bin/../lib/gcc/nios2-elf/4.1.2/../../../../nios2-elf/lib/mno-hw-mul/libc.a(lib_a-readr.o)
 .debug_loc     0x00008f42      0x103 /tools/altera/12.0/nios2eds/bin/gnu/H-i686-pc-linux-gnu/bin/../lib/gcc/nios2-elf/4.1.2/mno-hw-mul/libgcc.a(_muldi3.o)
 .debug_loc     0x00009045      0xc12 /tools/altera/12.0/nios2eds/bin/gnu/H-i686-pc-linux-gnu/bin/../lib/gcc/nios2-elf/4.1.2/mno-hw-mul/libgcc.a(_udivdi3.o)
 .debug_loc     0x00009c57      0xbe2 /tools/altera/12.0/nios2eds/bin/gnu/H-i686-pc-linux-gnu/bin/../lib/gcc/nios2-elf/4.1.2/mno-hw-mul/libgcc.a(_umoddi3.o)
 .debug_loc     0x0000a839      0x47a /tools/altera/12.0/nios2eds/bin/gnu/H-i686-pc-linux-gnu/bin/../lib/gcc/nios2-elf/4.1.2/mno-hw-mul/libgcc.a(_addsub_df.o)
 .debug_loc     0x0000acb3      0x3b4 /tools/altera/12.0/nios2eds/bin/gnu/H-i686-pc-linux-gnu/bin/../lib/gcc/nios2-elf/4.1.2/mno-hw-mul/libgcc.a(_mul_df.o)
 .debug_loc     0x0000b067      0x1df /tools/altera/12.0/nios2eds/bin/gnu/H-i686-pc-linux-gnu/bin/../lib/gcc/nios2-elf/4.1.2/mno-hw-mul/libgcc.a(_div_df.o)
 .debug_loc     0x0000b246       0x70 /tools/altera/12.0/nios2eds/bin/gnu/H-i686-pc-linux-gnu/bin/../lib/gcc/nios2-elf/4.1.2/mno-hw-mul/libgcc.a(_eq_df.o)
 .debug_loc     0x0000b2b6       0x70 /tools/altera/12.0/nios2eds/bin/gnu/H-i686-pc-linux-gnu/bin/../lib/gcc/nios2-elf/4.1.2/mno-hw-mul/libgcc.a(_ne_df.o)
 .debug_loc     0x0000b326       0x70 /tools/altera/12.0/nios2eds/bin/gnu/H-i686-pc-linux-gnu/bin/../lib/gcc/nios2-elf/4.1.2/mno-hw-mul/libgcc.a(_gt_df.o)
 .debug_loc     0x0000b396       0x70 /tools/altera/12.0/nios2eds/bin/gnu/H-i686-pc-linux-gnu/bin/../lib/gcc/nios2-elf/4.1.2/mno-hw-mul/libgcc.a(_ge_df.o)
 .debug_loc     0x0000b406       0x70 /tools/altera/12.0/nios2eds/bin/gnu/H-i686-pc-linux-gnu/bin/../lib/gcc/nios2-elf/4.1.2/mno-hw-mul/libgcc.a(_lt_df.o)
 .debug_loc     0x0000b476       0x9a /tools/altera/12.0/nios2eds/bin/gnu/H-i686-pc-linux-gnu/bin/../lib/gcc/nios2-elf/4.1.2/mno-hw-mul/libgcc.a(_si_to_df.o)
 .debug_loc     0x0000b510       0x8b /tools/altera/12.0/nios2eds/bin/gnu/H-i686-pc-linux-gnu/bin/../lib/gcc/nios2-elf/4.1.2/mno-hw-mul/libgcc.a(_df_to_si.o)
 .debug_loc     0x0000b59b       0x5b /tools/altera/12.0/nios2eds/bin/gnu/H-i686-pc-linux-gnu/bin/../lib/gcc/nios2-elf/4.1.2/mno-hw-mul/libgcc.a(_usi_to_df.o)
 .debug_loc     0x0000b5f6       0x1e /tools/altera/12.0/nios2eds/bin/gnu/H-i686-pc-linux-gnu/bin/../lib/gcc/nios2-elf/4.1.2/mno-hw-mul/libgcc.a(_clzsi2.o)
 .debug_loc     0x0000b614      0x184 /tools/altera/12.0/nios2eds/bin/gnu/H-i686-pc-linux-gnu/bin/../lib/gcc/nios2-elf/4.1.2/mno-hw-mul/libgcc.a(_pack_df.o)
 .debug_loc     0x0000b798       0xe5 /tools/altera/12.0/nios2eds/bin/gnu/H-i686-pc-linux-gnu/bin/../lib/gcc/nios2-elf/4.1.2/mno-hw-mul/libgcc.a(_unpack_df.o)
 .debug_loc     0x0000b87d       0x56 ../experiment1_bsp//libucosii_bsp.a(alt_close.o)
 .debug_loc     0x0000b8d3       0x2b ../experiment1_bsp//libucosii_bsp.a(alt_dev.o)
 .debug_loc     0x0000b8fe       0x56 ../experiment1_bsp//libucosii_bsp.a(alt_fstat.o)
 .debug_loc     0x0000b954       0x2c ../experiment1_bsp//libucosii_bsp.a(alt_irq_register.o)
 .debug_loc     0x0000b980       0x57 ../experiment1_bsp//libucosii_bsp.a(alt_isatty.o)
 .debug_loc     0x0000b9d7       0x56 ../experiment1_bsp//libucosii_bsp.a(alt_load.o)
 .debug_loc     0x0000ba2d       0x56 ../experiment1_bsp//libucosii_bsp.a(alt_lseek.o)
 .debug_loc     0x0000ba83       0x2b ../experiment1_bsp//libucosii_bsp.a(alt_main.o)
 .debug_loc     0x0000baae       0x56 ../experiment1_bsp//libucosii_bsp.a(alt_read.o)
 .debug_loc     0x0000bb04       0x2b ../experiment1_bsp//libucosii_bsp.a(alt_release_fd.o)
 .debug_loc     0x0000bb2f       0x2b ../experiment1_bsp//libucosii_bsp.a(alt_sbrk.o)
 .debug_loc     0x0000bb5a       0x56 ../experiment1_bsp//libucosii_bsp.a(alt_write.o)
 .debug_loc     0x0000bbb0       0x57 ../experiment1_bsp//libucosii_bsp.a(alt_env_lock.o)
 .debug_loc     0x0000bc07       0x57 ../experiment1_bsp//libucosii_bsp.a(alt_malloc_lock.o)
 .debug_loc     0x0000bc5e      0x5e2 ../experiment1_bsp//libucosii_bsp.a(os_core.o)
 .debug_loc     0x0000c240       0x2b ../experiment1_bsp//libucosii_bsp.a(os_dbg.o)
 .debug_loc     0x0000c26b      0x232 ../experiment1_bsp//libucosii_bsp.a(os_flag.o)
 .debug_loc     0x0000c49d      0x158 ../experiment1_bsp//libucosii_bsp.a(os_mbox.o)
 .debug_loc     0x0000c5f5      0x12d ../experiment1_bsp//libucosii_bsp.a(os_mem.o)
 .debug_loc     0x0000c722      0x1da ../experiment1_bsp//libucosii_bsp.a(os_q.o)
 .debug_loc     0x0000c8fc      0x158 ../experiment1_bsp//libucosii_bsp.a(os_sem.o)
 .debug_loc     0x0000ca54      0x207 ../experiment1_bsp//libucosii_bsp.a(os_task.o)
 .debug_loc     0x0000cc5b       0xd7 ../experiment1_bsp//libucosii_bsp.a(os_time.o)
 .debug_loc     0x0000cd32       0x81 ../experiment1_bsp//libucosii_bsp.a(alt_sys_init.o)
 .debug_loc     0x0000cdb3       0xac ../experiment1_bsp//libucosii_bsp.a(altera_avalon_jtag_uart_fd.o)
 .debug_loc     0x0000ce5f       0xac ../experiment1_bsp//libucosii_bsp.a(altera_avalon_jtag_uart_init.o)
 .debug_loc     0x0000cf0b       0x2b ../experiment1_bsp//libucosii_bsp.a(altera_avalon_jtag_uart_ioctl.o)
 .debug_loc     0x0000cf36       0x2c ../experiment1_bsp//libucosii_bsp.a(altera_avalon_jtag_uart_read.o)
 .debug_loc     0x0000cf62       0x2c ../experiment1_bsp//libucosii_bsp.a(altera_avalon_jtag_uart_write.o)
 .debug_loc     0x0000cf8e       0xd7 ../experiment1_bsp//libucosii_bsp.a(altera_avalon_performance_counter.o)
 .debug_loc     0x0000d065       0x56 ../experiment1_bsp//libucosii_bsp.a(altera_avalon_timer_sc.o)
 .debug_loc     0x0000d0bb      0x22f ../experiment1_bsp//libucosii_bsp.a(altera_up_avalon_character_lcd.o)
 .debug_loc     0x0000d2ea       0x2b ../experiment1_bsp//libucosii_bsp.a(alt_alarm_start.o)
 .debug_loc     0x0000d315       0x2b ../experiment1_bsp//libucosii_bsp.a(alt_dcache_flush_all.o)
 .debug_loc     0x0000d340       0x56 ../experiment1_bsp//libucosii_bsp.a(alt_dev_llist_insert.o)
 .debug_loc     0x0000d396       0x2b ../experiment1_bsp//libucosii_bsp.a(alt_do_ctors.o)
 .debug_loc     0x0000d3c1       0x2b ../experiment1_bsp//libucosii_bsp.a(alt_do_dtors.o)
 .debug_loc     0x0000d3ec       0x2b ../experiment1_bsp//libucosii_bsp.a(alt_find_dev.o)
 .debug_loc     0x0000d417       0x2b ../experiment1_bsp//libucosii_bsp.a(alt_icache_flush_all.o)
 .debug_loc     0x0000d442       0xac ../experiment1_bsp//libucosii_bsp.a(alt_iic.o)
 .debug_loc     0x0000d4ee       0x2b ../experiment1_bsp//libucosii_bsp.a(alt_iic_isr_register.o)
 .debug_loc     0x0000d519       0x56 ../experiment1_bsp//libucosii_bsp.a(alt_io_redirect.o)
 .debug_loc     0x0000d56f       0x2b ../experiment1_bsp//libucosii_bsp.a(alt_irq_handler.o)
 .debug_loc     0x0000d59a       0x81 ../experiment1_bsp//libucosii_bsp.a(alt_open.o)
 .debug_loc     0x0000d61b       0x56 ../experiment1_bsp//libucosii_bsp.a(alt_tick.o)
 .debug_loc     0x0000d671       0x2b ../experiment1_bsp//libucosii_bsp.a(altera_nios2_qsys_irq.o)
 .debug_loc     0x0000d69c      0x1ae ../experiment1_bsp//libucosii_bsp.a(os_cpu_c.o)
 .debug_loc     0x0000d84a       0x2b ../experiment1_bsp//libucosii_bsp.a(alt_find_file.o)
 .debug_loc     0x0000d875       0x2b ../experiment1_bsp//libucosii_bsp.a(alt_get_fd.o)
 .debug_loc     0x0000d8a0       0x1e /tools/altera/12.0/nios2eds/bin/gnu/H-i686-pc-linux-gnu/bin/../lib/gcc/nios2-elf/4.1.2/../../../../nios2-elf/lib/mno-hw-mul/libc.a(lib_a-atexit.o)
 .debug_loc     0x0000d8be       0x3d /tools/altera/12.0/nios2eds/bin/gnu/H-i686-pc-linux-gnu/bin/../lib/gcc/nios2-elf/4.1.2/../../../../nios2-elf/lib/mno-hw-mul/libc.a(lib_a-exit.o)
 .debug_loc     0x0000d8fb      0x114 /tools/altera/12.0/nios2eds/bin/gnu/H-i686-pc-linux-gnu/bin/../lib/gcc/nios2-elf/4.1.2/../../../../nios2-elf/lib/mno-hw-mul/libc.a(lib_a-memcmp.o)
 .debug_loc     0x0000da0f      0x120 /tools/altera/12.0/nios2eds/bin/gnu/H-i686-pc-linux-gnu/bin/../lib/gcc/nios2-elf/4.1.2/../../../../nios2-elf/lib/mno-hw-mul/libc.a(lib_a-__atexit.o)
 .debug_loc     0x0000db2f      0x1cb /tools/altera/12.0/nios2eds/bin/gnu/H-i686-pc-linux-gnu/bin/../lib/gcc/nios2-elf/4.1.2/../../../../nios2-elf/lib/mno-hw-mul/libc.a(lib_a-__call_atexit.o)
 .debug_loc     0x0000dcfa       0x56 ../experiment1_bsp//libucosii_bsp.a(alt_exit.o)

.debug_macinfo
 *(.debug_macinfo)

.debug_weaknames
 *(.debug_weaknames)

.debug_funcnames
 *(.debug_funcnames)

.debug_typenames
 *(.debug_typenames)

.debug_varnames
 *(.debug_varnames)

.debug_alt_sim_info
                0x00000000       0x10
 *(.debug_alt_sim_info)
 .debug_alt_sim_info
                0x00000000       0x10 ../experiment1_bsp//obj/HAL/src/crt0.o
                0x00100000                __alt_data_end = 0x100000
                0x00100000                PROVIDE (__alt_stack_pointer, __alt_data_end)
                0x000b7f60                PROVIDE (__alt_stack_limit, __alt_stack_base)
                0x000b7f60                PROVIDE (__alt_heap_start, end)
                0x00100000                PROVIDE (__alt_heap_limit, 0x100000)
OUTPUT(experiment1.elf elf32-littlenios2)

.debug_ranges   0x00000000      0x9f8
 .debug_ranges  0x00000000       0x20 ../experiment1_bsp//obj/HAL/src/crt0.o
 .debug_ranges  0x00000020      0x168 /tools/altera/12.0/nios2eds/bin/gnu/H-i686-pc-linux-gnu/bin/../lib/gcc/nios2-elf/4.1.2/../../../../nios2-elf/lib/mno-hw-mul/libc.a(lib_a-vfprintf.o)
 .debug_ranges  0x00000188       0x20 /tools/altera/12.0/nios2eds/bin/gnu/H-i686-pc-linux-gnu/bin/../lib/gcc/nios2-elf/4.1.2/../../../../nios2-elf/lib/mno-hw-mul/libc.a(lib_a-fflush.o)
 .debug_ranges  0x000001a8       0x28 /tools/altera/12.0/nios2eds/bin/gnu/H-i686-pc-linux-gnu/bin/../lib/gcc/nios2-elf/4.1.2/../../../../nios2-elf/lib/mno-hw-mul/libc.a(lib_a-fvwrite.o)
 .debug_ranges  0x000001d0       0xa0 /tools/altera/12.0/nios2eds/bin/gnu/H-i686-pc-linux-gnu/bin/../lib/gcc/nios2-elf/4.1.2/../../../../nios2-elf/lib/mno-hw-mul/libc.a(lib_a-fwalk.o)
 .debug_ranges  0x00000270       0x70 /tools/altera/12.0/nios2eds/bin/gnu/H-i686-pc-linux-gnu/bin/../lib/gcc/nios2-elf/4.1.2/../../../../nios2-elf/lib/mno-hw-mul/libc.a(lib_a-mallocr.o)
 .debug_ranges  0x000002e0      0x110 /tools/altera/12.0/nios2eds/bin/gnu/H-i686-pc-linux-gnu/bin/../lib/gcc/nios2-elf/4.1.2/../../../../nios2-elf/lib/mno-hw-mul/libc.a(lib_a-reallocr.o)
 .debug_ranges  0x000003f0       0x38 /tools/altera/12.0/nios2eds/bin/gnu/H-i686-pc-linux-gnu/bin/../lib/gcc/nios2-elf/4.1.2/../../../../nios2-elf/lib/mno-hw-mul/libc.a(lib_a-callocr.o)
 .debug_ranges  0x00000428       0x88 /tools/altera/12.0/nios2eds/bin/gnu/H-i686-pc-linux-gnu/bin/../lib/gcc/nios2-elf/4.1.2/mno-hw-mul/libgcc.a(_muldi3.o)
 .debug_ranges  0x000004b0      0x190 /tools/altera/12.0/nios2eds/bin/gnu/H-i686-pc-linux-gnu/bin/../lib/gcc/nios2-elf/4.1.2/mno-hw-mul/libgcc.a(_udivdi3.o)
 .debug_ranges  0x00000640      0x1c0 /tools/altera/12.0/nios2eds/bin/gnu/H-i686-pc-linux-gnu/bin/../lib/gcc/nios2-elf/4.1.2/mno-hw-mul/libgcc.a(_umoddi3.o)
 .debug_ranges  0x00000800       0x30 /tools/altera/12.0/nios2eds/bin/gnu/H-i686-pc-linux-gnu/bin/../lib/gcc/nios2-elf/4.1.2/mno-hw-mul/libgcc.a(_addsub_df.o)
 .debug_ranges  0x00000830       0x88 /tools/altera/12.0/nios2eds/bin/gnu/H-i686-pc-linux-gnu/bin/../lib/gcc/nios2-elf/4.1.2/mno-hw-mul/libgcc.a(_mul_df.o)
 .debug_ranges  0x000008b8       0x50 /tools/altera/12.0/nios2eds/bin/gnu/H-i686-pc-linux-gnu/bin/../lib/gcc/nios2-elf/4.1.2/mno-hw-mul/libgcc.a(_div_df.o)
 .debug_ranges  0x00000908       0x18 /tools/altera/12.0/nios2eds/bin/gnu/H-i686-pc-linux-gnu/bin/../lib/gcc/nios2-elf/4.1.2/mno-hw-mul/libgcc.a(_usi_to_df.o)
 .debug_ranges  0x00000920       0x28 /tools/altera/12.0/nios2eds/bin/gnu/H-i686-pc-linux-gnu/bin/../lib/gcc/nios2-elf/4.1.2/mno-hw-mul/libgcc.a(_clzsi2.o)
 .debug_ranges  0x00000948       0x28 /tools/altera/12.0/nios2eds/bin/gnu/H-i686-pc-linux-gnu/bin/../lib/gcc/nios2-elf/4.1.2/mno-hw-mul/libgcc.a(_pack_df.o)
 .debug_ranges  0x00000970       0x18 ../experiment1_bsp//libucosii_bsp.a(altera_avalon_jtag_uart_init.o)
 .debug_ranges  0x00000988       0x28 ../experiment1_bsp//libucosii_bsp.a(alt_irq_entry.o)
 .debug_ranges  0x000009b0       0x30 ../experiment1_bsp//libucosii_bsp.a(alt_exception_entry.o)
 .debug_ranges  0x000009e0       0x18 /tools/altera/12.0/nios2eds/bin/gnu/H-i686-pc-linux-gnu/bin/../lib/gcc/nios2-elf/4.1.2/../../../../nios2-elf/lib/mno-hw-mul/libc.a(lib_a-__call_atexit.o)
